ARM GAS  C:\Users\THOMPS~1\AppData\Local\Temp\ccbcVIu9.s 			page 1


   1              		.syntax unified
   2              		.cpu cortex-m3
   3              		.fpu softvfp
   4              		.eabi_attribute 20, 1
   5              		.eabi_attribute 21, 1
   6              		.eabi_attribute 23, 3
   7              		.eabi_attribute 24, 1
   8              		.eabi_attribute 25, 1
   9              		.eabi_attribute 26, 1
  10              		.eabi_attribute 30, 1
  11              		.eabi_attribute 34, 1
  12              		.eabi_attribute 18, 4
  13              		.thumb
  14              		.syntax unified
  15              		.file	"main.c"
  16              		.text
  17              	.Ltext0:
  18              		.cfi_sections	.debug_frame
  19              		.global	__aeabi_f2d
  20              		.global	__aeabi_dadd
  21              		.global	__aeabi_d2f
  22              		.global	__aeabi_dsub
  23              		.section	.text.main,"ax",%progbits
  24              		.align	2
  25              		.global	main
  26              		.thumb
  27              		.thumb_func
  28              		.type	main, %function
  29              	main:
  30              	.LFB64:
  31              		.file 1 "main.c"
   1:main.c        **** /* ================================================================
   2:main.c        **** Automated Laser Frequency Relocking Procedure
   3:main.c        **** Original Programmer: Denton Wu
   4:main.c        **** Last modified: Sept 2018
   5:main.c        **** Notes:
   6:main.c        **** 
   7:main.c        **** Greetings relocker user or improver. This is the main relocker algorithm.
   8:main.c        **** There are two parts to the code: the setup and the relocking procedure. 
   9:main.c        **** 
  10:main.c        **** If float voltages will not display, PSoC Creator has updated and you need
  11:main.c        **** to reset the gcc compiler options to handle floats (see manual).
  12:main.c        **** ==================================================================*/
  13:main.c        **** 
  14:main.c        **** #include "project.h"
  15:main.c        **** #include "utility.h"
  16:main.c        **** #include <stdbool.h>
  17:main.c        **** #include <stdio.h>
  18:main.c        **** 
  19:main.c        **** 
  20:main.c        **** int main(void) {
  32              		.loc 1 20 0
  33              		.cfi_startproc
  34              		@ args = 0, pretend = 0, frame = 856
  35              		@ frame_needed = 0, uses_anonymous_args = 0
  36 0000 2DE9F04F 		push	{r4, r5, r6, r7, r8, r9, r10, fp, lr}
  37              		.cfi_def_cfa_offset 36
ARM GAS  C:\Users\THOMPS~1\AppData\Local\Temp\ccbcVIu9.s 			page 2


  38              		.cfi_offset 4, -36
  39              		.cfi_offset 5, -32
  40              		.cfi_offset 6, -28
  41              		.cfi_offset 7, -24
  42              		.cfi_offset 8, -20
  43              		.cfi_offset 9, -16
  44              		.cfi_offset 10, -12
  45              		.cfi_offset 11, -8
  46              		.cfi_offset 14, -4
  47 0004 ADF55F7D 		sub	sp, sp, #892
  48              		.cfi_def_cfa_offset 928
  21:main.c        ****   CyGlobalIntEnable                // enable global interrupts...
  49              		.loc 1 21 0
  50              		.syntax unified
  51              	@ 21 "main.c" 1
  52 0008 62B6     		CPSIE   i
  53              	@ 0 "" 2
  54              	.LVL0:
  22:main.c        ****   int MAX_FAILS_BEFORE_LED = 20;   // consecutive relock attempts before red LED turns on
  23:main.c        ****   int SWEEP_DELAY_US = 1;          // software delay in microseconds/step to slow sweep
  24:main.c        ****   bool TEST_VOLTAGE_MODE = false;  // loop an input/output voltage test sequence
  25:main.c        ****   
  26:main.c        ****   int16 logErrMon[255] = {};     // Do not change without taking care of overflow in code below!
  55              		.loc 1 26 0
  56              		.thumb
  57              		.syntax unified
  58 000a 4FF4FF72 		mov	r2, #510
  59 000e 0021     		movs	r1, #0
  60 0010 5EA8     		add	r0, sp, #376
  61 0012 FFF7FEFF 		bl	memset
  62              	.LVL1:
  27:main.c        ****                                  // Should be upperDACSweepLevel-lowerDACSweepLevel (4673 for 0.5V 
  28:main.c        ****                                  // but this takes too long to send over serial so we will store 51
  29:main.c        ****   bool boolLogErrMon = true;     // 
  30:main.c        ****   int16 logErrMonCounter = 0;    // current array index
  31:main.c        ****     
  32:main.c        ****   char8 serialBuffer[255];       // allocate space for serial messages
  33:main.c        ****   int32 lockedLFLevel;           // stores calibrated in-lock LF voltage
  34:main.c        ****   int32 upperLockedLFLevel = 0;  // in-lock LF voltage plus 150mV
  35:main.c        ****   int32 lowerLockedLFLevel = 0;  // in-lock LF voltage minus 150mV
  36:main.c        ****   int32 upperDACSweepLevel = 0;  // DAC sweep upper level
  37:main.c        ****   int32 lowerDACSweepLevel = 0;  // DAC sweep lower level
  38:main.c        ****   float lockedLFV, aboveLFV = 0, belowLFV = 0;
  39:main.c        ****   int32 LFOutputMeas;            // stores a LF voltage measurement during sweep
  40:main.c        ****   int16 errMonMaximum = 0;       // stores unlocked error monitor's maximum voltage
  41:main.c        ****   int16 errMonMinimum;           // stores unlocked error monitor's minimum voltage
  42:main.c        ****   int16 errMonThreshold;         // stores unlocked error monitor's threshold at half the maximum
  43:main.c        ****   int16 errMonThreshold1;         // stores unlocked error monitor's threshold at half the maximum
  44:main.c        ****   int16 errMonThreshold2;         // stores unlocked error monitor's threshold at half the maximum
  45:main.c        ****   int16 errMonMeasurement;       // stores last error monitor voltage measurement
  46:main.c        ****   int lockFails = 0;             // number of consecutive relock failures
  47:main.c        ****   int32 counterLED = 0;          // number of consecutive relock failures
  48:main.c        ****   int blinkLED = 0;              // boolean for blinking diagnostic LEDs
  49:main.c        ****   int LFRange;         // LF range should be 8, 22, or 28 (volts) depending on loop filter model
  50:main.c        ****   int DAC150mVLevel;   // corresponds to 150mV when 2^16 is (LFRange [Volts])
  51:main.c        ****   int DACOffset; // converts 2^15 DAC counts to 0V actual output (calibrating the op amp circuits)
  52:main.c        ****   float DACRange; // calibrating the full voltage output would give slightly better DAC conversion
ARM GAS  C:\Users\THOMPS~1\AppData\Local\Temp\ccbcVIu9.s 			page 3


  53:main.c        **** 
  54:main.c        ****   //tempTrigger_Write(0); // temporary
  55:main.c        ****   
  56:main.c        ****   bool debugJustCalibrated = false;
  57:main.c        ****   bool debugFirstLFSample = true;
  58:main.c        ****   bool debugFirstErrMonSample = true;
  59:main.c        ****   bool debugDropDetected = false;
  60:main.c        ****   
  61:main.c        ****   switches_Write(0); // writes to all pins attached to 'switches': aPin, bPin; box is inactive
  63              		.loc 1 61 0
  64 0016 0020     		movs	r0, #0
  65 0018 FFF7FEFF 		bl	switches_Write
  66              	.LVL2:
  62:main.c        ****   greenLight_Write(1); CyDelay(50);   // LED test
  67              		.loc 1 62 0
  68 001c 0120     		movs	r0, #1
  69 001e FFF7FEFF 		bl	greenLight_Write
  70              	.LVL3:
  71 0022 3220     		movs	r0, #50
  72 0024 FFF7FEFF 		bl	CyDelay
  73              	.LVL4:
  63:main.c        ****   yellowLight_Write(1); CyDelay(50); 
  74              		.loc 1 63 0
  75 0028 0120     		movs	r0, #1
  76 002a FFF7FEFF 		bl	yellowLight_Write
  77              	.LVL5:
  78 002e 3220     		movs	r0, #50
  79 0030 FFF7FEFF 		bl	CyDelay
  80              	.LVL6:
  64:main.c        ****   redLight_Write(1); CyDelay(50); 
  81              		.loc 1 64 0
  82 0034 0120     		movs	r0, #1
  83 0036 FFF7FEFF 		bl	redLight_Write
  84              	.LVL7:
  85 003a 3220     		movs	r0, #50
  86 003c FFF7FEFF 		bl	CyDelay
  87              	.LVL8:
  65:main.c        ****   orangeLight_Write(1); CyDelay(50);
  88              		.loc 1 65 0
  89 0040 0120     		movs	r0, #1
  90 0042 FFF7FEFF 		bl	orangeLight_Write
  91              	.LVL9:
  92 0046 3220     		movs	r0, #50
  93 0048 FFF7FEFF 		bl	CyDelay
  94              	.LVL10:
  66:main.c        ****   greenLight_Write(0); CyDelay(50);
  95              		.loc 1 66 0
  96 004c 0020     		movs	r0, #0
  97 004e FFF7FEFF 		bl	greenLight_Write
  98              	.LVL11:
  99 0052 3220     		movs	r0, #50
 100 0054 FFF7FEFF 		bl	CyDelay
 101              	.LVL12:
  67:main.c        ****   yellowLight_Write(0); CyDelay(50);
 102              		.loc 1 67 0
 103 0058 0020     		movs	r0, #0
 104 005a FFF7FEFF 		bl	yellowLight_Write
ARM GAS  C:\Users\THOMPS~1\AppData\Local\Temp\ccbcVIu9.s 			page 4


 105              	.LVL13:
 106 005e 3220     		movs	r0, #50
 107 0060 FFF7FEFF 		bl	CyDelay
 108              	.LVL14:
  68:main.c        ****   redLight_Write(0); CyDelay(50);
 109              		.loc 1 68 0
 110 0064 0020     		movs	r0, #0
 111 0066 FFF7FEFF 		bl	redLight_Write
 112              	.LVL15:
 113 006a 3220     		movs	r0, #50
 114 006c FFF7FEFF 		bl	CyDelay
 115              	.LVL16:
  69:main.c        ****   orangeLight_Write(0); CyDelay(50);
 116              		.loc 1 69 0
 117 0070 0020     		movs	r0, #0
 118 0072 FFF7FEFF 		bl	orangeLight_Write
 119              	.LVL17:
 120 0076 3220     		movs	r0, #50
 121 0078 FFF7FEFF 		bl	CyDelay
 122              	.LVL18:
  70:main.c        ****   CyDelay(100);
 123              		.loc 1 70 0
 124 007c 6420     		movs	r0, #100
 125 007e FFF7FEFF 		bl	CyDelay
 126              	.LVL19:
  71:main.c        ****   greenLight_Write(1); yellowLight_Write(1); orangeLight_Write(1); redLight_Write(1);
 127              		.loc 1 71 0
 128 0082 0120     		movs	r0, #1
 129 0084 FFF7FEFF 		bl	greenLight_Write
 130              	.LVL20:
 131 0088 0120     		movs	r0, #1
 132 008a FFF7FEFF 		bl	yellowLight_Write
 133              	.LVL21:
 134 008e 0120     		movs	r0, #1
 135 0090 FFF7FEFF 		bl	orangeLight_Write
 136              	.LVL22:
 137 0094 0120     		movs	r0, #1
 138 0096 FFF7FEFF 		bl	redLight_Write
 139              	.LVL23:
  72:main.c        ****   
  73:main.c        ****   CyDelay(100);
 140              		.loc 1 73 0
 141 009a 6420     		movs	r0, #100
 142 009c FFF7FEFF 		bl	CyDelay
 143              	.LVL24:
  74:main.c        ****   greenLight_Write(0); yellowLight_Write(0); orangeLight_Write(0); redLight_Write(0);
 144              		.loc 1 74 0
 145 00a0 0020     		movs	r0, #0
 146 00a2 FFF7FEFF 		bl	greenLight_Write
 147              	.LVL25:
 148 00a6 0020     		movs	r0, #0
 149 00a8 FFF7FEFF 		bl	yellowLight_Write
 150              	.LVL26:
 151 00ac 0020     		movs	r0, #0
 152 00ae FFF7FEFF 		bl	orangeLight_Write
 153              	.LVL27:
 154 00b2 0020     		movs	r0, #0
ARM GAS  C:\Users\THOMPS~1\AppData\Local\Temp\ccbcVIu9.s 			page 5


 155 00b4 FFF7FEFF 		bl	redLight_Write
 156              	.LVL28:
  75:main.c        **** 
  76:main.c        ****   errMonADC_Start();        // power on ADC
 157              		.loc 1 76 0
 158 00b8 FFF7FEFF 		bl	errMonADC_Start
 159              	.LVL29:
  77:main.c        ****   errMonADC_StartConvert(); // begin monitoring error signal monitor ADC
 160              		.loc 1 77 0
 161 00bc FFF7FEFF 		bl	errMonADC_StartConvert
 162              	.LVL30:
  78:main.c        ****   LFOutADC_Start();         // begin monitoring LF output ADC
 163              		.loc 1 78 0
 164 00c0 FFF7FEFF 		bl	LFOutADC_Start
 165              	.LVL31:
  79:main.c        ****   LFOutADC_StartConvert();  // begin monitoring error signal monitor ADC
 166              		.loc 1 79 0
 167 00c4 FFF7FEFF 		bl	LFOutADC_StartConvert
 168              	.LVL32:
  80:main.c        ****   coarseDAC_Start();
 169              		.loc 1 80 0
 170 00c8 FFF7FEFF 		bl	coarseDAC_Start
 171              	.LVL33:
  81:main.c        ****   fineDAC_Start();
 172              		.loc 1 81 0
 173 00cc FFF7FEFF 		bl	fineDAC_Start
 174              	.LVL34:
  82:main.c        ****   
  83:main.c        ****   SW_Tx_UART_1_Start();     // begin USB Serial communications  
 175              		.loc 1 83 0
 176 00d0 FFF7FEFF 		bl	SW_Tx_UART_1_Start
 177              	.LVL35:
  84:main.c        ****   Serial("SKYNET: Triggered Relocker v1.0. I am awake!");
 178              		.loc 1 84 0
 179 00d4 AA48     		ldr	r0, .L40+8
 180 00d6 FFF7FEFF 		bl	Serial
 181              	.LVL36:
  85:main.c        ****   sprintf(serialBuffer, "Compiled at %s on %s.", __TIME__, __DATE__); 
 182              		.loc 1 85 0
 183 00da AA4B     		ldr	r3, .L40+12
 184 00dc AA4A     		ldr	r2, .L40+16
 185 00de AB49     		ldr	r1, .L40+20
 186 00e0 1EA8     		add	r0, sp, #120
 187 00e2 FFF7FEFF 		bl	sprintf
 188              	.LVL37:
  86:main.c        ****   Serial(serialBuffer);
 189              		.loc 1 86 0
 190 00e6 1EA8     		add	r0, sp, #120
 191 00e8 FFF7FEFF 		bl	Serial
 192              	.LVL38:
  87:main.c        ****   
  88:main.c        **** //  while(1) {
  89:main.c        **** //    int16 testint[512] = {};
  90:main.c        **** //    testint[1] = 100;
  91:main.c        **** //    testint[3] = 5050;
  92:main.c        **** //    SendDataArray(logErrMon, sizeof(logErrMon) / sizeof(logErrMon[0]), logErrMonCounter);
  93:main.c        **** //  }
ARM GAS  C:\Users\THOMPS~1\AppData\Local\Temp\ccbcVIu9.s 			page 6


  94:main.c        ****   
  95:main.c        ****   // Check LF range setting and appropriately sets input/output voltage calibration scales
  96:main.c        ****   setupFreeSoc(TEST_VOLTAGE_MODE, &LFRange, &DAC150mVLevel, &DACOffset, &DACRange);
 193              		.loc 1 96 0
 194 00ec 1AAB     		add	r3, sp, #104
 195 00ee 0093     		str	r3, [sp]
 196 00f0 1BAB     		add	r3, sp, #108
 197 00f2 1CAA     		add	r2, sp, #112
 198 00f4 1DA9     		add	r1, sp, #116
 199 00f6 0020     		movs	r0, #0
 200 00f8 FFF7FEFF 		bl	setupFreeSoc
 201              	.LVL39:
  97:main.c        ****   
  98:main.c        ****   // Loop until user sets switch to "Calibrate". Make sure you have set the LF Range first!
  99:main.c        ****   if (calibratePin_Read() == 0) {
 202              		.loc 1 99 0
 203 00fc FFF7FEFF 		bl	calibratePin_Read
 204              	.LVL40:
 205 0100 98B9     		cbnz	r0, .L30
 100:main.c        ****     Serial("Awaiting calibration. Set Switch 4 to 'Choose'.");
 206              		.loc 1 100 0
 207 0102 A348     		ldr	r0, .L40+24
 208 0104 FFF7FEFF 		bl	Serial
 209              	.LVL41:
  48:main.c        ****   int LFRange;         // LF range should be 8, 22, or 28 (volts) depending on loop filter model
 210              		.loc 1 48 0
 211 0108 0023     		movs	r3, #0
 212 010a 1C46     		mov	r4, r3
 101:main.c        ****     while (calibratePin_Read() == 0) {
 213              		.loc 1 101 0
 214 010c 07E0     		b	.L3
 215              	.LVL42:
 216              	.L4:
 102:main.c        ****       CyDelay(250);
 217              		.loc 1 102 0
 218 010e FA20     		movs	r0, #250
 219 0110 FFF7FEFF 		bl	CyDelay
 220              	.LVL43:
 103:main.c        ****       blinkLED = 1 - blinkLED;
 221              		.loc 1 103 0
 222 0114 C4F10104 		rsb	r4, r4, #1
 223              	.LVL44:
 104:main.c        ****       yellowLight_Write(blinkLED);
 224              		.loc 1 104 0
 225 0118 E0B2     		uxtb	r0, r4
 226 011a FFF7FEFF 		bl	yellowLight_Write
 227              	.LVL45:
 228              	.L3:
 101:main.c        ****       CyDelay(250);
 229              		.loc 1 101 0
 230 011e FFF7FEFF 		bl	calibratePin_Read
 231              	.LVL46:
 232 0122 0028     		cmp	r0, #0
 233 0124 F3D0     		beq	.L4
 234 0126 1594     		str	r4, [sp, #84]
 235 0128 01E0     		b	.L2
 236              	.LVL47:
ARM GAS  C:\Users\THOMPS~1\AppData\Local\Temp\ccbcVIu9.s 			page 7


 237              	.L30:
  48:main.c        ****   int LFRange;         // LF range should be 8, 22, or 28 (volts) depending on loop filter model
 238              		.loc 1 48 0
 239 012a 0023     		movs	r3, #0
 240 012c 1593     		str	r3, [sp, #84]
 241              	.LVL48:
 242              	.L2:
 105:main.c        ****     }
 106:main.c        ****   }
 107:main.c        **** 
 108:main.c        ****   Serial("Beginning main sequence (calibrating, then attempting to relock).");
 243              		.loc 1 108 0
 244 012e 9948     		ldr	r0, .L40+28
 245 0130 FFF7FEFF 		bl	Serial
 246              	.LVL49:
 109:main.c        ****   Serial("Switch to Lock to engage relocker or sample the error signal range.");
 247              		.loc 1 109 0
 248 0134 9848     		ldr	r0, .L40+32
 249 0136 FFF7FEFF 		bl	Serial
 250              	.LVL50:
  59:main.c        ****   
 251              		.loc 1 59 0
 252 013a 0023     		movs	r3, #0
 253 013c 1493     		str	r3, [sp, #80]
  58:main.c        ****   bool debugDropDetected = false;
 254              		.loc 1 58 0
 255 013e 0122     		movs	r2, #1
 256 0140 1992     		str	r2, [sp, #100]
  57:main.c        ****   bool debugFirstErrMonSample = true;
 257              		.loc 1 57 0
 258 0142 1792     		str	r2, [sp, #92]
  56:main.c        ****   bool debugFirstLFSample = true;
 259              		.loc 1 56 0
 260 0144 1693     		str	r3, [sp, #88]
  47:main.c        ****   int blinkLED = 0;              // boolean for blinking diagnostic LEDs
 261              		.loc 1 47 0
 262 0146 1893     		str	r3, [sp, #96]
  46:main.c        ****   int32 counterLED = 0;          // number of consecutive relock failures
 263              		.loc 1 46 0
 264 0148 0A93     		str	r3, [sp, #40]
  38:main.c        ****   int32 LFOutputMeas;            // stores a LF voltage measurement during sweep
 265              		.loc 1 38 0
 266 014a 0022     		movs	r2, #0
 267 014c 1392     		str	r2, [sp, #76]	@ float
 268 014e 1092     		str	r2, [sp, #64]	@ float
  37:main.c        ****   float lockedLFV, aboveLFV = 0, belowLFV = 0;
 269              		.loc 1 37 0
 270 0150 0993     		str	r3, [sp, #36]
  36:main.c        ****   int32 lowerDACSweepLevel = 0;  // DAC sweep lower level
 271              		.loc 1 36 0
 272 0152 0B93     		str	r3, [sp, #44]
  35:main.c        ****   int32 upperDACSweepLevel = 0;  // DAC sweep upper level
 273              		.loc 1 35 0
 274 0154 1193     		str	r3, [sp, #68]
  34:main.c        ****   int32 lowerLockedLFLevel = 0;  // in-lock LF voltage minus 150mV
 275              		.loc 1 34 0
 276 0156 0F93     		str	r3, [sp, #60]
ARM GAS  C:\Users\THOMPS~1\AppData\Local\Temp\ccbcVIu9.s 			page 8


  30:main.c        ****     
 277              		.loc 1 30 0
 278 0158 9A46     		mov	r10, r3
 279              	.LVL51:
 280              	.L5:
 110:main.c        ****   for(;;) {
 111:main.c        ****     errMonMinimum = 0;     // initialize these to ridiculous values
 281              		.loc 1 111 0
 282 015a 0027     		movs	r7, #0
 112:main.c        ****     errMonMaximum = 32767;
 283              		.loc 1 112 0
 284 015c 47F6FF76 		movw	r6, #32767
 285 0160 CDF830A0 		str	r10, [sp, #48]
 286 0164 DDF84C80 		ldr	r8, [sp, #76]	@ float
 287 0168 0E9C     		ldr	r4, [sp, #56]
 288 016a DDF85890 		ldr	r9, [sp, #88]
 289 016e 179D     		ldr	r5, [sp, #92]
 290 0170 DDF864A0 		ldr	r10, [sp, #100]
 291              	.LVL52:
 113:main.c        ****     
 114:main.c        ****     while(calibratePin_Read() == 1) {
 292              		.loc 1 114 0
 293 0174 6FE0     		b	.L6
 294              	.LVL53:
 295              	.L14:
 115:main.c        ****       // Enter calibration procedure (set or reset LF average and/or error monitor maximum)
 116:main.c        ****       greenLight_Write(0);
 296              		.loc 1 116 0
 297 0176 0020     		movs	r0, #0
 298 0178 FFF7FEFF 		bl	greenLight_Write
 299              	.LVL54:
 117:main.c        ****       yellowLight_Write(1);
 300              		.loc 1 117 0
 301 017c 0120     		movs	r0, #1
 302 017e FFF7FEFF 		bl	yellowLight_Write
 303              	.LVL55:
 118:main.c        **** 
 119:main.c        ****       if(sampleErrorMonitor_Read() == 1) { // send message so it is clear what we are sampling.
 304              		.loc 1 119 0
 305 0182 FFF7FEFF 		bl	sampleErrorMonitor_Read
 306              	.LVL56:
 307 0186 0128     		cmp	r0, #1
 308 0188 28D1     		bne	.L7
 120:main.c        ****         if (debugFirstErrMonSample) {
 309              		.loc 1 120 0
 310 018a BAF1000F 		cmp	r10, #0
 311 018e 13D0     		beq	.L9
 121:main.c        ****           Serial("Now sampling out-of-lock maximum error signal voltage.");
 312              		.loc 1 121 0
 313 0190 8248     		ldr	r0, .L40+36
 314 0192 FFF7FEFF 		bl	Serial
 315              	.LVL57:
 122:main.c        ****           debugFirstErrMonSample = false; 
 316              		.loc 1 122 0
 317 0196 4FF0000A 		mov	r10, #0
 123:main.c        ****           debugFirstLFSample = true;
 318              		.loc 1 123 0
ARM GAS  C:\Users\THOMPS~1\AppData\Local\Temp\ccbcVIu9.s 			page 9


 319 019a 0125     		movs	r5, #1
 320 019c 0CE0     		b	.L9
 321              	.LVL58:
 322              	.L11:
 124:main.c        ****         }
 125:main.c        ****         while(sampleErrorMonitor_Read() == 1) {
 126:main.c        ****           (void)errMonADC_IsEndConversion(errMonADC_WAIT_FOR_RESULT); // docs say: always check
 323              		.loc 1 126 0
 324 019e 0020     		movs	r0, #0
 325 01a0 FFF7FEFF 		bl	errMonADC_IsEndConversion
 326              	.LVL59:
 127:main.c        ****           errMonMeasurement = errMonADC_GetResult16();
 327              		.loc 1 127 0
 328 01a4 FFF7FEFF 		bl	errMonADC_GetResult16
 329              	.LVL60:
 128:main.c        ****           if (errMonMeasurement < errMonMaximum) { // found new maximum voltage (op amp inverted)
 330              		.loc 1 128 0
 331 01a8 8642     		cmp	r6, r0
 332 01aa 02DC     		bgt	.L31
 129:main.c        ****             errMonMaximum = errMonMeasurement;
 130:main.c        ****           } else if (errMonMeasurement > errMonMinimum) {
 333              		.loc 1 130 0
 334 01ac 8742     		cmp	r7, r0
 335 01ae 02DB     		blt	.L32
 336 01b0 02E0     		b	.L9
 337              	.L31:
 129:main.c        ****             errMonMaximum = errMonMeasurement;
 338              		.loc 1 129 0
 339 01b2 0646     		mov	r6, r0
 340              	.LVL61:
 341 01b4 00E0     		b	.L9
 342              	.LVL62:
 343              	.L32:
 131:main.c        ****             errMonMinimum = errMonMeasurement;
 344              		.loc 1 131 0
 345 01b6 0746     		mov	r7, r0
 346              	.LVL63:
 347              	.L9:
 125:main.c        ****           (void)errMonADC_IsEndConversion(errMonADC_WAIT_FOR_RESULT); // docs say: always check
 348              		.loc 1 125 0
 349 01b8 FFF7FEFF 		bl	sampleErrorMonitor_Read
 350              	.LVL64:
 351 01bc 0128     		cmp	r0, #1
 352 01be EED0     		beq	.L11
 353              	.LVL65:
 132:main.c        ****           }
 133:main.c        ****         }
 134:main.c        ****         
 135:main.c        ****         /* here are the initial thresholds */
 136:main.c        ****         // changing /4 to /6... etc.
 137:main.c        ****         errMonThreshold = (3*errMonMaximum + errMonMinimum)/4; // for slope: thresh above avg
 138:main.c        ****         errMonThreshold1 = errMonThreshold; // for slope: thresh above avg
 139:main.c        ****         errMonThreshold2 = (errMonMaximum + 3*errMonMinimum)/4; // other slope: thresh below avg
 140:main.c        ****         
 141:main.c        ****         errMonThreshold = errMonMaximum + (( errMonMinimum - errMonMaximum ) / 3); // for slope: th
 354              		.loc 1 141 0
 355 01c0 BA1B     		subs	r2, r7, r6
ARM GAS  C:\Users\THOMPS~1\AppData\Local\Temp\ccbcVIu9.s 			page 10


 356 01c2 774B     		ldr	r3, .L40+40
 357 01c4 83FB0213 		smull	r1, r3, r3, r2
 358 01c8 A3EBE273 		sub	r3, r3, r2, asr #31
 359 01cc 9BB2     		uxth	r3, r3
 360 01ce 03EB060B 		add	fp, r3, r6
 361 01d2 0FFA8BFB 		sxth	fp, fp
 362              	.LVL66:
 142:main.c        ****         errMonThreshold1 = errMonThreshold; // for slope: thresh above avg
 143:main.c        ****         errMonThreshold2 = errMonMinimum - ((errMonMinimum - errMonMaximum ) / 3); // other slope: 
 363              		.loc 1 143 0
 364 01d6 FB1A     		subs	r3, r7, r3
 365 01d8 1CB2     		sxth	r4, r3
 366              	.LVL67:
 367 01da 3AE0     		b	.L12
 368              	.LVL68:
 369              	.L7:
 144:main.c        ****         /* here we are assuming a symmetric error signal. we are assuming a rising slope for the ce
 145:main.c        ****         
 146:main.c        ****       } else {
 147:main.c        ****         if (debugFirstLFSample) { // send message so it is clear we are calibrating.
 370              		.loc 1 147 0
 371 01dc 2DB1     		cbz	r5, .L13
 148:main.c        ****           Serial("Sampling average in-lock LF output.");
 372              		.loc 1 148 0
 373 01de 7148     		ldr	r0, .L40+44
 374 01e0 FFF7FEFF 		bl	Serial
 375              	.LVL69:
 149:main.c        ****           debugFirstErrMonSample = true;
 376              		.loc 1 149 0
 377 01e4 4FF0010A 		mov	r10, #1
 150:main.c        ****           debugFirstLFSample = false; 
 378              		.loc 1 150 0
 379 01e8 0025     		movs	r5, #0
 380              	.LVL70:
 381              	.L13:
 151:main.c        ****         }
 152:main.c        ****         // Now measure in-lock loop filter output voltage. Take the last measurement, no averaging
 153:main.c        ****         (void)LFOutADC_IsEndConversion(LFOutADC_WAIT_FOR_RESULT);
 382              		.loc 1 153 0
 383 01ea 0020     		movs	r0, #0
 384 01ec FFF7FEFF 		bl	LFOutADC_IsEndConversion
 385              	.LVL71:
 154:main.c        ****         lockedLFLevel = LFOutADC_GetResult32(); // Measure LF out voltage.
 386              		.loc 1 154 0
 387 01f0 FFF7FEFF 		bl	LFOutADC_GetResult32
 388              	.LVL72:
 155:main.c        ****         
 156:main.c        ****         lockedLFV = LFOutADC_CountsTo_Volts(lockedLFLevel);
 389              		.loc 1 156 0
 390 01f4 FFF7FEFF 		bl	LFOutADC_CountsTo_Volts
 391              	.LVL73:
 392 01f8 1290     		str	r0, [sp, #72]	@ float
 393              	.LVL74:
 157:main.c        ****         // Set bounds 200mV above/below the in-lock output voltage.
 158:main.c        ****         // test: 300 mV?
 159:main.c        ****         aboveLFV = lockedLFV + 0.150;
 394              		.loc 1 159 0
ARM GAS  C:\Users\THOMPS~1\AppData\Local\Temp\ccbcVIu9.s 			page 11


 395 01fa FFF7FEFF 		bl	__aeabi_f2d
 396              	.LVL75:
 397 01fe 8046     		mov	r8, r0
 398              	.LVL76:
 399 0200 8946     		mov	r9, r1
 400              	.LVL77:
 401 0202 5DA3     		adr	r3, .L40
 402 0204 D3E90023 		ldrd	r2, [r3]
 403 0208 FFF7FEFF 		bl	__aeabi_dadd
 404              	.LVL78:
 405 020c FFF7FEFF 		bl	__aeabi_d2f
 406              	.LVL79:
 407 0210 1090     		str	r0, [sp, #64]	@ float
 408              	.LVL80:
 160:main.c        ****         belowLFV = lockedLFV - 0.150;
 409              		.loc 1 160 0
 410 0212 59A3     		adr	r3, .L40
 411 0214 D3E90023 		ldrd	r2, [r3]
 412 0218 4046     		mov	r0, r8
 413              	.LVL81:
 414 021a 4946     		mov	r1, r9
 415 021c FFF7FEFF 		bl	__aeabi_dsub
 416              	.LVL82:
 417 0220 FFF7FEFF 		bl	__aeabi_d2f
 418              	.LVL83:
 419 0224 8046     		mov	r8, r0
 420              	.LVL84:
 161:main.c        ****         // upperLockedLFLevel = lockedLFLevel + DAC150mVLevel;
 162:main.c        ****         // lowerLockedLFLevel = lockedLFLevel - DAC150mVLevel;
 163:main.c        ****         upperLockedLFLevel = LFOutADC_VoltsTo_Counts(aboveLFV);
 421              		.loc 1 163 0
 422 0226 DDF84090 		ldr	r9, [sp, #64]	@ float
 423 022a 4846     		mov	r0, r9
 424              	.LVL85:
 425 022c FFF7FEFF 		bl	LFOutADC_VoltsTo_Counts
 426              	.LVL86:
 427 0230 0F90     		str	r0, [sp, #60]
 428              	.LVL87:
 164:main.c        ****         lowerLockedLFLevel = LFOutADC_VoltsTo_Counts(belowLFV);
 429              		.loc 1 164 0
 430 0232 4046     		mov	r0, r8
 431              	.LVL88:
 432 0234 FFF7FEFF 		bl	LFOutADC_VoltsTo_Counts
 433              	.LVL89:
 434 0238 1190     		str	r0, [sp, #68]
 435              	.LVL90:
 165:main.c        ****         upperDACSweepLevel = DAC_VoltsTo_Counts(aboveLFV, DACRange, DACOffset);
 436              		.loc 1 165 0
 437 023a 1B9A     		ldr	r2, [sp, #108]
 438 023c 1A99     		ldr	r1, [sp, #104]	@ float
 439 023e 4846     		mov	r0, r9
 440              	.LVL91:
 441 0240 FFF7FEFF 		bl	DAC_VoltsTo_Counts
 442              	.LVL92:
 443 0244 0B90     		str	r0, [sp, #44]
 444              	.LVL93:
 166:main.c        ****         lowerDACSweepLevel = DAC_VoltsTo_Counts(belowLFV, DACRange, DACOffset);
ARM GAS  C:\Users\THOMPS~1\AppData\Local\Temp\ccbcVIu9.s 			page 12


 445              		.loc 1 166 0
 446 0246 1B9A     		ldr	r2, [sp, #108]
 447 0248 1A99     		ldr	r1, [sp, #104]	@ float
 448 024a 4046     		mov	r0, r8
 449              	.LVL94:
 450 024c FFF7FEFF 		bl	DAC_VoltsTo_Counts
 451              	.LVL95:
 452 0250 0990     		str	r0, [sp, #36]
 453              	.LVL96:
 454              	.L12:
 455 0252 4FF00109 		mov	r9, #1
 456              	.LVL97:
 457              	.L6:
 114:main.c        ****       // Enter calibration procedure (set or reset LF average and/or error monitor maximum)
 458              		.loc 1 114 0
 459 0256 FFF7FEFF 		bl	calibratePin_Read
 460              	.LVL98:
 461 025a 0128     		cmp	r0, #1
 462 025c 8BD0     		beq	.L14
 463 025e CDF84C80 		str	r8, [sp, #76]	@ float
 464 0262 0E94     		str	r4, [sp, #56]
 465 0264 4B46     		mov	r3, r9
 466 0266 CDF85890 		str	r9, [sp, #88]
 467 026a 1795     		str	r5, [sp, #92]
 468 026c CDF864A0 		str	r10, [sp, #100]
 469 0270 DDF830A0 		ldr	r10, [sp, #48]
 470              	.LVL99:
 167:main.c        ****       }
 168:main.c        ****       
 169:main.c        ****       debugJustCalibrated = true;
 170:main.c        ****     }
 171:main.c        ****     
 172:main.c        ****     if (debugJustCalibrated) { // diagnostics
 471              		.loc 1 172 0
 472 0274 002B     		cmp	r3, #0
 473 0276 63D0     		beq	.L15
 474              	.LBB2:
 173:main.c        ****       float V1 = errMonADC_CountsTo_Volts(errMonMinimum);
 475              		.loc 1 173 0
 476 0278 3846     		mov	r0, r7
 477 027a FFF7FEFF 		bl	errMonADC_CountsTo_Volts
 478              	.LVL100:
 479 027e 0C90     		str	r0, [sp, #48]	@ float
 480              	.LVL101:
 174:main.c        ****       float V2 = errMonADC_CountsTo_Volts(errMonMaximum);
 481              		.loc 1 174 0
 482 0280 3046     		mov	r0, r6
 483              	.LVL102:
 484 0282 FFF7FEFF 		bl	errMonADC_CountsTo_Volts
 485              	.LVL103:
 486 0286 0D90     		str	r0, [sp, #52]	@ float
 487              	.LVL104:
 175:main.c        ****       float V3 = errMonADC_CountsTo_Volts(errMonThreshold1);
 488              		.loc 1 175 0
 489 0288 5846     		mov	r0, fp
 490              	.LVL105:
 491 028a FFF7FEFF 		bl	errMonADC_CountsTo_Volts
ARM GAS  C:\Users\THOMPS~1\AppData\Local\Temp\ccbcVIu9.s 			page 13


 492              	.LVL106:
 493 028e 1690     		str	r0, [sp, #88]	@ float
 494              	.LVL107:
 176:main.c        ****       float V4 = errMonADC_CountsTo_Volts(errMonThreshold2);
 495              		.loc 1 176 0
 496 0290 0E98     		ldr	r0, [sp, #56]
 497              	.LVL108:
 498 0292 FFF7FEFF 		bl	errMonADC_CountsTo_Volts
 499              	.LVL109:
 500 0296 1790     		str	r0, [sp, #92]	@ float
 501              	.LVL110:
 177:main.c        ****        Serial("Calibration complete.");
 502              		.loc 1 177 0
 503 0298 4348     		ldr	r0, .L40+48
 504              	.LVL111:
 505 029a FFF7FEFF 		bl	Serial
 506              	.LVL112:
 178:main.c        ****       sprintf(serialBuffer, "--> LF avg: %.3fV, sets bounds at [%ld, %ld]=[%.3fV, %.3fV]",
 507              		.loc 1 178 0
 508 029e 1398     		ldr	r0, [sp, #76]	@ float
 509 02a0 FFF7FEFF 		bl	__aeabi_f2d
 510              	.LVL113:
 511 02a4 0446     		mov	r4, r0
 512              	.LVL114:
 513 02a6 0D46     		mov	r5, r1
 514              	.LVL115:
 515 02a8 1098     		ldr	r0, [sp, #64]	@ float
 516 02aa FFF7FEFF 		bl	__aeabi_f2d
 517              	.LVL116:
 518 02ae 8046     		mov	r8, r0
 519              	.LVL117:
 520 02b0 8946     		mov	r9, r1
 521              	.LVL118:
 522 02b2 1298     		ldr	r0, [sp, #72]	@ float
 523 02b4 FFF7FEFF 		bl	__aeabi_f2d
 524              	.LVL119:
 525 02b8 CDE90489 		strd	r8, [sp, #16]
 526 02bc CDE90245 		strd	r4, [sp, #8]
 527 02c0 0F9B     		ldr	r3, [sp, #60]
 528 02c2 0193     		str	r3, [sp, #4]
 529 02c4 119B     		ldr	r3, [sp, #68]
 530 02c6 0093     		str	r3, [sp]
 531 02c8 0246     		mov	r2, r0
 532 02ca 0B46     		mov	r3, r1
 533 02cc 3749     		ldr	r1, .L40+52
 534 02ce 0DF1780E 		add	lr, sp, #120
 535 02d2 7046     		mov	r0, lr
 536 02d4 FFF7FEFF 		bl	sprintf
 537              	.LVL120:
 179:main.c        ****         lockedLFV, lowerLockedLFLevel, upperLockedLFLevel, belowLFV, aboveLFV); 
 180:main.c        ****       Serial(serialBuffer);
 538              		.loc 1 180 0
 539 02d8 1EAB     		add	r3, sp, #120
 540 02da 1846     		mov	r0, r3
 541 02dc FFF7FEFF 		bl	Serial
 542              	.LVL121:
 181:main.c        ****       sprintf(serialBuffer, "--> DAC sweep range: [%ld, %ld]=[lownum, highnum]=[%.3fV, %.3fV]",
ARM GAS  C:\Users\THOMPS~1\AppData\Local\Temp\ccbcVIu9.s 			page 14


 543              		.loc 1 181 0
 544 02e0 CDE90245 		strd	r4, [sp, #8]
 545 02e4 CDE90089 		strd	r8, [sp]
 546 02e8 099B     		ldr	r3, [sp, #36]
 547 02ea 0B9A     		ldr	r2, [sp, #44]
 548 02ec 3049     		ldr	r1, .L40+56
 549 02ee 1EAC     		add	r4, sp, #120
 550 02f0 2046     		mov	r0, r4
 551 02f2 FFF7FEFF 		bl	sprintf
 552              	.LVL122:
 182:main.c        ****         upperDACSweepLevel, lowerDACSweepLevel, aboveLFV, belowLFV); 
 183:main.c        ****       Serial(serialBuffer);
 553              		.loc 1 183 0
 554 02f6 1EAB     		add	r3, sp, #120
 555 02f8 1846     		mov	r0, r3
 556 02fa FFF7FEFF 		bl	Serial
 557              	.LVL123:
 184:main.c        ****       sprintf(serialBuffer, "--> Err monitor: [%d, %d]=[%.3fV, %.3fV]; threshold %.3f %.3f",
 558              		.loc 1 184 0
 559 02fe 1798     		ldr	r0, [sp, #92]	@ float
 560 0300 FFF7FEFF 		bl	__aeabi_f2d
 561              	.LVL124:
 562 0304 CDE90601 		strd	r0, [sp, #24]
 563 0308 1698     		ldr	r0, [sp, #88]	@ float
 564 030a FFF7FEFF 		bl	__aeabi_f2d
 565              	.LVL125:
 566 030e CDE90401 		strd	r0, [sp, #16]
 567 0312 0D98     		ldr	r0, [sp, #52]	@ float
 568 0314 FFF7FEFF 		bl	__aeabi_f2d
 569              	.LVL126:
 570 0318 CDE90201 		strd	r0, [sp, #8]
 571 031c 0C98     		ldr	r0, [sp, #48]	@ float
 572 031e FFF7FEFF 		bl	__aeabi_f2d
 573              	.LVL127:
 574 0322 CDE90001 		strd	r0, [sp]
 575 0326 3346     		mov	r3, r6
 576 0328 3A46     		mov	r2, r7
 577 032a 2249     		ldr	r1, .L40+60
 578 032c 1EA8     		add	r0, sp, #120
 579 032e FFF7FEFF 		bl	sprintf
 580              	.LVL128:
 185:main.c        ****         errMonMinimum, errMonMaximum, V1, V2, V3, V4); 
 186:main.c        ****       Serial(serialBuffer);
 581              		.loc 1 186 0
 582 0332 1EA8     		add	r0, sp, #120
 583 0334 FFF7FEFF 		bl	Serial
 584              	.LVL129:
 187:main.c        ****       debugJustCalibrated = false;
 188:main.c        ****       debugFirstLFSample = true;
 585              		.loc 1 188 0
 586 0338 0123     		movs	r3, #1
 587 033a 1793     		str	r3, [sp, #92]
 588              	.LVL130:
 187:main.c        ****       debugJustCalibrated = false;
 589              		.loc 1 187 0
 590 033c 0023     		movs	r3, #0
 591 033e 1693     		str	r3, [sp, #88]
ARM GAS  C:\Users\THOMPS~1\AppData\Local\Temp\ccbcVIu9.s 			page 15


 592              	.LVL131:
 593              	.L15:
 594              	.LBE2:
 189:main.c        ****     }
 190:main.c        **** 
 191:main.c        ****     // Relocker is now watching for a drop!
 192:main.c        ****     greenLight_Write(1);
 595              		.loc 1 192 0
 596 0340 0120     		movs	r0, #1
 597 0342 FFF7FEFF 		bl	greenLight_Write
 598              	.LVL132:
 193:main.c        ****     yellowLight_Write(0);
 599              		.loc 1 193 0
 600 0346 0020     		movs	r0, #0
 601 0348 FFF7FEFF 		bl	yellowLight_Write
 602              	.LVL133:
 194:main.c        ****     (void)LFOutADC_IsEndConversion(LFOutADC_WAIT_FOR_RESULT);
 603              		.loc 1 194 0
 604 034c 0020     		movs	r0, #0
 605 034e FFF7FEFF 		bl	LFOutADC_IsEndConversion
 606              	.LVL134:
 195:main.c        ****     LFOutputMeas = LFOutADC_GetResult32(); // Measure LF output, check if it is unlocked
 607              		.loc 1 195 0
 608 0352 FFF7FEFF 		bl	LFOutADC_GetResult32
 609              	.LVL135:
 610 0356 0446     		mov	r4, r0
 611              	.LVL136:
 196:main.c        ****     
 197:main.c        ****     if ((LFOutputMeas < upperLockedLFLevel) || (LFOutputMeas > lowerLockedLFLevel)) {
 612              		.loc 1 197 0
 613 0358 0F9B     		ldr	r3, [sp, #60]
 614 035a 8342     		cmp	r3, r0
 615 035c 03DC     		bgt	.L16
 616              		.loc 1 197 0 is_stmt 0 discriminator 1
 617 035e 119B     		ldr	r3, [sp, #68]
 618 0360 8342     		cmp	r3, r0
 619 0362 80F2CD80 		bge	.L38
 620              	.L16:
 198:main.c        ****       if(blockLockPin_Read() == 1) { // loop here until blockLock TTL is low
 621              		.loc 1 198 0 is_stmt 1
 622 0366 FFF7FEFF 		bl	blockLockPin_Read
 623              	.LVL137:
 624 036a 0128     		cmp	r0, #1
 625 036c 34D1     		bne	.L19
 626 036e 189D     		ldr	r5, [sp, #96]
 627 0370 159E     		ldr	r6, [sp, #84]
 628              	.LVL138:
 629 0372 2BE0     		b	.L18
 630              	.L41:
 631 0374 AFF30080 		.align	3
 632              	.L40:
 633 0378 33333333 		.word	858993459
 634 037c 3333C33F 		.word	1069757235
 635 0380 00000000 		.word	.LC0
 636 0384 30000000 		.word	.LC1
 637 0388 3C000000 		.word	.LC2
 638 038c 48000000 		.word	.LC3
ARM GAS  C:\Users\THOMPS~1\AppData\Local\Temp\ccbcVIu9.s 			page 16


 639 0390 60000000 		.word	.LC4
 640 0394 90000000 		.word	.LC5
 641 0398 D4000000 		.word	.LC6
 642 039c 18010000 		.word	.LC7
 643 03a0 56555555 		.word	1431655766
 644 03a4 50010000 		.word	.LC8
 645 03a8 74010000 		.word	.LC9
 646 03ac 8C010000 		.word	.LC10
 647 03b0 C8010000 		.word	.LC11
 648 03b4 0C020000 		.word	.LC12
 649              	.LVL139:
 650              	.L21:
 199:main.c        ****    //     sprintf(serialBuffer, "Detected dropped lock (%.3fV). Waiting for Block Lock TTL low befo
 200:main.c        ****     //      LFOutADC_CountsTo_Volts(LFOutputMeas)); 
 201:main.c        ****    //       Serial(serialBuffer);
 202:main.c        ****         while(blockLockPin_Read() == 1) {
 203:main.c        ****           if(counterLED >= 300000) { // nice counter trick to make about 2Hz blinking
 651              		.loc 1 203 0
 652 03b8 684B     		ldr	r3, .L42
 653 03ba 9D42     		cmp	r5, r3
 654 03bc 05DD     		ble	.L20
 655              	.LVL140:
 204:main.c        ****             counterLED = 0;
 205:main.c        ****             orangeLight_Write(blinkLED = 1 - blinkLED);
 656              		.loc 1 205 0
 657 03be C6F10106 		rsb	r6, r6, #1
 658              	.LVL141:
 659 03c2 F0B2     		uxtb	r0, r6
 660 03c4 FFF7FEFF 		bl	orangeLight_Write
 661              	.LVL142:
 204:main.c        ****             counterLED = 0;
 662              		.loc 1 204 0
 663 03c8 0025     		movs	r5, #0
 664              	.LVL143:
 665              	.L20:
 206:main.c        ****           }
 207:main.c        ****           counterLED++;
 666              		.loc 1 207 0
 667 03ca 0135     		adds	r5, r5, #1
 668              	.LVL144:
 669              	.L18:
 202:main.c        ****           if(counterLED >= 300000) { // nice counter trick to make about 2Hz blinking
 670              		.loc 1 202 0
 671 03cc FFF7FEFF 		bl	blockLockPin_Read
 672              	.LVL145:
 673 03d0 0128     		cmp	r0, #1
 674 03d2 F1D0     		beq	.L21
 675 03d4 1895     		str	r5, [sp, #96]
 676 03d6 1596     		str	r6, [sp, #84]
 677              	.LVL146:
 678              	.L19:
 208:main.c        ****         }
 209:main.c        ****       } else {
 210:main.c        ****    //     sprintf(serialBuffer, "Detected dropped lock (%.3fV). Block Lock TTL is low so I'm relock
 211:main.c        ****    //       LFOutADC_CountsTo_Volts(LFOutputMeas)); 
 212:main.c        ****   //      Serial(serialBuffer);
 213:main.c        ****       }
ARM GAS  C:\Users\THOMPS~1\AppData\Local\Temp\ccbcVIu9.s 			page 17


 214:main.c        ****       
 215:main.c        ****       greenLight_Write(0);
 679              		.loc 1 215 0
 680 03d8 0020     		movs	r0, #0
 681 03da FFF7FEFF 		bl	greenLight_Write
 682              	.LVL147:
 216:main.c        ****       orangeLight_Write(1);
 683              		.loc 1 216 0
 684 03de 0120     		movs	r0, #1
 685 03e0 FFF7FEFF 		bl	orangeLight_Write
 686              	.LVL148:
 217:main.c        ****       lockFails = 0;       // count sweep fails
 218:main.c        ****       debugDropDetected = true;
 687              		.loc 1 218 0
 688 03e4 0123     		movs	r3, #1
 689 03e6 1493     		str	r3, [sp, #80]
 217:main.c        ****       lockFails = 0;       // count sweep fails
 690              		.loc 1 217 0
 691 03e8 0023     		movs	r3, #0
 692 03ea 0A93     		str	r3, [sp, #40]
 693 03ec 2046     		mov	r0, r4
 694 03ee 87E0     		b	.L22
 695              	.LVL149:
 696              	.L28:
 697              	.LBB3:
 219:main.c        ****     }
 220:main.c        ****     
 221:main.c        ****     
 222:main.c        ****     while ((LFOutputMeas < upperLockedLFLevel) || (LFOutputMeas > lowerLockedLFLevel)) {
 223:main.c        ****       switches_Write(1);   // control loop filter with microprocessor
 698              		.loc 1 223 0
 699 03f0 0120     		movs	r0, #1
 700              	.LVL150:
 701 03f2 FFF7FEFF 		bl	switches_Write
 702              	.LVL151:
 224:main.c        ****       //tempTrigger_Write(0); // temporary
 225:main.c        ****       bool sweptPastThresh = false;     // error monitor has crossed threshold once
 226:main.c        ****       bool errorMonitorInRange = false; // error monitor has crossed back into range
 227:main.c        ****       int32 sweepV = upperDACSweepLevel;
 228:main.c        ****       logErrMonCounter = 0;
 229:main.c        ****       
 230:main.c        ****       coarseDAC_SetValue((0xff00 & sweepV) >> 8); // set coarseDAC sweep voltage
 703              		.loc 1 230 0
 704 03f6 0B9C     		ldr	r4, [sp, #44]
 705 03f8 C4F30723 		ubfx	r3, r4, #8, #8
 706 03fc 0C93     		str	r3, [sp, #48]
 707 03fe 1846     		mov	r0, r3
 708 0400 FFF7FEFF 		bl	coarseDAC_SetValue
 709              	.LVL152:
 231:main.c        ****       fineDAC_SetValue(0x00ff & sweepV);          // add in fineDAC voltage with circuitry
 710              		.loc 1 231 0
 711 0404 E3B2     		uxtb	r3, r4
 712 0406 0D93     		str	r3, [sp, #52]
 713 0408 1846     		mov	r0, r3
 714 040a FFF7FEFF 		bl	fineDAC_SetValue
 715              	.LVL153:
 227:main.c        ****       logErrMonCounter = 0;
ARM GAS  C:\Users\THOMPS~1\AppData\Local\Temp\ccbcVIu9.s 			page 18


 716              		.loc 1 227 0
 717 040e A046     		mov	r8, r4
 225:main.c        ****       bool errorMonitorInRange = false; // error monitor has crossed back into range
 718              		.loc 1 225 0
 719 0410 4FF00009 		mov	r9, #0
 228:main.c        ****       
 720              		.loc 1 228 0
 721 0414 CA46     		mov	r10, r9
 722 0416 4D46     		mov	r5, r9
 232:main.c        ****       
 233:main.c        ****       while(!errorMonitorInRange) {
 723              		.loc 1 233 0
 724 0418 3DE0     		b	.L23
 725              	.LVL154:
 726              	.L36:
 727              	.LBB4:
 234:main.c        ****         coarseDAC_SetValue((0xff00 & sweepV) >> 8); // set coarseDAC sweep voltage
 235:main.c        ****         fineDAC_SetValue(0x00ff & sweepV);          // add in fineDAC voltage with circuitry
 236:main.c        ****         
 237:main.c        ****       //  CyDelay(1);
 238:main.c        ****         
 239:main.c        ****         (void)errMonADC_IsEndConversion(errMonADC_WAIT_FOR_RESULT);
 240:main.c        ****         // int16 errorMonitorADC = errMonADC_GetResult16();
 241:main.c        ****         int16 testV1 = errMonADC_GetResult16();
 242:main.c        ****         
 243:main.c        ****         (void)errMonADC_IsEndConversion(errMonADC_WAIT_FOR_RESULT);
 244:main.c        ****         int16 testV2 = errMonADC_GetResult16();
 245:main.c        ****         (void)errMonADC_IsEndConversion(errMonADC_WAIT_FOR_RESULT);
 246:main.c        ****         int16 testV3 = errMonADC_GetResult16();
 247:main.c        ****         (void)errMonADC_IsEndConversion(errMonADC_WAIT_FOR_RESULT);
 248:main.c        ****         int16 testV4 = errMonADC_GetResult16();
 249:main.c        ****         (void)errMonADC_IsEndConversion(errMonADC_WAIT_FOR_RESULT);
 250:main.c        ****         int16 testV5 = errMonADC_GetResult16();
 251:main.c        ****         
 252:main.c        ****         int32 errorMonitorADC = (testV1 + testV2 + testV3 + testV4 + testV5) / 5;
 253:main.c        ****         logErrMon[logErrMonCounter] = errorMonitorADC;
 254:main.c        ****         
 255:main.c        ****        // for current sweep direction, only need to know about threshold 1...
 256:main.c        ****        // if ((errorMonitorADC < errMonThreshold1) || (errorMonitorADC > errMonThreshold2)) {
 257:main.c        ****         if (errorMonitorADC < errMonThreshold1) {
 258:main.c        ****           sweptPastThresh = true; // record if error signal has crossed threshold once
 259:main.c        ****        // } else if (sweptPastThresh && (errorMonitorADC > errMonThreshold1) && (errorMonitorADC < 
 260:main.c        ****         } else if (sweptPastThresh && (errorMonitorADC > errMonThreshold2)) {
 728              		.loc 1 260 0
 729 041a 65B1     		cbz	r5, .L24
 730              		.loc 1 260 0 is_stmt 0 discriminator 1
 731 041c 0E9B     		ldr	r3, [sp, #56]
 732 041e 9842     		cmp	r0, r3
 733 0420 09DD     		ble	.L24
 261:main.c        ****           switches_Write(0); // this is where we actually 'relock'
 734              		.loc 1 261 0 is_stmt 1
 735 0422 0020     		movs	r0, #0
 736              	.LVL155:
 737 0424 FFF7FEFF 		bl	switches_Write
 738              	.LVL156:
 739              	.LBE4:
 262:main.c        ****           sweptPastThresh = false; // record if error signal has crossed threshold once
ARM GAS  C:\Users\THOMPS~1\AppData\Local\Temp\ccbcVIu9.s 			page 19


 263:main.c        ****           // errorMonitorInRange = true; // error signal has entered back into the linear region
 264:main.c        ****           //tempTrigger_Write(1); // temporary
 265:main.c        ****       
 266:main.c        ****        // sweepV=sweepV+100;
 267:main.c        ****       //coarseDAC_SetValue((0xff00 & sweepV) >> 8); // set coarseDAC sweep voltage
 268:main.c        ****       //fineDAC_SetValue(0x00ff & sweepV);          // add in fineDAC voltage with circuitry
 269:main.c        ****        // CyDelayUs(20);  
 270:main.c        ****     
 271:main.c        ****           break; // attempt a relock!
 272:main.c        ****         }
 273:main.c        ****         
 274:main.c        ****         if (sweepV >= lowerDACSweepLevel) { // end of sweep, retry sweep
 275:main.c        ****           
 276:main.c        ****           logErrMonCounter = 0;
 277:main.c        ****           sweepV = upperDACSweepLevel;
 278:main.c        ****           coarseDAC_SetValue((0xff00 & sweepV) >> 8); // set coarseDAC sweep voltage
 279:main.c        ****           fineDAC_SetValue(0x00ff & sweepV);          // add in fineDAC voltage with circuitry
 280:main.c        ****           
 281:main.c        ****           CyDelayUs(10); //Delay ? after each sweep
 282:main.c        ****         
 283:main.c        ****           sweptPastThresh = false;
 284:main.c        ****           lockFails++;
 285:main.c        ****       //  sprintf(serialBuffer, "FAIL."); 
 286:main.c        ****       //  Serial(serialBuffer);
 287:main.c        ****           if (lockFails == MAX_FAILS_BEFORE_LED) {
 288:main.c        ****             redLight_Write(1); // Roxanne, put on the red light
 289:main.c        ****             sprintf(serialBuffer, "Failed to relock %d times (MAX_FAILS_BEFORE_LED).",
 290:main.c        ****               MAX_FAILS_BEFORE_LED); 
 291:main.c        ****             Serial(serialBuffer);
 292:main.c        ****           }
 293:main.c        ****         }
 294:main.c        ****         
 295:main.c        ****        //  CyDelayUs(SWEEP_DELAY_US); // slow down sweep slightly (see plot in manual)
 296:main.c        ****         logErrMonCounter++;
 297:main.c        ****         if (logErrMonCounter > 255) {
 298:main.c        ****           logErrMonCounter = 0;
 299:main.c        ****           sweptPastThresh = false;
 300:main.c        ****         }
 301:main.c        ****         sweepV++; // increase or decrease sweep voltage and try again
 302:main.c        ****         
 303:main.c        ****       }
 304:main.c        ****       
 305:main.c        ****       (void)LFOutADC_IsEndConversion(LFOutADC_WAIT_FOR_RESULT);
 740              		.loc 1 305 0
 741 0428 0020     		movs	r0, #0
 742 042a FFF7FEFF 		bl	LFOutADC_IsEndConversion
 743              	.LVL157:
 306:main.c        ****       LFOutputMeas = LFOutADC_GetResult32(); // re-measure LF output
 744              		.loc 1 306 0
 745 042e FFF7FEFF 		bl	LFOutADC_GetResult32
 746              	.LVL158:
 747 0432 65E0     		b	.L22
 748              	.LVL159:
 749              	.L35:
 750              	.LBB5:
 258:main.c        ****        // } else if (sweptPastThresh && (errorMonitorADC > errMonThreshold1) && (errorMonitorADC < 
 751              		.loc 1 258 0
ARM GAS  C:\Users\THOMPS~1\AppData\Local\Temp\ccbcVIu9.s 			page 20


 752 0434 0125     		movs	r5, #1
 753              	.LVL160:
 754              	.L24:
 274:main.c        ****           
 755              		.loc 1 274 0
 756 0436 099B     		ldr	r3, [sp, #36]
 757 0438 4345     		cmp	r3, r8
 758 043a 21DC     		bgt	.L25
 759              	.LVL161:
 278:main.c        ****           fineDAC_SetValue(0x00ff & sweepV);          // add in fineDAC voltage with circuitry
 760              		.loc 1 278 0
 761 043c 0C98     		ldr	r0, [sp, #48]
 762              	.LVL162:
 763 043e FFF7FEFF 		bl	coarseDAC_SetValue
 764              	.LVL163:
 279:main.c        ****           
 765              		.loc 1 279 0
 766 0442 0D98     		ldr	r0, [sp, #52]
 767 0444 FFF7FEFF 		bl	fineDAC_SetValue
 768              	.LVL164:
 281:main.c        ****         
 769              		.loc 1 281 0
 770 0448 0A20     		movs	r0, #10
 771 044a FFF7FEFF 		bl	CyDelayUs
 772              	.LVL165:
 284:main.c        ****       //  sprintf(serialBuffer, "FAIL."); 
 773              		.loc 1 284 0
 774 044e 0A9B     		ldr	r3, [sp, #40]
 775 0450 0133     		adds	r3, r3, #1
 776 0452 0A93     		str	r3, [sp, #40]
 777              	.LVL166:
 287:main.c        ****             redLight_Write(1); // Roxanne, put on the red light
 778              		.loc 1 287 0
 779 0454 142B     		cmp	r3, #20
 780 0456 0FD1     		bne	.L33
 288:main.c        ****             sprintf(serialBuffer, "Failed to relock %d times (MAX_FAILS_BEFORE_LED).",
 781              		.loc 1 288 0
 782 0458 0120     		movs	r0, #1
 783 045a FFF7FEFF 		bl	redLight_Write
 784              	.LVL167:
 289:main.c        ****               MAX_FAILS_BEFORE_LED); 
 785              		.loc 1 289 0
 786 045e 1422     		movs	r2, #20
 787 0460 3F49     		ldr	r1, .L42+4
 788 0462 1EA8     		add	r0, sp, #120
 789 0464 FFF7FEFF 		bl	sprintf
 790              	.LVL168:
 291:main.c        ****           }
 791              		.loc 1 291 0
 792 0468 1EA8     		add	r0, sp, #120
 793 046a FFF7FEFF 		bl	Serial
 794              	.LVL169:
 277:main.c        ****           coarseDAC_SetValue((0xff00 & sweepV) >> 8); // set coarseDAC sweep voltage
 795              		.loc 1 277 0
 796 046e DDF82C80 		ldr	r8, [sp, #44]
 283:main.c        ****           lockFails++;
 797              		.loc 1 283 0
ARM GAS  C:\Users\THOMPS~1\AppData\Local\Temp\ccbcVIu9.s 			page 21


 798 0472 0025     		movs	r5, #0
 276:main.c        ****           sweepV = upperDACSweepLevel;
 799              		.loc 1 276 0
 800 0474 AA46     		mov	r10, r5
 801 0476 03E0     		b	.L25
 802              	.LVL170:
 803              	.L33:
 277:main.c        ****           coarseDAC_SetValue((0xff00 & sweepV) >> 8); // set coarseDAC sweep voltage
 804              		.loc 1 277 0
 805 0478 DDF82C80 		ldr	r8, [sp, #44]
 283:main.c        ****           lockFails++;
 806              		.loc 1 283 0
 807 047c 0025     		movs	r5, #0
 276:main.c        ****           sweepV = upperDACSweepLevel;
 808              		.loc 1 276 0
 809 047e AA46     		mov	r10, r5
 810              	.LVL171:
 811              	.L25:
 296:main.c        ****         if (logErrMonCounter > 255) {
 812              		.loc 1 296 0
 813 0480 0AF1010A 		add	r10, r10, #1
 814              	.LVL172:
 815 0484 0FFA8AFA 		sxth	r10, r10
 816              	.LVL173:
 297:main.c        ****           logErrMonCounter = 0;
 817              		.loc 1 297 0
 818 0488 BAF1FF0F 		cmp	r10, #255
 819 048c 01DD     		ble	.L26
 299:main.c        ****         }
 820              		.loc 1 299 0
 821 048e 0025     		movs	r5, #0
 822              	.LVL174:
 298:main.c        ****           sweptPastThresh = false;
 823              		.loc 1 298 0
 824 0490 AA46     		mov	r10, r5
 825              	.LVL175:
 826              	.L26:
 301:main.c        ****         
 827              		.loc 1 301 0
 828 0492 08F10108 		add	r8, r8, #1
 829              	.LVL176:
 830              	.L23:
 234:main.c        ****         fineDAC_SetValue(0x00ff & sweepV);          // add in fineDAC voltage with circuitry
 831              		.loc 1 234 0
 832 0496 C8F30720 		ubfx	r0, r8, #8, #8
 833 049a FFF7FEFF 		bl	coarseDAC_SetValue
 834              	.LVL177:
 235:main.c        ****         
 835              		.loc 1 235 0
 836 049e 5FFA88F0 		uxtb	r0, r8
 837 04a2 FFF7FEFF 		bl	fineDAC_SetValue
 838              	.LVL178:
 239:main.c        ****         // int16 errorMonitorADC = errMonADC_GetResult16();
 839              		.loc 1 239 0
 840 04a6 0020     		movs	r0, #0
 841 04a8 FFF7FEFF 		bl	errMonADC_IsEndConversion
 842              	.LVL179:
ARM GAS  C:\Users\THOMPS~1\AppData\Local\Temp\ccbcVIu9.s 			page 22


 241:main.c        ****         
 843              		.loc 1 241 0
 844 04ac FFF7FEFF 		bl	errMonADC_GetResult16
 845              	.LVL180:
 846 04b0 8146     		mov	r9, r0
 847              	.LVL181:
 243:main.c        ****         int16 testV2 = errMonADC_GetResult16();
 848              		.loc 1 243 0
 849 04b2 0020     		movs	r0, #0
 850 04b4 FFF7FEFF 		bl	errMonADC_IsEndConversion
 851              	.LVL182:
 244:main.c        ****         (void)errMonADC_IsEndConversion(errMonADC_WAIT_FOR_RESULT);
 852              		.loc 1 244 0
 853 04b8 FFF7FEFF 		bl	errMonADC_GetResult16
 854              	.LVL183:
 855 04bc 0446     		mov	r4, r0
 856              	.LVL184:
 245:main.c        ****         int16 testV3 = errMonADC_GetResult16();
 857              		.loc 1 245 0
 858 04be 0020     		movs	r0, #0
 859 04c0 FFF7FEFF 		bl	errMonADC_IsEndConversion
 860              	.LVL185:
 246:main.c        ****         (void)errMonADC_IsEndConversion(errMonADC_WAIT_FOR_RESULT);
 861              		.loc 1 246 0
 862 04c4 FFF7FEFF 		bl	errMonADC_GetResult16
 863              	.LVL186:
 864 04c8 0746     		mov	r7, r0
 865              	.LVL187:
 247:main.c        ****         int16 testV4 = errMonADC_GetResult16();
 866              		.loc 1 247 0
 867 04ca 0020     		movs	r0, #0
 868 04cc FFF7FEFF 		bl	errMonADC_IsEndConversion
 869              	.LVL188:
 248:main.c        ****         (void)errMonADC_IsEndConversion(errMonADC_WAIT_FOR_RESULT);
 870              		.loc 1 248 0
 871 04d0 FFF7FEFF 		bl	errMonADC_GetResult16
 872              	.LVL189:
 873 04d4 0646     		mov	r6, r0
 874              	.LVL190:
 249:main.c        ****         int16 testV5 = errMonADC_GetResult16();
 875              		.loc 1 249 0
 876 04d6 0020     		movs	r0, #0
 877 04d8 FFF7FEFF 		bl	errMonADC_IsEndConversion
 878              	.LVL191:
 250:main.c        ****         
 879              		.loc 1 250 0
 880 04dc FFF7FEFF 		bl	errMonADC_GetResult16
 881              	.LVL192:
 252:main.c        ****         logErrMon[logErrMonCounter] = errorMonitorADC;
 882              		.loc 1 252 0
 883 04e0 4C44     		add	r4, r4, r9
 884              	.LVL193:
 885 04e2 2744     		add	r7, r7, r4
 886              	.LVL194:
 887 04e4 3E44     		add	r6, r6, r7
 888              	.LVL195:
 889 04e6 0644     		add	r6, r6, r0
ARM GAS  C:\Users\THOMPS~1\AppData\Local\Temp\ccbcVIu9.s 			page 23


 890 04e8 1E48     		ldr	r0, .L42+8
 891              	.LVL196:
 892 04ea 80FB0630 		smull	r3, r0, r0, r6
 893 04ee F617     		asrs	r6, r6, #31
 894 04f0 C6EB6000 		rsb	r0, r6, r0, asr #1
 895              	.LVL197:
 253:main.c        ****         
 896              		.loc 1 253 0
 897 04f4 5EAB     		add	r3, sp, #376
 898 04f6 23F81A00 		strh	r0, [r3, r10, lsl #1]	@ movhi
 257:main.c        ****           sweptPastThresh = true; // record if error signal has crossed threshold once
 899              		.loc 1 257 0
 900 04fa 5845     		cmp	r0, fp
 901 04fc 9ADB     		blt	.L35
 902 04fe 8CE7     		b	.L36
 903              	.LVL198:
 904              	.L38:
 905              	.L22:
 906              	.LBE5:
 907              	.LBE3:
 222:main.c        ****       switches_Write(1);   // control loop filter with microprocessor
 908              		.loc 1 222 0
 909 0500 0F9B     		ldr	r3, [sp, #60]
 910 0502 8342     		cmp	r3, r0
 911 0504 3FF774AF 		bgt	.L28
 222:main.c        ****       switches_Write(1);   // control loop filter with microprocessor
 912              		.loc 1 222 0 is_stmt 0 discriminator 1
 913 0508 119B     		ldr	r3, [sp, #68]
 914 050a 8342     		cmp	r3, r0
 915 050c FFF670AF 		blt	.L28
 307:main.c        ****       // sprintf(serialBuffer, "Broke free! %ld=%0.3f is in range of [%ld, %ld]?", LFOutputMeas,
 308:main.c        ****       //  LFOutADC_CountsTo_Volts(LFOutputMeas), lowerLockedLFLevel, upperLockedLFLevel); 
 309:main.c        ****       // Serial(serialBuffer);
 310:main.c        ****     }
 311:main.c        ****   
 312:main.c        ****     if (debugDropDetected) {
 916              		.loc 1 312 0 is_stmt 1
 917 0510 149B     		ldr	r3, [sp, #80]
 918 0512 002B     		cmp	r3, #0
 919 0514 3FF421AE 		beq	.L5
 920              	.LVL199:
 313:main.c        ****       // Loop filter has returned to central region; switch back into conventional mode now
 314:main.c        ****       debugDropDetected = false;
 315:main.c        ****       sprintf(serialBuffer, "Relock #%d successful! LF Output at %0.3f V.", lockFails, LFOutADC_Cou
 921              		.loc 1 315 0
 922 0518 FFF7FEFF 		bl	LFOutADC_CountsTo_Volts
 923              	.LVL200:
 924 051c FFF7FEFF 		bl	__aeabi_f2d
 925              	.LVL201:
 926 0520 CDE90001 		strd	r0, [sp]
 927 0524 0A9A     		ldr	r2, [sp, #40]
 928 0526 1049     		ldr	r1, .L42+12
 929 0528 1EA8     		add	r0, sp, #120
 930 052a FFF7FEFF 		bl	sprintf
 931              	.LVL202:
 316:main.c        ****       Serial(serialBuffer);
 932              		.loc 1 316 0
ARM GAS  C:\Users\THOMPS~1\AppData\Local\Temp\ccbcVIu9.s 			page 24


 933 052e 1EA8     		add	r0, sp, #120
 934 0530 FFF7FEFF 		bl	Serial
 935              	.LVL203:
 317:main.c        ****       if (boolLogErrMon) {
 318:main.c        ****         SendDataArray(logErrMon, sizeof(logErrMon) / sizeof(logErrMon[0]), logErrMonCounter, errMon
 936              		.loc 1 318 0
 937 0534 0E9B     		ldr	r3, [sp, #56]
 938 0536 0093     		str	r3, [sp]
 939 0538 5B46     		mov	r3, fp
 940 053a 5246     		mov	r2, r10
 941 053c FF21     		movs	r1, #255
 942 053e 5EA8     		add	r0, sp, #376
 943 0540 FFF7FEFF 		bl	SendDataArray
 944              	.LVL204:
 319:main.c        ****       }
 320:main.c        ****       greenLight_Write(1);
 945              		.loc 1 320 0
 946 0544 0120     		movs	r0, #1
 947 0546 FFF7FEFF 		bl	greenLight_Write
 948              	.LVL205:
 321:main.c        ****       orangeLight_Write(0);
 949              		.loc 1 321 0
 950 054a 0020     		movs	r0, #0
 951 054c FFF7FEFF 		bl	orangeLight_Write
 952              	.LVL206:
 322:main.c        ****       redLight_Write(0);
 953              		.loc 1 322 0
 954 0550 0020     		movs	r0, #0
 955 0552 FFF7FEFF 		bl	redLight_Write
 956              	.LVL207:
 314:main.c        ****       sprintf(serialBuffer, "Relock #%d successful! LF Output at %0.3f V.", lockFails, LFOutADC_Cou
 957              		.loc 1 314 0
 958 0556 0023     		movs	r3, #0
 959 0558 1493     		str	r3, [sp, #80]
 960 055a FEE5     		b	.L5
 961              	.L43:
 962              		.align	2
 963              	.L42:
 964 055c DF930400 		.word	299999
 965 0560 4C020000 		.word	.LC13
 966 0564 67666666 		.word	1717986919
 967 0568 80020000 		.word	.LC14
 968              		.cfi_endproc
 969              	.LFE64:
 970              		.size	main, .-main
 971              		.section	.rodata.str1.4,"aMS",%progbits,1
 972              		.align	2
 973              	.LC0:
 974 0000 534B594E 		.ascii	"SKYNET: Triggered Relocker v1.0. I am awake!\000"
 974      45543A20 
 974      54726967 
 974      67657265 
 974      64205265 
 975 002d 000000   		.space	3
 976              	.LC1:
 977 0030 4A756E20 		.ascii	"Jun  5 2020\000"
 977      20352032 
ARM GAS  C:\Users\THOMPS~1\AppData\Local\Temp\ccbcVIu9.s 			page 25


 977      30323000 
 978              	.LC2:
 979 003c 31353A33 		.ascii	"15:32:05\000"
 979      323A3035 
 979      00
 980 0045 000000   		.space	3
 981              	.LC3:
 982 0048 436F6D70 		.ascii	"Compiled at %s on %s.\000"
 982      696C6564 
 982      20617420 
 982      2573206F 
 982      6E202573 
 983 005e 0000     		.space	2
 984              	.LC4:
 985 0060 41776169 		.ascii	"Awaiting calibration. Set Switch 4 to 'Choose'.\000"
 985      74696E67 
 985      2063616C 
 985      69627261 
 985      74696F6E 
 986              	.LC5:
 987 0090 42656769 		.ascii	"Beginning main sequence (calibrating, then attempti"
 987      6E6E696E 
 987      67206D61 
 987      696E2073 
 987      65717565 
 988 00c3 6E672074 		.ascii	"ng to relock).\000"
 988      6F207265 
 988      6C6F636B 
 988      292E00
 989 00d2 0000     		.space	2
 990              	.LC6:
 991 00d4 53776974 		.ascii	"Switch to Lock to engage relocker or sample the err"
 991      63682074 
 991      6F204C6F 
 991      636B2074 
 991      6F20656E 
 992 0107 6F722073 		.ascii	"or signal range.\000"
 992      69676E61 
 992      6C207261 
 992      6E67652E 
 992      00
 993              	.LC7:
 994 0118 4E6F7720 		.ascii	"Now sampling out-of-lock maximum error signal volta"
 994      73616D70 
 994      6C696E67 
 994      206F7574 
 994      2D6F662D 
 995 014b 67652E00 		.ascii	"ge.\000"
 996 014f 00       		.space	1
 997              	.LC8:
 998 0150 53616D70 		.ascii	"Sampling average in-lock LF output.\000"
 998      6C696E67 
 998      20617665 
 998      72616765 
 998      20696E2D 
 999              	.LC9:
 1000 0174 43616C69 		.ascii	"Calibration complete.\000"
ARM GAS  C:\Users\THOMPS~1\AppData\Local\Temp\ccbcVIu9.s 			page 26


 1000      62726174 
 1000      696F6E20 
 1000      636F6D70 
 1000      6C657465 
 1001 018a 0000     		.space	2
 1002              	.LC10:
 1003 018c 2D2D3E20 		.ascii	"--> LF avg: %.3fV, sets bounds at [%ld, %ld]=[%.3fV"
 1003      4C462061 
 1003      76673A20 
 1003      252E3366 
 1003      562C2073 
 1004 01bf 2C20252E 		.ascii	", %.3fV]\000"
 1004      3366565D 
 1004      00
 1005              	.LC11:
 1006 01c8 2D2D3E20 		.ascii	"--> DAC sweep range: [%ld, %ld]=[lownum, highnum]=["
 1006      44414320 
 1006      73776565 
 1006      70207261 
 1006      6E67653A 
 1007 01fb 252E3366 		.ascii	"%.3fV, %.3fV]\000"
 1007      562C2025 
 1007      2E336656 
 1007      5D00
 1008 0209 000000   		.space	3
 1009              	.LC12:
 1010 020c 2D2D3E20 		.ascii	"--> Err monitor: [%d, %d]=[%.3fV, %.3fV]; threshold"
 1010      45727220 
 1010      6D6F6E69 
 1010      746F723A 
 1010      205B2564 
 1011 023f 20252E33 		.ascii	" %.3f %.3f\000"
 1011      6620252E 
 1011      336600
 1012 024a 0000     		.space	2
 1013              	.LC13:
 1014 024c 4661696C 		.ascii	"Failed to relock %d times (MAX_FAILS_BEFORE_LED).\000"
 1014      65642074 
 1014      6F207265 
 1014      6C6F636B 
 1014      20256420 
 1015 027e 0000     		.space	2
 1016              	.LC14:
 1017 0280 52656C6F 		.ascii	"Relock #%d successful! LF Output at %0.3f V.\000"
 1017      636B2023 
 1017      25642073 
 1017      75636365 
 1017      73736675 
 1018              		.text
 1019              	.Letext0:
 1020              		.file 2 "c:\\program files (x86)\\cypress\\psoc creator\\4.2\\psoc creator\\import\\gnu\\arm\\5.4.
 1021              		.file 3 "c:\\program files (x86)\\cypress\\psoc creator\\4.2\\psoc creator\\import\\gnu\\arm\\5.4.
 1022              		.file 4 "Generated_Source\\PSoC5/cytypes.h"
 1023              		.file 5 "Generated_Source\\PSoC5/errMonADC.h"
 1024              		.file 6 "utility.h"
 1025              		.file 7 "c:\\program files (x86)\\cypress\\psoc creator\\4.2\\psoc creator\\import\\gnu\\arm\\5.4.
 1026              		.file 8 "Generated_Source\\PSoC5/switches.h"
ARM GAS  C:\Users\THOMPS~1\AppData\Local\Temp\ccbcVIu9.s 			page 27


 1027              		.file 9 "Generated_Source\\PSoC5/coarseDAC.h"
 1028              		.file 10 "Generated_Source\\PSoC5/fineDAC.h"
 1029              		.file 11 "Generated_Source\\PSoC5/CyLib.h"
 1030              		.file 12 "Generated_Source\\PSoC5/redLight.h"
 1031              		.file 13 "Generated_Source\\PSoC5/LFOutADC.h"
 1032              		.file 14 "Generated_Source\\PSoC5/greenLight.h"
 1033              		.file 15 "Generated_Source\\PSoC5/yellowLight.h"
 1034              		.file 16 "Generated_Source\\PSoC5/orangeLight.h"
 1035              		.file 17 "Generated_Source\\PSoC5/SW_Tx_UART_1.h"
 1036              		.file 18 "Generated_Source\\PSoC5/calibratePin.h"
 1037              		.file 19 "Generated_Source\\PSoC5/sampleErrorMonitor.h"
 1038              		.file 20 "Generated_Source\\PSoC5/blockLockPin.h"
 1039              		.file 21 "Generated_Source\\PSoC5/core_cm3.h"