ARM GAS  C:\Users\THOMPS~1\AppData\Local\Temp\ccc1BpcM.s 			page 1


   1              		.syntax unified
   2              		.cpu cortex-m3
   3              		.fpu softvfp
   4              		.eabi_attribute 20, 1
   5              		.eabi_attribute 21, 1
   6              		.eabi_attribute 23, 3
   7              		.eabi_attribute 24, 1
   8              		.eabi_attribute 25, 1
   9              		.eabi_attribute 26, 1
  10              		.eabi_attribute 30, 1
  11              		.eabi_attribute 34, 1
  12              		.eabi_attribute 18, 4
  13              		.thumb
  14              		.syntax unified
  15              		.file	"utility.c"
  16              		.text
  17              	.Ltext0:
  18              		.cfi_sections	.debug_frame
  19              		.section	.text.Serial,"ax",%progbits
  20              		.align	2
  21              		.global	Serial
  22              		.thumb
  23              		.thumb_func
  24              		.type	Serial, %function
  25              	Serial:
  26              	.LFB64:
  27              		.file 1 "utility\\utility.c"
   1:utility/utility.c **** #include "project.h"
   2:utility/utility.c **** #include "cytypes.h"
   3:utility/utility.c **** #include <stdbool.h>
   4:utility/utility.c **** #include <stdio.h>
   5:utility/utility.c **** 
   6:utility/utility.c **** // Send a message through serial communication, always ending in a CRLF character termination.
   7:utility/utility.c **** void Serial(const char8 string[]) {
  28              		.loc 1 7 0
  29              		.cfi_startproc
  30              		@ args = 0, pretend = 0, frame = 0
  31              		@ frame_needed = 0, uses_anonymous_args = 0
  32              	.LVL0:
  33 0000 08B5     		push	{r3, lr}
  34              		.cfi_def_cfa_offset 8
  35              		.cfi_offset 3, -8
  36              		.cfi_offset 14, -4
   8:utility/utility.c ****   SW_Tx_UART_1_PutString(string);
  37              		.loc 1 8 0
  38 0002 FFF7FEFF 		bl	SW_Tx_UART_1_PutString
  39              	.LVL1:
   9:utility/utility.c ****   SW_Tx_UART_1_PutCRLF();
  40              		.loc 1 9 0
  41 0006 FFF7FEFF 		bl	SW_Tx_UART_1_PutCRLF
  42              	.LVL2:
  43 000a 08BD     		pop	{r3, pc}
  44              		.cfi_endproc
  45              	.LFE64:
  46              		.size	Serial, .-Serial
  47              		.section	.text.SendDataArray,"ax",%progbits
  48              		.align	2
ARM GAS  C:\Users\THOMPS~1\AppData\Local\Temp\ccc1BpcM.s 			page 2


  49              		.global	SendDataArray
  50              		.thumb
  51              		.thumb_func
  52              		.type	SendDataArray, %function
  53              	SendDataArray:
  54              	.LFB65:
  10:utility/utility.c **** }
  11:utility/utility.c **** 
  12:utility/utility.c **** // Send a message through serial communication, always ending in a CRLF character termination.
  13:utility/utility.c **** void SendDataArray(int16 data[], int arrayLength, int lastSet, int thresh1, int thresh2) {
  55              		.loc 1 13 0
  56              		.cfi_startproc
  57              		@ args = 4, pretend = 0, frame = 256
  58              		@ frame_needed = 0, uses_anonymous_args = 0
  59              	.LVL3:
  60 0000 70B5     		push	{r4, r5, r6, lr}
  61              		.cfi_def_cfa_offset 16
  62              		.cfi_offset 4, -16
  63              		.cfi_offset 5, -12
  64              		.cfi_offset 6, -8
  65              		.cfi_offset 14, -4
  66 0002 C2B0     		sub	sp, sp, #264
  67              		.cfi_def_cfa_offset 280
  68 0004 0646     		mov	r6, r0
  69 0006 0D46     		mov	r5, r1
  14:utility/utility.c ****   char8 serialBuffer[255]; // allocate space for serial message
  15:utility/utility.c ****   sprintf(serialBuffer, "data[%d,%d,%d]:", lastSet, thresh1, thresh2); 
  70              		.loc 1 15 0
  71 0008 4699     		ldr	r1, [sp, #280]
  72              	.LVL4:
  73 000a 0091     		str	r1, [sp]
  74 000c 0949     		ldr	r1, .L7
  75 000e 02A8     		add	r0, sp, #8
  76              	.LVL5:
  77 0010 FFF7FEFF 		bl	sprintf
  78              	.LVL6:
  16:utility/utility.c ****   SW_Tx_UART_1_PutString(serialBuffer);
  79              		.loc 1 16 0
  80 0014 02A8     		add	r0, sp, #8
  81 0016 FFF7FEFF 		bl	SW_Tx_UART_1_PutString
  82              	.LVL7:
  83              	.LBB2:
  17:utility/utility.c ****   for(int ii = 0; ii < arrayLength; ii++) {
  84              		.loc 1 17 0
  85 001a 0024     		movs	r4, #0
  86 001c 04E0     		b	.L4
  87              	.LVL8:
  88              	.L5:
  18:utility/utility.c ****     SW_Tx_UART_1_PutHexInt(data[ii]);
  89              		.loc 1 18 0 discriminator 3
  90 001e 36F81400 		ldrh	r0, [r6, r4, lsl #1]
  91 0022 FFF7FEFF 		bl	SW_Tx_UART_1_PutHexInt
  92              	.LVL9:
  17:utility/utility.c ****   for(int ii = 0; ii < arrayLength; ii++) {
  93              		.loc 1 17 0 discriminator 3
  94 0026 0134     		adds	r4, r4, #1
  95              	.LVL10:
ARM GAS  C:\Users\THOMPS~1\AppData\Local\Temp\ccc1BpcM.s 			page 3


  96              	.L4:
  17:utility/utility.c ****   for(int ii = 0; ii < arrayLength; ii++) {
  97              		.loc 1 17 0 is_stmt 0 discriminator 1
  98 0028 AC42     		cmp	r4, r5
  99 002a F8DB     		blt	.L5
 100              	.LBE2:
  19:utility/utility.c ****   }
  20:utility/utility.c ****   SW_Tx_UART_1_PutCRLF();
 101              		.loc 1 20 0 is_stmt 1
 102 002c FFF7FEFF 		bl	SW_Tx_UART_1_PutCRLF
 103              	.LVL11:
  21:utility/utility.c **** }
 104              		.loc 1 21 0
 105 0030 42B0     		add	sp, sp, #264
 106              		.cfi_def_cfa_offset 16
 107              		@ sp needed
 108 0032 70BD     		pop	{r4, r5, r6, pc}
 109              	.LVL12:
 110              	.L8:
 111              		.align	2
 112              	.L7:
 113 0034 00000000 		.word	.LC0
 114              		.cfi_endproc
 115              	.LFE65:
 116              		.size	SendDataArray, .-SendDataArray
 117              		.global	__aeabi_i2f
 118              		.global	__aeabi_fmul
 119              		.global	__aeabi_fadd
 120              		.global	__aeabi_f2iz
 121              		.section	.text.LFOutADC_VoltsTo_Counts,"ax",%progbits
 122              		.align	2
 123              		.global	LFOutADC_VoltsTo_Counts
 124              		.thumb
 125              		.thumb_func
 126              		.type	LFOutADC_VoltsTo_Counts, %function
 127              	LFOutADC_VoltsTo_Counts:
 128              	.LFB66:
  22:utility/utility.c **** 
  23:utility/utility.c **** int32 LFOutADC_VoltsTo_Counts(float volts) {
 129              		.loc 1 23 0
 130              		.cfi_startproc
 131              		@ args = 0, pretend = 0, frame = 0
 132              		@ frame_needed = 0, uses_anonymous_args = 0
 133              	.LVL13:
 134 0000 10B5     		push	{r4, lr}
 135              		.cfi_def_cfa_offset 8
 136              		.cfi_offset 4, -8
 137              		.cfi_offset 14, -4
 138 0002 0446     		mov	r4, r0
  24:utility/utility.c ****  return ((int32) (volts * LFOutADC_CountsPerVolt + LFOutADC_Offset));
 139              		.loc 1 24 0
 140 0004 084B     		ldr	r3, .L11
 141 0006 1868     		ldr	r0, [r3]
 142              	.LVL14:
 143 0008 FFF7FEFF 		bl	__aeabi_i2f
 144              	.LVL15:
 145 000c 2146     		mov	r1, r4
ARM GAS  C:\Users\THOMPS~1\AppData\Local\Temp\ccc1BpcM.s 			page 4


 146 000e FFF7FEFF 		bl	__aeabi_fmul
 147              	.LVL16:
 148 0012 0446     		mov	r4, r0
 149              	.LVL17:
 150 0014 054B     		ldr	r3, .L11+4
 151 0016 1868     		ldr	r0, [r3]
 152 0018 FFF7FEFF 		bl	__aeabi_i2f
 153              	.LVL18:
 154 001c 2146     		mov	r1, r4
 155 001e FFF7FEFF 		bl	__aeabi_fadd
 156              	.LVL19:
 157 0022 FFF7FEFF 		bl	__aeabi_f2iz
 158              	.LVL20:
  25:utility/utility.c **** }
 159              		.loc 1 25 0
 160 0026 10BD     		pop	{r4, pc}
 161              	.L12:
 162              		.align	2
 163              	.L11:
 164 0028 00000000 		.word	LFOutADC_CountsPerVolt
 165 002c 00000000 		.word	LFOutADC_Offset
 166              		.cfi_endproc
 167              	.LFE66:
 168              		.size	LFOutADC_VoltsTo_Counts, .-LFOutADC_VoltsTo_Counts
 169              		.section	.text.errMonADC_VoltsTo_Counts,"ax",%progbits
 170              		.align	2
 171              		.global	errMonADC_VoltsTo_Counts
 172              		.thumb
 173              		.thumb_func
 174              		.type	errMonADC_VoltsTo_Counts, %function
 175              	errMonADC_VoltsTo_Counts:
 176              	.LFB67:
  26:utility/utility.c **** int16 errMonADC_VoltsTo_Counts(float volts) {
 177              		.loc 1 26 0
 178              		.cfi_startproc
 179              		@ args = 0, pretend = 0, frame = 0
 180              		@ frame_needed = 0, uses_anonymous_args = 0
 181              	.LVL21:
 182 0000 10B5     		push	{r4, lr}
 183              		.cfi_def_cfa_offset 8
 184              		.cfi_offset 4, -8
 185              		.cfi_offset 14, -4
 186 0002 0446     		mov	r4, r0
  27:utility/utility.c ****  return ((int16) (volts * errMonADC_countsPerVolt + errMonADC_offset));
 187              		.loc 1 27 0
 188 0004 0A4B     		ldr	r3, .L15
 189 0006 1888     		ldrh	r0, [r3]
 190              	.LVL22:
 191 0008 00B2     		sxth	r0, r0
 192 000a FFF7FEFF 		bl	__aeabi_i2f
 193              	.LVL23:
 194 000e 2146     		mov	r1, r4
 195 0010 FFF7FEFF 		bl	__aeabi_fmul
 196              	.LVL24:
 197 0014 0446     		mov	r4, r0
 198              	.LVL25:
 199 0016 074B     		ldr	r3, .L15+4
ARM GAS  C:\Users\THOMPS~1\AppData\Local\Temp\ccc1BpcM.s 			page 5


 200 0018 1888     		ldrh	r0, [r3]
 201 001a 00B2     		sxth	r0, r0
 202 001c FFF7FEFF 		bl	__aeabi_i2f
 203              	.LVL26:
 204 0020 2146     		mov	r1, r4
 205 0022 FFF7FEFF 		bl	__aeabi_fadd
 206              	.LVL27:
 207 0026 FFF7FEFF 		bl	__aeabi_f2iz
 208              	.LVL28:
  28:utility/utility.c **** }
 209              		.loc 1 28 0
 210 002a 00B2     		sxth	r0, r0
 211 002c 10BD     		pop	{r4, pc}
 212              	.L16:
 213 002e 00BF     		.align	2
 214              	.L15:
 215 0030 00000000 		.word	errMonADC_countsPerVolt
 216 0034 00000000 		.word	errMonADC_offset
 217              		.cfi_endproc
 218              	.LFE67:
 219              		.size	errMonADC_VoltsTo_Counts, .-errMonADC_VoltsTo_Counts
 220              		.global	__aeabi_f2d
 221              		.global	__aeabi_ddiv
 222              		.global	__aeabi_dmul
 223              		.global	__aeabi_i2d
 224              		.global	__aeabi_dsub
 225              		.global	__aeabi_d2iz
 226              		.section	.text.DAC_VoltsTo_Counts,"ax",%progbits
 227              		.align	2
 228              		.global	DAC_VoltsTo_Counts
 229              		.thumb
 230              		.thumb_func
 231              		.type	DAC_VoltsTo_Counts, %function
 232              	DAC_VoltsTo_Counts:
 233              	.LFB68:
  29:utility/utility.c **** int32 DAC_VoltsTo_Counts(float volts, float DACRange, int DACOffset) {
 234              		.loc 1 29 0
 235              		.cfi_startproc
 236              		@ args = 0, pretend = 0, frame = 0
 237              		@ frame_needed = 0, uses_anonymous_args = 0
 238              	.LVL29:
 239 0000 F8B5     		push	{r3, r4, r5, r6, r7, lr}
 240              		.cfi_def_cfa_offset 24
 241              		.cfi_offset 3, -24
 242              		.cfi_offset 4, -20
 243              		.cfi_offset 5, -16
 244              		.cfi_offset 6, -12
 245              		.cfi_offset 7, -8
 246              		.cfi_offset 14, -4
 247 0002 0746     		mov	r7, r0
  30:utility/utility.c ****  return ((int32) (32768 - DACOffset - volts * (65535.0/DACRange)));
 248              		.loc 1 30 0
 249 0004 C2F50046 		rsb	r6, r2, #32768
 250 0008 0846     		mov	r0, r1
 251              	.LVL30:
 252 000a FFF7FEFF 		bl	__aeabi_f2d
 253              	.LVL31:
ARM GAS  C:\Users\THOMPS~1\AppData\Local\Temp\ccc1BpcM.s 			page 6


 254 000e 0246     		mov	r2, r0
 255 0010 0B46     		mov	r3, r1
 256 0012 0DA1     		adr	r1, .L19
 257 0014 D1E90001 		ldrd	r0, [r1]
 258 0018 FFF7FEFF 		bl	__aeabi_ddiv
 259              	.LVL32:
 260 001c 0446     		mov	r4, r0
 261 001e 0D46     		mov	r5, r1
 262 0020 3846     		mov	r0, r7
 263 0022 FFF7FEFF 		bl	__aeabi_f2d
 264              	.LVL33:
 265 0026 2246     		mov	r2, r4
 266 0028 2B46     		mov	r3, r5
 267 002a FFF7FEFF 		bl	__aeabi_dmul
 268              	.LVL34:
 269 002e 0446     		mov	r4, r0
 270 0030 0D46     		mov	r5, r1
 271 0032 3046     		mov	r0, r6
 272 0034 FFF7FEFF 		bl	__aeabi_i2d
 273              	.LVL35:
 274 0038 2246     		mov	r2, r4
 275 003a 2B46     		mov	r3, r5
 276 003c FFF7FEFF 		bl	__aeabi_dsub
 277              	.LVL36:
 278 0040 FFF7FEFF 		bl	__aeabi_d2iz
 279              	.LVL37:
  31:utility/utility.c **** }
 280              		.loc 1 31 0
 281 0044 F8BD     		pop	{r3, r4, r5, r6, r7, pc}
 282              	.LVL38:
 283              	.L20:
 284 0046 00BF     		.align	3
 285              	.L19:
 286 0048 00000000 		.word	0
 287 004c E0FFEF40 		.word	1089470432
 288              		.cfi_endproc
 289              	.LFE68:
 290              		.size	DAC_VoltsTo_Counts, .-DAC_VoltsTo_Counts
 291              		.section	.text.setupFreeSoc,"ax",%progbits
 292              		.align	2
 293              		.global	setupFreeSoc
 294              		.thumb
 295              		.thumb_func
 296              		.type	setupFreeSoc, %function
 297              	setupFreeSoc:
 298              	.LFB69:
  32:utility/utility.c **** 
  33:utility/utility.c **** void setupFreeSoc(bool TEST_VOLTAGE_MODE, int *LFRange, int *DAC150mVLevel, int *DACOffset,
  34:utility/utility.c ****   float *DACRange) {
 299              		.loc 1 34 0
 300              		.cfi_startproc
 301              		@ args = 4, pretend = 0, frame = 272
 302              		@ frame_needed = 0, uses_anonymous_args = 0
 303              	.LVL39:
 304 0000 2DE9F04F 		push	{r4, r5, r6, r7, r8, r9, r10, fp, lr}
 305              		.cfi_def_cfa_offset 36
 306              		.cfi_offset 4, -36
ARM GAS  C:\Users\THOMPS~1\AppData\Local\Temp\ccc1BpcM.s 			page 7


 307              		.cfi_offset 5, -32
 308              		.cfi_offset 6, -28
 309              		.cfi_offset 7, -24
 310              		.cfi_offset 8, -20
 311              		.cfi_offset 9, -16
 312              		.cfi_offset 10, -12
 313              		.cfi_offset 11, -8
 314              		.cfi_offset 14, -4
 315 0004 CBB0     		sub	sp, sp, #300
 316              		.cfi_def_cfa_offset 336
 317 0006 8346     		mov	fp, r0
 318 0008 8A46     		mov	r10, r1
 319 000a 9146     		mov	r9, r2
 320 000c 1E46     		mov	r6, r3
 321 000e 549D     		ldr	r5, [sp, #336]
 322              	.LVL40:
  35:utility/utility.c ****   char8 serialBuffer[255];       // allocate space for serial messages
  36:utility/utility.c ****   int blinkLED = 1;
  37:utility/utility.c ****   
  38:utility/utility.c ****   errMonADC_SetGain(-3832);
 323              		.loc 1 38 0
 324 0010 7B48     		ldr	r0, .L37
 325              	.LVL41:
 326 0012 FFF7FEFF 		bl	errMonADC_SetGain
 327              	.LVL42:
  39:utility/utility.c ****   errMonADC_SetOffset(2032); // calibrated 10/19/2018
 328              		.loc 1 39 0
 329 0016 4FF4FE60 		mov	r0, #2032
 330 001a FFF7FEFF 		bl	errMonADC_SetOffset
 331              	.LVL43:
  36:utility/utility.c ****   
 332              		.loc 1 36 0
 333 001e 0124     		movs	r4, #1
 334              	.LVL44:
 335              	.L34:
 336              	.LBB3:
  40:utility/utility.c ****   while(true) {
  41:utility/utility.c ****     int LFsettings = 0;
  42:utility/utility.c ****     if (setting28V_Read() == 1) { // find selected loop-filter model AND set scales
 337              		.loc 1 42 0
 338 0020 FFF7FEFF 		bl	setting28V_Read
 339              	.LVL45:
 340 0024 0128     		cmp	r0, #1
 341 0026 17D1     		bne	.L35
  43:utility/utility.c ****       *LFRange = 28;
 342              		.loc 1 43 0
 343 0028 1C23     		movs	r3, #28
 344 002a CAF80030 		str	r3, [r10]
  44:utility/utility.c ****       LFOutADC_SetOffset(28428);
 345              		.loc 1 44 0
 346 002e 46F60C70 		movw	r0, #28428
 347 0032 FFF7FEFF 		bl	LFOutADC_SetOffset
 348              	.LVL46:
  45:utility/utility.c ****       LFOutADC_SetGain(-1942);
 349              		.loc 1 45 0
 350 0036 7348     		ldr	r0, .L37+4
 351 0038 FFF7FEFF 		bl	LFOutADC_SetGain
ARM GAS  C:\Users\THOMPS~1\AppData\Local\Temp\ccc1BpcM.s 			page 8


 352              	.LVL47:
  46:utility/utility.c ****       *DAC150mVLevel = 351;
 353              		.loc 1 46 0
 354 003c 40F25F13 		movw	r3, #351
 355 0040 C9F80030 		str	r3, [r9]
  47:utility/utility.c ****       *DACOffset = 595;
 356              		.loc 1 47 0
 357 0044 40F25323 		movw	r3, #595
 358 0048 3360     		str	r3, [r6]
  48:utility/utility.c ****       *DACRange = 28.2532;
 359              		.loc 1 48 0
 360 004a 6F4B     		ldr	r3, .L37+8
 361 004c 2B60     		str	r3, [r5]	@ float
  49:utility/utility.c ****       Serial("Running in '28V Loop Filter' mode.");
 362              		.loc 1 49 0
 363 004e 6F48     		ldr	r0, .L37+12
 364 0050 FFF7FEFF 		bl	Serial
 365              	.LVL48:
  50:utility/utility.c ****       LFsettings++;
 366              		.loc 1 50 0
 367 0054 0127     		movs	r7, #1
 368 0056 00E0     		b	.L22
 369              	.LVL49:
 370              	.L35:
  41:utility/utility.c ****     if (setting28V_Read() == 1) { // find selected loop-filter model AND set scales
 371              		.loc 1 41 0
 372 0058 0027     		movs	r7, #0
 373              	.LVL50:
 374              	.L22:
  51:utility/utility.c ****     } if (setting22V_Read() == 1) {
 375              		.loc 1 51 0
 376 005a FFF7FEFF 		bl	setting22V_Read
 377              	.LVL51:
 378 005e 0128     		cmp	r0, #1
 379 0060 16D1     		bne	.L23
  52:utility/utility.c ****       *LFRange = 22;
 380              		.loc 1 52 0
 381 0062 1623     		movs	r3, #22
 382 0064 CAF80030 		str	r3, [r10]
  53:utility/utility.c ****       LFOutADC_SetOffset(27048);
 383              		.loc 1 53 0
 384 0068 46F6A810 		movw	r0, #27048
 385 006c FFF7FEFF 		bl	LFOutADC_SetOffset
 386              	.LVL52:
  54:utility/utility.c ****       LFOutADC_SetGain(-2390);
 387              		.loc 1 54 0
 388 0070 6748     		ldr	r0, .L37+16
 389 0072 FFF7FEFF 		bl	LFOutADC_SetGain
 390              	.LVL53:
  55:utility/utility.c ****       *DAC150mVLevel = 447;
 391              		.loc 1 55 0
 392 0076 40F2BF13 		movw	r3, #447
 393 007a C9F80030 		str	r3, [r9]
  56:utility/utility.c ****       *DACOffset = 1100;
 394              		.loc 1 56 0
 395 007e 40F24C43 		movw	r3, #1100
 396 0082 3360     		str	r3, [r6]
ARM GAS  C:\Users\THOMPS~1\AppData\Local\Temp\ccc1BpcM.s 			page 9


  57:utility/utility.c ****       *DACRange = 20.6672;
 397              		.loc 1 57 0
 398 0084 634B     		ldr	r3, .L37+20
 399 0086 2B60     		str	r3, [r5]	@ float
  58:utility/utility.c ****       Serial("Running in '22V Loop Filter' mode.");
 400              		.loc 1 58 0
 401 0088 6348     		ldr	r0, .L37+24
 402 008a FFF7FEFF 		bl	Serial
 403              	.LVL54:
  59:utility/utility.c ****       LFsettings++;
 404              		.loc 1 59 0
 405 008e 0137     		adds	r7, r7, #1
 406              	.LVL55:
 407              	.L23:
  60:utility/utility.c ****     } if (setting8V_Read() == 1) {
 408              		.loc 1 60 0
 409 0090 FFF7FEFF 		bl	setting8V_Read
 410              	.LVL56:
 411 0094 0128     		cmp	r0, #1
 412 0096 16D1     		bne	.L24
  61:utility/utility.c ****       *LFRange = 8;
 413              		.loc 1 61 0
 414 0098 0823     		movs	r3, #8
 415 009a CAF80030 		str	r3, [r10]
  62:utility/utility.c ****       LFOutADC_SetOffset(27860);
 416              		.loc 1 62 0
 417 009e 46F6D440 		movw	r0, #27860
 418 00a2 FFF7FEFF 		bl	LFOutADC_SetOffset
 419              	.LVL57:
  63:utility/utility.c ****       LFOutADC_SetGain(-6595);
 420              		.loc 1 63 0
 421 00a6 5D48     		ldr	r0, .L37+28
 422 00a8 FFF7FEFF 		bl	LFOutADC_SetGain
 423              	.LVL58:
  64:utility/utility.c ****       *DAC150mVLevel = 1229;
 424              		.loc 1 64 0
 425 00ac 40F2CD43 		movw	r3, #1229
 426 00b0 C9F80030 		str	r3, [r9]
  65:utility/utility.c ****       *DACOffset = 450;
 427              		.loc 1 65 0
 428 00b4 4FF4E173 		mov	r3, #450
 429 00b8 3360     		str	r3, [r6]
  66:utility/utility.c ****       *DACRange = 7.636774;
 430              		.loc 1 66 0
 431 00ba 594B     		ldr	r3, .L37+32
 432 00bc 2B60     		str	r3, [r5]	@ float
  67:utility/utility.c ****       Serial("Running in '8V Loop Filter' mode.");
 433              		.loc 1 67 0
 434 00be 5948     		ldr	r0, .L37+36
 435 00c0 FFF7FEFF 		bl	Serial
 436              	.LVL59:
  68:utility/utility.c ****       LFsettings++;
 437              		.loc 1 68 0
 438 00c4 0137     		adds	r7, r7, #1
 439              	.LVL60:
 440              	.L24:
  69:utility/utility.c ****     }
ARM GAS  C:\Users\THOMPS~1\AppData\Local\Temp\ccc1BpcM.s 			page 10


  70:utility/utility.c ****     if (LFsettings == 0) {
 441              		.loc 1 70 0
 442 00c6 5FB9     		cbnz	r7, .L25
  71:utility/utility.c ****       Serial("Loop filter voltage setting could not be found. Is +/-15V on? Restart me.");
 443              		.loc 1 71 0
 444 00c8 5748     		ldr	r0, .L37+40
 445 00ca FFF7FEFF 		bl	Serial
 446              	.LVL61:
 447              	.L26:
  72:utility/utility.c ****       while(1) {
  73:utility/utility.c ****         redLight_Write(blinkLED);
 448              		.loc 1 73 0 discriminator 1
 449 00ce E0B2     		uxtb	r0, r4
 450 00d0 FFF7FEFF 		bl	redLight_Write
 451              	.LVL62:
  74:utility/utility.c ****         blinkLED = 1 - blinkLED;
 452              		.loc 1 74 0 discriminator 1
 453 00d4 C4F10104 		rsb	r4, r4, #1
 454              	.LVL63:
  75:utility/utility.c ****         CyDelay(250);
 455              		.loc 1 75 0 discriminator 1
 456 00d8 FA20     		movs	r0, #250
 457 00da FFF7FEFF 		bl	CyDelay
 458              	.LVL64:
 459 00de F6E7     		b	.L26
 460              	.L25:
  76:utility/utility.c ****       }
  77:utility/utility.c ****     } else if (LFsettings > 1) {
 461              		.loc 1 77 0
 462 00e0 012F     		cmp	r7, #1
 463 00e2 0BDD     		ble	.L27
  78:utility/utility.c ****       Serial("Error: multiple loop filter voltage settings were measured. Check electronics");
 464              		.loc 1 78 0
 465 00e4 5148     		ldr	r0, .L37+44
 466 00e6 FFF7FEFF 		bl	Serial
 467              	.LVL65:
 468              	.L28:
  79:utility/utility.c ****       while(1) {
  80:utility/utility.c ****         redLight_Write(blinkLED);
 469              		.loc 1 80 0 discriminator 1
 470 00ea E0B2     		uxtb	r0, r4
 471 00ec FFF7FEFF 		bl	redLight_Write
 472              	.LVL66:
  81:utility/utility.c ****         blinkLED = 1 - blinkLED;
 473              		.loc 1 81 0 discriminator 1
 474 00f0 C4F10104 		rsb	r4, r4, #1
 475              	.LVL67:
  82:utility/utility.c ****         CyDelay(250);
 476              		.loc 1 82 0 discriminator 1
 477 00f4 FA20     		movs	r0, #250
 478 00f6 FFF7FEFF 		bl	CyDelay
 479              	.LVL68:
 480 00fa F6E7     		b	.L28
 481              	.L27:
  83:utility/utility.c ****       }
  84:utility/utility.c ****     }
  85:utility/utility.c ****     
ARM GAS  C:\Users\THOMPS~1\AppData\Local\Temp\ccc1BpcM.s 			page 11


  86:utility/utility.c ****     int32 sweepV = DAC_VoltsTo_Counts(1.0, *DACRange, *DACOffset);
 482              		.loc 1 86 0
 483 00fc 3268     		ldr	r2, [r6]
 484 00fe 2968     		ldr	r1, [r5]	@ float
 485 0100 4FF07E50 		mov	r0, #1065353216
 486 0104 FFF7FEFF 		bl	DAC_VoltsTo_Counts
 487              	.LVL69:
 488 0108 0746     		mov	r7, r0
 489              	.LVL70:
  87:utility/utility.c ****     coarseDAC_SetValue((0xff00 & sweepV) >> 8); // set coarseDAC sweep voltage
 490              		.loc 1 87 0
 491 010a C0F30720 		ubfx	r0, r0, #8, #8
 492              	.LVL71:
 493 010e FFF7FEFF 		bl	coarseDAC_SetValue
 494              	.LVL72:
  88:utility/utility.c ****     fineDAC_SetValue(0x00ff & sweepV);          // add in fineDAC voltage with circuitry
 495              		.loc 1 88 0
 496 0112 F8B2     		uxtb	r0, r7
 497 0114 FFF7FEFF 		bl	fineDAC_SetValue
 498              	.LVL73:
  89:utility/utility.c ****         
  90:utility/utility.c ****         
  91:utility/utility.c ****     if (!TEST_VOLTAGE_MODE) { // we're not testing? Okay, get back to work
 499              		.loc 1 91 0
 500 0118 BBF1000F 		cmp	fp, #0
 501 011c 6DD0     		beq	.L21
  92:utility/utility.c ****       break;
  93:utility/utility.c ****     }
  94:utility/utility.c ****     
  95:utility/utility.c ****     greenLight_Write(blinkLED); redLight_Write(blinkLED); 
 502              		.loc 1 95 0
 503 011e E7B2     		uxtb	r7, r4
 504              	.LVL74:
 505 0120 3846     		mov	r0, r7
 506 0122 FFF7FEFF 		bl	greenLight_Write
 507              	.LVL75:
 508 0126 3846     		mov	r0, r7
 509 0128 FFF7FEFF 		bl	redLight_Write
 510              	.LVL76:
  96:utility/utility.c ****     yellowLight_Write(1-blinkLED); orangeLight_Write(1-blinkLED); 
 511              		.loc 1 96 0
 512 012c C7F10107 		rsb	r7, r7, #1
 513 0130 FFB2     		uxtb	r7, r7
 514 0132 3846     		mov	r0, r7
 515 0134 FFF7FEFF 		bl	yellowLight_Write
 516              	.LVL77:
 517 0138 3846     		mov	r0, r7
 518 013a FFF7FEFF 		bl	orangeLight_Write
 519              	.LVL78:
  97:utility/utility.c ****     blinkLED = 1 - blinkLED;
 520              		.loc 1 97 0
 521 013e C4F10104 		rsb	r4, r4, #1
 522              	.LVL79:
  98:utility/utility.c ****     
  99:utility/utility.c ****     (void)LFOutADC_IsEndConversion(LFOutADC_WAIT_FOR_RESULT);
 523              		.loc 1 99 0
 524 0142 0020     		movs	r0, #0
ARM GAS  C:\Users\THOMPS~1\AppData\Local\Temp\ccc1BpcM.s 			page 12


 525 0144 FFF7FEFF 		bl	LFOutADC_IsEndConversion
 526              	.LVL80:
 100:utility/utility.c ****     int32 D1 = LFOutADC_GetResult32(); // Measure LF out voltage.
 527              		.loc 1 100 0
 528 0148 FFF7FEFF 		bl	LFOutADC_GetResult32
 529              	.LVL81:
 530 014c 0746     		mov	r7, r0
 531              	.LVL82:
 101:utility/utility.c ****     float V1 = LFOutADC_CountsTo_Volts(D1);
 532              		.loc 1 101 0
 533 014e FFF7FEFF 		bl	LFOutADC_CountsTo_Volts
 534              	.LVL83:
 535 0152 0690     		str	r0, [sp, #24]	@ float
 536              	.LVL84:
 102:utility/utility.c ****     (void)errMonADC_IsEndConversion(errMonADC_WAIT_FOR_RESULT); // docs say: always check
 537              		.loc 1 102 0
 538 0154 0020     		movs	r0, #0
 539              	.LVL85:
 540 0156 FFF7FEFF 		bl	errMonADC_IsEndConversion
 541              	.LVL86:
 103:utility/utility.c ****     int16 D2 = errMonADC_GetResult16();
 542              		.loc 1 103 0
 543 015a FFF7FEFF 		bl	errMonADC_GetResult16
 544              	.LVL87:
 545 015e 8046     		mov	r8, r0
 546              	.LVL88:
 104:utility/utility.c ****     float V2 = errMonADC_CountsTo_Volts(D2);
 547              		.loc 1 104 0
 548 0160 FFF7FEFF 		bl	errMonADC_CountsTo_Volts
 549              	.LVL89:
 550 0164 0990     		str	r0, [sp, #36]	@ float
 551              	.LVL90:
 105:utility/utility.c ****     sprintf(serialBuffer, "Measured LF output: %.3f V (%5ld); error monitor: %.3f V (%5d)",
 552              		.loc 1 105 0
 553 0166 0698     		ldr	r0, [sp, #24]	@ float
 554              	.LVL91:
 555 0168 FFF7FEFF 		bl	__aeabi_f2d
 556              	.LVL92:
 557 016c CDE90601 		strd	r0, [sp, #24]
 558              	.LVL93:
 559 0170 CDF81080 		str	r8, [sp, #16]
 560 0174 0998     		ldr	r0, [sp, #36]	@ float
 561 0176 FFF7FEFF 		bl	__aeabi_f2d
 562              	.LVL94:
 563 017a CDE90201 		strd	r0, [sp, #8]
 564 017e 0097     		str	r7, [sp]
 565 0180 DDE90623 		ldrd	r2, [sp, #24]
 566 0184 2A49     		ldr	r1, .L37+48
 567 0186 0AA8     		add	r0, sp, #40
 568 0188 FFF7FEFF 		bl	sprintf
 569              	.LVL95:
 106:utility/utility.c ****       V1, D1, V2, D2);
 107:utility/utility.c ****     Serial(serialBuffer);
 570              		.loc 1 107 0
 571 018c 0AA8     		add	r0, sp, #40
 572 018e FFF7FEFF 		bl	Serial
 573              	.LVL96:
ARM GAS  C:\Users\THOMPS~1\AppData\Local\Temp\ccc1BpcM.s 			page 13


 108:utility/utility.c ****     
 109:utility/utility.c ****     switches_Write(1); // control loop filter with microprocessor
 574              		.loc 1 109 0
 575 0192 0120     		movs	r0, #1
 576 0194 FFF7FEFF 		bl	switches_Write
 577              	.LVL97:
 110:utility/utility.c ****     int32 sweepStop;
 111:utility/utility.c ****     
 112:utility/utility.c ****     if (calibratePin_Read() == 0) {
 578              		.loc 1 112 0
 579 0198 FFF7FEFF 		bl	calibratePin_Read
 580              	.LVL98:
 581 019c 38B9     		cbnz	r0, .L30
 113:utility/utility.c ****       Serial("Sweeping full output range. Toggle 'Calibrate' switch for \"0-1 V\".");
 582              		.loc 1 113 0
 583 019e 2548     		ldr	r0, .L37+52
 584 01a0 FFF7FEFF 		bl	Serial
 585              	.LVL99:
 114:utility/utility.c ****       sweepV = 65535;
 115:utility/utility.c ****       sweepStop = 0;
 586              		.loc 1 115 0
 587 01a4 4FF00008 		mov	r8, #0
 588              	.LVL100:
 114:utility/utility.c ****       sweepV = 65535;
 589              		.loc 1 114 0
 590 01a8 4FF6FF77 		movw	r7, #65535
 591              	.LVL101:
 592 01ac 22E0     		b	.L31
 593              	.LVL102:
 594              	.L30:
 116:utility/utility.c ****     } else {
 117:utility/utility.c ****       sweepV = DAC_VoltsTo_Counts(0.0, *DACRange, *DACOffset);
 595              		.loc 1 117 0
 596 01ae D5F80080 		ldr	r8, [r5]	@ float
 597              	.LVL103:
 598 01b2 3368     		ldr	r3, [r6]
 599 01b4 0693     		str	r3, [sp, #24]
 600 01b6 1A46     		mov	r2, r3
 601 01b8 4146     		mov	r1, r8
 602 01ba 0020     		movs	r0, #0
 603 01bc FFF7FEFF 		bl	DAC_VoltsTo_Counts
 604              	.LVL104:
 605 01c0 0746     		mov	r7, r0
 606              	.LVL105:
 118:utility/utility.c ****       sweepStop = DAC_VoltsTo_Counts(1.0, *DACRange, *DACOffset);
 607              		.loc 1 118 0
 608 01c2 069A     		ldr	r2, [sp, #24]
 609 01c4 4146     		mov	r1, r8
 610 01c6 4FF07E50 		mov	r0, #1065353216
 611              	.LVL106:
 612 01ca FFF7FEFF 		bl	DAC_VoltsTo_Counts
 613              	.LVL107:
 614 01ce 8046     		mov	r8, r0
 615              	.LVL108:
 119:utility/utility.c ****       sprintf(serialBuffer, "Sweeping \"0-1 V\" (%ld-%ld). Toggle 'Calibrate' for full range.",
 616              		.loc 1 119 0
 617 01d0 0346     		mov	r3, r0
ARM GAS  C:\Users\THOMPS~1\AppData\Local\Temp\ccc1BpcM.s 			page 14


 618 01d2 3A46     		mov	r2, r7
 619 01d4 1849     		ldr	r1, .L37+56
 620 01d6 0AA8     		add	r0, sp, #40
 621              	.LVL109:
 622 01d8 FFF7FEFF 		bl	sprintf
 623              	.LVL110:
 120:utility/utility.c ****         sweepV, sweepStop);
 121:utility/utility.c ****       Serial(serialBuffer);
 624              		.loc 1 121 0
 625 01dc 0AA8     		add	r0, sp, #40
 626 01de FFF7FEFF 		bl	Serial
 627              	.LVL111:
 628 01e2 07E0     		b	.L31
 629              	.L33:
 122:utility/utility.c ****     }
 123:utility/utility.c ****     while(sweepV >= sweepStop) {
 124:utility/utility.c ****       fineDAC_SetValue(0x00ff & sweepV);
 630              		.loc 1 124 0
 631 01e4 F8B2     		uxtb	r0, r7
 632 01e6 FFF7FEFF 		bl	fineDAC_SetValue
 633              	.LVL112:
 125:utility/utility.c ****       coarseDAC_SetValue((0xff00 & sweepV) >> 8);
 634              		.loc 1 125 0
 635 01ea C7F30720 		ubfx	r0, r7, #8, #8
 636 01ee FFF7FEFF 		bl	coarseDAC_SetValue
 637              	.LVL113:
 126:utility/utility.c ****       sweepV -= 1;
 638              		.loc 1 126 0
 639 01f2 013F     		subs	r7, r7, #1
 640              	.LVL114:
 641              	.L31:
 123:utility/utility.c ****       fineDAC_SetValue(0x00ff & sweepV);
 642              		.loc 1 123 0
 643 01f4 4745     		cmp	r7, r8
 644 01f6 F5DA     		bge	.L33
 645 01f8 12E7     		b	.L34
 646              	.LVL115:
 647              	.L21:
 648              	.LBE3:
 127:utility/utility.c ****     }
 128:utility/utility.c ****     
 129:utility/utility.c ****     sweepV = DAC_VoltsTo_Counts(1.0, *DACRange, *DACOffset);
 130:utility/utility.c **** 
 131:utility/utility.c ****     //coarseDAC_SetValue((0xff00 & sweepV) >> 8);
 132:utility/utility.c ****     //fineDAC_SetValue(0x00ff & sweepV);
 133:utility/utility.c ****    // CyDelay(250);
 134:utility/utility.c ****   }
 135:utility/utility.c ****   
 136:utility/utility.c ****   return;
 137:utility/utility.c **** }...
 649              		.loc 1 137 0
 650 01fa 4BB0     		add	sp, sp, #300
 651              		.cfi_def_cfa_offset 36
 652              		@ sp needed
 653 01fc BDE8F08F 		pop	{r4, r5, r6, r7, r8, r9, r10, fp, pc}
 654              	.LVL116:
 655              	.L38:
ARM GAS  C:\Users\THOMPS~1\AppData\Local\Temp\ccc1BpcM.s 			page 15


 656              		.align	2
 657              	.L37:
 658 0200 08F1FFFF 		.word	-3832
 659 0204 6AF8FFFF 		.word	-1942
 660 0208 8E06E241 		.word	1105331854
 661 020c 10000000 		.word	.LC1
 662 0210 AAF6FFFF 		.word	-2390
 663 0214 6D56A541 		.word	1101354605
 664 0218 34000000 		.word	.LC2
 665 021c 3DE6FFFF 		.word	-6595
 666 0220 7460F440 		.word	1089757300
 667 0224 58000000 		.word	.LC3
 668 0228 7C000000 		.word	.LC4
 669 022c C8000000 		.word	.LC5
 670 0230 18010000 		.word	.LC6
 671 0234 58010000 		.word	.LC7
 672 0238 9C010000 		.word	.LC8
 673              		.cfi_endproc
 674              	.LFE69:
 675              		.size	setupFreeSoc, .-setupFreeSoc
 676              		.section	.rodata.str1.4,"aMS",%progbits,1
 677              		.align	2
 678              	.LC0:
 679 0000 64617461 		.ascii	"data[%d,%d,%d]:\000"
 679      5B25642C 
 679      25642C25 
 679      645D3A00 
 680              	.LC1:
 681 0010 52756E6E 		.ascii	"Running in '28V Loop Filter' mode.\000"
 681      696E6720 
 681      696E2027 
 681      32385620 
 681      4C6F6F70 
 682 0033 00       		.space	1
 683              	.LC2:
 684 0034 52756E6E 		.ascii	"Running in '22V Loop Filter' mode.\000"
 684      696E6720 
 684      696E2027 
 684      32325620 
 684      4C6F6F70 
 685 0057 00       		.space	1
 686              	.LC3:
 687 0058 52756E6E 		.ascii	"Running in '8V Loop Filter' mode.\000"
 687      696E6720 
 687      696E2027 
 687      3856204C 
 687      6F6F7020 
 688 007a 0000     		.space	2
 689              	.LC4:
 690 007c 4C6F6F70 		.ascii	"Loop filter voltage setting could not be found. Is "
 690      2066696C 
 690      74657220 
 690      766F6C74 
 690      61676520 
 691 00af 2B2F2D31 		.ascii	"+/-15V on? Restart me.\000"
 691      3556206F 
 691      6E3F2052 
ARM GAS  C:\Users\THOMPS~1\AppData\Local\Temp\ccc1BpcM.s 			page 16


 691      65737461 
 691      7274206D 
 692 00c6 0000     		.space	2
 693              	.LC5:
 694 00c8 4572726F 		.ascii	"Error: multiple loop filter voltage settings were m"
 694      723A206D 
 694      756C7469 
 694      706C6520 
 694      6C6F6F70 
 695 00fb 65617375 		.ascii	"easured. Check electronics\000"
 695      7265642E 
 695      20436865 
 695      636B2065 
 695      6C656374 
 696 0116 0000     		.space	2
 697              	.LC6:
 698 0118 4D656173 		.ascii	"Measured LF output: %.3f V (%5ld); error monitor: %"
 698      75726564 
 698      204C4620 
 698      6F757470 
 698      75743A20 
 699 014b 2E336620 		.ascii	".3f V (%5d)\000"
 699      56202825 
 699      35642900 
 700 0157 00       		.space	1
 701              	.LC7:
 702 0158 53776565 		.ascii	"Sweeping full output range. Toggle 'Calibrate' swit"
 702      70696E67 
 702      2066756C 
 702      6C206F75 
 702      74707574 
 703 018b 63682066 		.ascii	"ch for \"0-1 V\".\000"
 703      6F722022 
 703      302D3120 
 703      56222E00 
 704 019b 00       		.space	1
 705              	.LC8:
 706 019c 53776565 		.ascii	"Sweeping \"0-1 V\" (%ld-%ld). Toggle 'Calibrate' fo"
 706      70696E67 
 706      2022302D 
 706      31205622 
 706      2028256C 
 707 01cd 72206675 		.ascii	"r full range.\000"
 707      6C6C2072 
 707      616E6765 
 707      2E00
 708              		.text
 709              	.Letext0:
 710              		.file 2 "c:\\program files (x86)\\cypress\\psoc creator\\4.2\\psoc creator\\import\\gnu\\arm\\5.4.
 711              		.file 3 "c:\\program files (x86)\\cypress\\psoc creator\\4.2\\psoc creator\\import\\gnu\\arm\\5.4.
 712              		.file 4 "Generated_Source\\PSoC5/cytypes.h"
 713              		.file 5 "Generated_Source\\PSoC5/LFOutADC.h"
 714              		.file 6 "Generated_Source\\PSoC5/errMonADC.h"
 715              		.file 7 "Generated_Source\\PSoC5/core_cm3.h"
 716              		.file 8 "Generated_Source\\PSoC5/SW_Tx_UART_1.h"
 717              		.file 9 "c:\\program files (x86)\\cypress\\psoc creator\\4.2\\psoc creator\\import\\gnu\\arm\\5.4.
 718              		.file 10 "Generated_Source\\PSoC5/setting28V.h"
ARM GAS  C:\Users\THOMPS~1\AppData\Local\Temp\ccc1BpcM.s 			page 17


 719              		.file 11 "Generated_Source\\PSoC5/setting22V.h"
 720              		.file 12 "Generated_Source\\PSoC5/setting8V.h"
 721              		.file 13 "Generated_Source\\PSoC5/redLight.h"
 722              		.file 14 "Generated_Source\\PSoC5/CyLib.h"
 723              		.file 15 "Generated_Source\\PSoC5/coarseDAC.h"
 724              		.file 16 "Generated_Source\\PSoC5/fineDAC.h"
 725              		.file 17 "Generated_Source\\PSoC5/greenLight.h"
 726              		.file 18 "Generated_Source\\PSoC5/yellowLight.h"
 727              		.file 19 "Generated_Source\\PSoC5/orangeLight.h"
 728              		.file 20 "Generated_Source\\PSoC5/switches.h"
 729              		.file 21 "Generated_Source\\PSoC5/calibratePin.h"