ARM GAS  C:\Users\THOMPS~1\AppData\Local\Temp\ccOrtDsn.s 			page 1


   1              		.syntax unified
   2              		.cpu cortex-m3
   3              		.fpu softvfp
   4              		.eabi_attribute 20, 1
   5              		.eabi_attribute 21, 1
   6              		.eabi_attribute 23, 3
   7              		.eabi_attribute 24, 1
   8              		.eabi_attribute 25, 1
   9              		.eabi_attribute 26, 1
  10              		.eabi_attribute 30, 4
  11              		.eabi_attribute 34, 1
  12              		.eabi_attribute 18, 4
  13              		.thumb
  14              		.syntax unified
  15              		.file	"cyfitter_cfg.c"
  16              		.text
  17              	.Ltext0:
  18              		.cfi_sections	.debug_frame
  19              		.section	.text.SetAnalogRoutingPumps,"ax",%progbits
  20              		.align	1
  21              		.global	SetAnalogRoutingPumps
  22              		.thumb
  23              		.thumb_func
  24              		.type	SetAnalogRoutingPumps, %function
  25              	SetAnalogRoutingPumps:
  26              	.LFB7:
  27              		.file 1 "Generated_Source\\PSoC5\\cyfitter_cfg.c"
   1:Generated_Source\PSoC5/cyfitter_cfg.c **** 
   2:Generated_Source\PSoC5/cyfitter_cfg.c **** /*******************************************************************************
   3:Generated_Source\PSoC5/cyfitter_cfg.c **** * File Name: cyfitter_cfg.c
   4:Generated_Source\PSoC5/cyfitter_cfg.c **** * 
   5:Generated_Source\PSoC5/cyfitter_cfg.c **** * PSoC Creator  4.2
   6:Generated_Source\PSoC5/cyfitter_cfg.c **** *
   7:Generated_Source\PSoC5/cyfitter_cfg.c **** * Description:
   8:Generated_Source\PSoC5/cyfitter_cfg.c **** * This file contains device initialization code.
   9:Generated_Source\PSoC5/cyfitter_cfg.c **** * Except for the user defined sections in CyClockStartupError(), this file should not be modified.
  10:Generated_Source\PSoC5/cyfitter_cfg.c **** * This file is automatically generated by PSoC Creator.
  11:Generated_Source\PSoC5/cyfitter_cfg.c **** *
  12:Generated_Source\PSoC5/cyfitter_cfg.c **** ********************************************************************************
  13:Generated_Source\PSoC5/cyfitter_cfg.c **** * Copyright (c) 2007-2018 Cypress Semiconductor.  All rights reserved.
  14:Generated_Source\PSoC5/cyfitter_cfg.c **** * You may use this file only in accordance with the license, terms, conditions, 
  15:Generated_Source\PSoC5/cyfitter_cfg.c **** * disclaimers, and limitations in the end user license agreement accompanying 
  16:Generated_Source\PSoC5/cyfitter_cfg.c **** * the software package with which this file was provided.
  17:Generated_Source\PSoC5/cyfitter_cfg.c **** ********************************************************************************/
  18:Generated_Source\PSoC5/cyfitter_cfg.c **** 
  19:Generated_Source\PSoC5/cyfitter_cfg.c **** #include <string.h>
  20:Generated_Source\PSoC5/cyfitter_cfg.c **** #include "cytypes.h"
  21:Generated_Source\PSoC5/cyfitter_cfg.c **** #include "cydevice_trm.h"
  22:Generated_Source\PSoC5/cyfitter_cfg.c **** #include "cyfitter.h"
  23:Generated_Source\PSoC5/cyfitter_cfg.c **** #include "CyLib.h"
  24:Generated_Source\PSoC5/cyfitter_cfg.c **** #include "cyfitter_cfg.h"
  25:Generated_Source\PSoC5/cyfitter_cfg.c **** #include "cyapicallbacks.h"
  26:Generated_Source\PSoC5/cyfitter_cfg.c **** 
  27:Generated_Source\PSoC5/cyfitter_cfg.c **** #define CY_NEED_CYCLOCKSTARTUPERROR 1
  28:Generated_Source\PSoC5/cyfitter_cfg.c **** 
  29:Generated_Source\PSoC5/cyfitter_cfg.c **** 
  30:Generated_Source\PSoC5/cyfitter_cfg.c **** #if defined(__GNUC__) || defined(__ARMCC_VERSION)
ARM GAS  C:\Users\THOMPS~1\AppData\Local\Temp\ccOrtDsn.s 			page 2


  31:Generated_Source\PSoC5/cyfitter_cfg.c ****     #define CYPACKED 
  32:Generated_Source\PSoC5/cyfitter_cfg.c ****     #define CYPACKED_ATTR __attribute__ ((packed))
  33:Generated_Source\PSoC5/cyfitter_cfg.c ****     #define CYALIGNED __attribute__ ((aligned))
  34:Generated_Source\PSoC5/cyfitter_cfg.c ****     #define CY_CFG_UNUSED __attribute__ ((unused))
  35:Generated_Source\PSoC5/cyfitter_cfg.c ****     #ifndef CY_CFG_SECTION
  36:Generated_Source\PSoC5/cyfitter_cfg.c ****         #define CY_CFG_SECTION __attribute__ ((section(".psocinit")))
  37:Generated_Source\PSoC5/cyfitter_cfg.c ****     #endif
  38:Generated_Source\PSoC5/cyfitter_cfg.c ****     
  39:Generated_Source\PSoC5/cyfitter_cfg.c ****     #if defined(__ARMCC_VERSION)
  40:Generated_Source\PSoC5/cyfitter_cfg.c ****         #define CY_CFG_MEMORY_BARRIER() __memory_changed()
  41:Generated_Source\PSoC5/cyfitter_cfg.c ****     #else
  42:Generated_Source\PSoC5/cyfitter_cfg.c ****         #define CY_CFG_MEMORY_BARRIER() __sync_synchronize()
  43:Generated_Source\PSoC5/cyfitter_cfg.c ****     #endif
  44:Generated_Source\PSoC5/cyfitter_cfg.c ****     
  45:Generated_Source\PSoC5/cyfitter_cfg.c **** #elif defined(__ICCARM__)
  46:Generated_Source\PSoC5/cyfitter_cfg.c ****     #include <intrinsics.h>
  47:Generated_Source\PSoC5/cyfitter_cfg.c **** 
  48:Generated_Source\PSoC5/cyfitter_cfg.c ****     #define CYPACKED __packed
  49:Generated_Source\PSoC5/cyfitter_cfg.c ****     #define CYPACKED_ATTR 
  50:Generated_Source\PSoC5/cyfitter_cfg.c ****     #define CYALIGNED _Pragma("data_alignment=4")
  51:Generated_Source\PSoC5/cyfitter_cfg.c ****     #define CY_CFG_UNUSED _Pragma("diag_suppress=Pe177")
  52:Generated_Source\PSoC5/cyfitter_cfg.c ****     #define CY_CFG_SECTION _Pragma("location=\".psocinit\"")
  53:Generated_Source\PSoC5/cyfitter_cfg.c ****     
  54:Generated_Source\PSoC5/cyfitter_cfg.c ****     #define CY_CFG_MEMORY_BARRIER() __DMB()
  55:Generated_Source\PSoC5/cyfitter_cfg.c ****     
  56:Generated_Source\PSoC5/cyfitter_cfg.c **** #else
  57:Generated_Source\PSoC5/cyfitter_cfg.c ****     #error Unsupported toolchain
  58:Generated_Source\PSoC5/cyfitter_cfg.c **** #endif
  59:Generated_Source\PSoC5/cyfitter_cfg.c **** 
  60:Generated_Source\PSoC5/cyfitter_cfg.c **** #ifndef CYCODE
  61:Generated_Source\PSoC5/cyfitter_cfg.c ****     #define CYCODE
  62:Generated_Source\PSoC5/cyfitter_cfg.c **** #endif
  63:Generated_Source\PSoC5/cyfitter_cfg.c **** #ifndef CYDATA
  64:Generated_Source\PSoC5/cyfitter_cfg.c ****     #define CYDATA
  65:Generated_Source\PSoC5/cyfitter_cfg.c **** #endif
  66:Generated_Source\PSoC5/cyfitter_cfg.c **** #ifndef CYFAR
  67:Generated_Source\PSoC5/cyfitter_cfg.c ****     #define CYFAR
  68:Generated_Source\PSoC5/cyfitter_cfg.c **** #endif
  69:Generated_Source\PSoC5/cyfitter_cfg.c **** #ifndef CYXDATA
  70:Generated_Source\PSoC5/cyfitter_cfg.c ****     #define CYXDATA
  71:Generated_Source\PSoC5/cyfitter_cfg.c **** #endif
  72:Generated_Source\PSoC5/cyfitter_cfg.c **** 
  73:Generated_Source\PSoC5/cyfitter_cfg.c **** 
  74:Generated_Source\PSoC5/cyfitter_cfg.c **** CY_CFG_UNUSED
  75:Generated_Source\PSoC5/cyfitter_cfg.c **** static void CYMEMZERO(void *s, size_t n);
  76:Generated_Source\PSoC5/cyfitter_cfg.c **** CY_CFG_UNUSED
  77:Generated_Source\PSoC5/cyfitter_cfg.c **** static void CYMEMZERO(void *s, size_t n)
  78:Generated_Source\PSoC5/cyfitter_cfg.c **** {
  79:Generated_Source\PSoC5/cyfitter_cfg.c **** 	(void)memset(s, 0, n);
  80:Generated_Source\PSoC5/cyfitter_cfg.c **** }
  81:Generated_Source\PSoC5/cyfitter_cfg.c **** CY_CFG_UNUSED
  82:Generated_Source\PSoC5/cyfitter_cfg.c **** static void CYCONFIGCPY(void *dest, const void *src, size_t n);
  83:Generated_Source\PSoC5/cyfitter_cfg.c **** CY_CFG_UNUSED
  84:Generated_Source\PSoC5/cyfitter_cfg.c **** static void CYCONFIGCPY(void *dest, const void *src, size_t n)
  85:Generated_Source\PSoC5/cyfitter_cfg.c **** {
  86:Generated_Source\PSoC5/cyfitter_cfg.c **** 	(void)memcpy(dest, src, n);
  87:Generated_Source\PSoC5/cyfitter_cfg.c **** }
ARM GAS  C:\Users\THOMPS~1\AppData\Local\Temp\ccOrtDsn.s 			page 3


  88:Generated_Source\PSoC5/cyfitter_cfg.c **** CY_CFG_UNUSED
  89:Generated_Source\PSoC5/cyfitter_cfg.c **** static void CYCONFIGCPYCODE(void *dest, const void *src, size_t n);
  90:Generated_Source\PSoC5/cyfitter_cfg.c **** CY_CFG_UNUSED
  91:Generated_Source\PSoC5/cyfitter_cfg.c **** static void CYCONFIGCPYCODE(void *dest, const void *src, size_t n)
  92:Generated_Source\PSoC5/cyfitter_cfg.c **** {
  93:Generated_Source\PSoC5/cyfitter_cfg.c **** 	(void)memcpy(dest, src, n);
  94:Generated_Source\PSoC5/cyfitter_cfg.c **** }
  95:Generated_Source\PSoC5/cyfitter_cfg.c **** 
  96:Generated_Source\PSoC5/cyfitter_cfg.c **** 
  97:Generated_Source\PSoC5/cyfitter_cfg.c **** 
  98:Generated_Source\PSoC5/cyfitter_cfg.c **** 
  99:Generated_Source\PSoC5/cyfitter_cfg.c **** /* Clock startup error codes                                                   */
 100:Generated_Source\PSoC5/cyfitter_cfg.c **** #define CYCLOCKSTART_NO_ERROR    0u
 101:Generated_Source\PSoC5/cyfitter_cfg.c **** #define CYCLOCKSTART_XTAL_ERROR  1u
 102:Generated_Source\PSoC5/cyfitter_cfg.c **** #define CYCLOCKSTART_32KHZ_ERROR 2u
 103:Generated_Source\PSoC5/cyfitter_cfg.c **** #define CYCLOCKSTART_PLL_ERROR   3u
 104:Generated_Source\PSoC5/cyfitter_cfg.c **** #define CYCLOCKSTART_FLL_ERROR   4u
 105:Generated_Source\PSoC5/cyfitter_cfg.c **** #define CYCLOCKSTART_WCO_ERROR   5u
 106:Generated_Source\PSoC5/cyfitter_cfg.c **** 
 107:Generated_Source\PSoC5/cyfitter_cfg.c **** 
 108:Generated_Source\PSoC5/cyfitter_cfg.c **** #ifdef CY_NEED_CYCLOCKSTARTUPERROR
 109:Generated_Source\PSoC5/cyfitter_cfg.c **** /*******************************************************************************
 110:Generated_Source\PSoC5/cyfitter_cfg.c **** * Function Name: CyClockStartupError
 111:Generated_Source\PSoC5/cyfitter_cfg.c **** ********************************************************************************
 112:Generated_Source\PSoC5/cyfitter_cfg.c **** * Summary:
 113:Generated_Source\PSoC5/cyfitter_cfg.c **** *  If an error is encountered during clock configuration (crystal startup error,
 114:Generated_Source\PSoC5/cyfitter_cfg.c **** *  PLL lock error, etc.), the system will end up here.  Unless reimplemented by
 115:Generated_Source\PSoC5/cyfitter_cfg.c **** *  the customer, this function will stop in an infinite loop.
 116:Generated_Source\PSoC5/cyfitter_cfg.c **** *
 117:Generated_Source\PSoC5/cyfitter_cfg.c **** * Parameters:
 118:Generated_Source\PSoC5/cyfitter_cfg.c **** *   void
 119:Generated_Source\PSoC5/cyfitter_cfg.c **** *
 120:Generated_Source\PSoC5/cyfitter_cfg.c **** * Return:
 121:Generated_Source\PSoC5/cyfitter_cfg.c **** *   void
 122:Generated_Source\PSoC5/cyfitter_cfg.c **** *
 123:Generated_Source\PSoC5/cyfitter_cfg.c **** *******************************************************************************/
 124:Generated_Source\PSoC5/cyfitter_cfg.c **** CY_CFG_UNUSED
 125:Generated_Source\PSoC5/cyfitter_cfg.c **** static void CyClockStartupError(uint8 errorCode);
 126:Generated_Source\PSoC5/cyfitter_cfg.c **** CY_CFG_UNUSED
 127:Generated_Source\PSoC5/cyfitter_cfg.c **** static void CyClockStartupError(uint8 errorCode)
 128:Generated_Source\PSoC5/cyfitter_cfg.c **** {
 129:Generated_Source\PSoC5/cyfitter_cfg.c ****     /* To remove the compiler warning if errorCode not used.                */
 130:Generated_Source\PSoC5/cyfitter_cfg.c ****     errorCode = errorCode;
 131:Generated_Source\PSoC5/cyfitter_cfg.c **** 
 132:Generated_Source\PSoC5/cyfitter_cfg.c ****     /* If we have a clock startup error (bad MHz crystal, PLL lock, etc.),  */
 133:Generated_Source\PSoC5/cyfitter_cfg.c ****     /* we will end up here to allow the customer to implement something to  */
 134:Generated_Source\PSoC5/cyfitter_cfg.c ****     /* deal with the clock condition.                                       */
 135:Generated_Source\PSoC5/cyfitter_cfg.c **** 
 136:Generated_Source\PSoC5/cyfitter_cfg.c **** #ifdef CY_CFG_CLOCK_STARTUP_ERROR_CALLBACK
 137:Generated_Source\PSoC5/cyfitter_cfg.c ****     CY_CFG_Clock_Startup_ErrorCallback();
 138:Generated_Source\PSoC5/cyfitter_cfg.c **** #else
 139:Generated_Source\PSoC5/cyfitter_cfg.c ****     /*  If not using CY_CFG_CLOCK_STARTUP_ERROR_CALLBACK, place your clock startup code here. */
 140:Generated_Source\PSoC5/cyfitter_cfg.c ****     /* `#START CyClockStartupError` */
 141:Generated_Source\PSoC5/cyfitter_cfg.c **** 
 142:Generated_Source\PSoC5/cyfitter_cfg.c **** 
 143:Generated_Source\PSoC5/cyfitter_cfg.c **** 
 144:Generated_Source\PSoC5/cyfitter_cfg.c ****     /* `#END` */
ARM GAS  C:\Users\THOMPS~1\AppData\Local\Temp\ccOrtDsn.s 			page 4


 145:Generated_Source\PSoC5/cyfitter_cfg.c **** 
 146:Generated_Source\PSoC5/cyfitter_cfg.c ****     while(1) {}
 147:Generated_Source\PSoC5/cyfitter_cfg.c **** #endif /* CY_CFG_CLOCK_STARTUP_ERROR_CALLBACK */
 148:Generated_Source\PSoC5/cyfitter_cfg.c **** }
 149:Generated_Source\PSoC5/cyfitter_cfg.c **** #endif
 150:Generated_Source\PSoC5/cyfitter_cfg.c **** 
 151:Generated_Source\PSoC5/cyfitter_cfg.c **** #define CY_CFG_BASE_ADDR_COUNT 22u
 152:Generated_Source\PSoC5/cyfitter_cfg.c **** CYPACKED typedef struct
 153:Generated_Source\PSoC5/cyfitter_cfg.c **** {
 154:Generated_Source\PSoC5/cyfitter_cfg.c **** 	uint8 offset;
 155:Generated_Source\PSoC5/cyfitter_cfg.c **** 	uint8 value;
 156:Generated_Source\PSoC5/cyfitter_cfg.c **** } CYPACKED_ATTR cy_cfg_addrvalue_t;
 157:Generated_Source\PSoC5/cyfitter_cfg.c **** 
 158:Generated_Source\PSoC5/cyfitter_cfg.c **** #define cy_cfg_addr_table ((const uint32 CYFAR *)0x48000000u)
 159:Generated_Source\PSoC5/cyfitter_cfg.c **** #define cy_cfg_data_table ((const cy_cfg_addrvalue_t CYFAR *)0x48000058u)
 160:Generated_Source\PSoC5/cyfitter_cfg.c **** 
 161:Generated_Source\PSoC5/cyfitter_cfg.c **** /* IOPINS0_0 Address: CYREG_PRT0_DM0 Size (bytes): 8 */
 162:Generated_Source\PSoC5/cyfitter_cfg.c **** #define BS_IOPINS0_0_VAL ((const uint8 CYFAR *)0x480000B0u)
 163:Generated_Source\PSoC5/cyfitter_cfg.c **** 
 164:Generated_Source\PSoC5/cyfitter_cfg.c **** /* IOPINS0_1 Address: CYREG_PRT1_DM0 Size (bytes): 8 */
 165:Generated_Source\PSoC5/cyfitter_cfg.c **** #define BS_IOPINS0_1_VAL ((const uint8 CYFAR *)0x480000B8u)
 166:Generated_Source\PSoC5/cyfitter_cfg.c **** 
 167:Generated_Source\PSoC5/cyfitter_cfg.c **** /* IOPINS0_2 Address: CYREG_PRT2_DR Size (bytes): 10 */
 168:Generated_Source\PSoC5/cyfitter_cfg.c **** #define BS_IOPINS0_2_VAL ((const uint8 CYFAR *)0x480000C0u)
 169:Generated_Source\PSoC5/cyfitter_cfg.c **** 
 170:Generated_Source\PSoC5/cyfitter_cfg.c **** /* IOPINS0_3 Address: CYREG_PRT3_DM0 Size (bytes): 8 */
 171:Generated_Source\PSoC5/cyfitter_cfg.c **** #define BS_IOPINS0_3_VAL ((const uint8 CYFAR *)0x480000CCu)
 172:Generated_Source\PSoC5/cyfitter_cfg.c **** 
 173:Generated_Source\PSoC5/cyfitter_cfg.c **** /* IOPINS0_5 Address: CYREG_PRT5_DM0 Size (bytes): 8 */
 174:Generated_Source\PSoC5/cyfitter_cfg.c **** #define BS_IOPINS0_5_VAL ((const uint8 CYFAR *)0x480000D4u)
 175:Generated_Source\PSoC5/cyfitter_cfg.c **** 
 176:Generated_Source\PSoC5/cyfitter_cfg.c **** /* CYDEV_CLKDIST_ACFG0_CFG0 Address: CYREG_CLKDIST_ACFG0_CFG0 Size (bytes): 8 */
 177:Generated_Source\PSoC5/cyfitter_cfg.c **** #define BS_CYDEV_CLKDIST_ACFG0_CFG0_VAL ((const uint8 CYFAR *)0x480000DCu)
 178:Generated_Source\PSoC5/cyfitter_cfg.c **** 
 179:Generated_Source\PSoC5/cyfitter_cfg.c **** 
 180:Generated_Source\PSoC5/cyfitter_cfg.c **** /*******************************************************************************
 181:Generated_Source\PSoC5/cyfitter_cfg.c **** * Function Name: cfg_write_bytes32
 182:Generated_Source\PSoC5/cyfitter_cfg.c **** ********************************************************************************
 183:Generated_Source\PSoC5/cyfitter_cfg.c **** * Summary:
 184:Generated_Source\PSoC5/cyfitter_cfg.c **** *  This function is used for setting up the chip configuration areas that
 185:Generated_Source\PSoC5/cyfitter_cfg.c **** *  contain relatively sparse data.
 186:Generated_Source\PSoC5/cyfitter_cfg.c **** *
 187:Generated_Source\PSoC5/cyfitter_cfg.c **** * Parameters:
 188:Generated_Source\PSoC5/cyfitter_cfg.c **** *   void
 189:Generated_Source\PSoC5/cyfitter_cfg.c **** *
 190:Generated_Source\PSoC5/cyfitter_cfg.c **** * Return:
 191:Generated_Source\PSoC5/cyfitter_cfg.c **** *   void
 192:Generated_Source\PSoC5/cyfitter_cfg.c **** *
 193:Generated_Source\PSoC5/cyfitter_cfg.c **** *******************************************************************************/
 194:Generated_Source\PSoC5/cyfitter_cfg.c **** static void cfg_write_bytes32(const uint32 addr_table[], const cy_cfg_addrvalue_t data_table[]);
 195:Generated_Source\PSoC5/cyfitter_cfg.c **** static void cfg_write_bytes32(const uint32 addr_table[], const cy_cfg_addrvalue_t data_table[])
 196:Generated_Source\PSoC5/cyfitter_cfg.c **** {
 197:Generated_Source\PSoC5/cyfitter_cfg.c **** 	/* For 32-bit little-endian architectures */
 198:Generated_Source\PSoC5/cyfitter_cfg.c **** 	uint32 i, j = 0u;
 199:Generated_Source\PSoC5/cyfitter_cfg.c **** 	for (i = 0u; i < CY_CFG_BASE_ADDR_COUNT; i++)
 200:Generated_Source\PSoC5/cyfitter_cfg.c **** 	{
 201:Generated_Source\PSoC5/cyfitter_cfg.c **** 		uint32 baseAddr = addr_table[i];
ARM GAS  C:\Users\THOMPS~1\AppData\Local\Temp\ccOrtDsn.s 			page 5


 202:Generated_Source\PSoC5/cyfitter_cfg.c **** 		uint8 count = (uint8)baseAddr;
 203:Generated_Source\PSoC5/cyfitter_cfg.c **** 		baseAddr &= 0xFFFFFF00u;
 204:Generated_Source\PSoC5/cyfitter_cfg.c **** 		while (count != 0u)
 205:Generated_Source\PSoC5/cyfitter_cfg.c **** 		{
 206:Generated_Source\PSoC5/cyfitter_cfg.c **** 			CY_SET_REG8((void *)(baseAddr + data_table[j].offset), data_table[j].value);
 207:Generated_Source\PSoC5/cyfitter_cfg.c **** 			j++;
 208:Generated_Source\PSoC5/cyfitter_cfg.c **** 			count--;
 209:Generated_Source\PSoC5/cyfitter_cfg.c **** 		}
 210:Generated_Source\PSoC5/cyfitter_cfg.c **** 	}
 211:Generated_Source\PSoC5/cyfitter_cfg.c **** }
 212:Generated_Source\PSoC5/cyfitter_cfg.c **** 
 213:Generated_Source\PSoC5/cyfitter_cfg.c **** /*******************************************************************************
 214:Generated_Source\PSoC5/cyfitter_cfg.c **** * Function Name: ClockSetup
 215:Generated_Source\PSoC5/cyfitter_cfg.c **** ********************************************************************************
 216:Generated_Source\PSoC5/cyfitter_cfg.c **** *
 217:Generated_Source\PSoC5/cyfitter_cfg.c **** * Summary:
 218:Generated_Source\PSoC5/cyfitter_cfg.c **** *  Performs the initialization of all of the clocks in the device based on the
 219:Generated_Source\PSoC5/cyfitter_cfg.c **** *  settings in the Clock tab of the DWR.  This includes enabling the requested
 220:Generated_Source\PSoC5/cyfitter_cfg.c **** *  clocks and setting the necessary dividers to produce the desired frequency. 
 221:Generated_Source\PSoC5/cyfitter_cfg.c **** *
 222:Generated_Source\PSoC5/cyfitter_cfg.c **** * Parameters:
 223:Generated_Source\PSoC5/cyfitter_cfg.c **** *  void
 224:Generated_Source\PSoC5/cyfitter_cfg.c **** *
 225:Generated_Source\PSoC5/cyfitter_cfg.c **** * Return:
 226:Generated_Source\PSoC5/cyfitter_cfg.c **** *  void
 227:Generated_Source\PSoC5/cyfitter_cfg.c **** *
 228:Generated_Source\PSoC5/cyfitter_cfg.c **** *******************************************************************************/
 229:Generated_Source\PSoC5/cyfitter_cfg.c **** static void ClockSetup(void);
 230:Generated_Source\PSoC5/cyfitter_cfg.c **** static void ClockSetup(void)
 231:Generated_Source\PSoC5/cyfitter_cfg.c **** {
 232:Generated_Source\PSoC5/cyfitter_cfg.c **** 	uint32 timeout;
 233:Generated_Source\PSoC5/cyfitter_cfg.c **** 	uint8 pllLock;
 234:Generated_Source\PSoC5/cyfitter_cfg.c **** 
 235:Generated_Source\PSoC5/cyfitter_cfg.c **** 
 236:Generated_Source\PSoC5/cyfitter_cfg.c **** 	/* Configure Digital Clocks based on settings from Clock DWR */
 237:Generated_Source\PSoC5/cyfitter_cfg.c **** 	CY_SET_XTND_REG16((void CYFAR *)(CYREG_CLKDIST_DCFG0_CFG0), 0x0000u);
 238:Generated_Source\PSoC5/cyfitter_cfg.c **** 	CY_SET_XTND_REG8((void CYFAR *)(CYREG_CLKDIST_DCFG0_CFG0 + 0x2u), 0x50u);
 239:Generated_Source\PSoC5/cyfitter_cfg.c **** 
 240:Generated_Source\PSoC5/cyfitter_cfg.c **** 	/* Configure Analog Clocks based on settings from Clock DWR */
 241:Generated_Source\PSoC5/cyfitter_cfg.c **** 	CYCONFIGCPY((void CYFAR *)(CYREG_CLKDIST_ACFG0_CFG0), (const void CYFAR *)(BS_CYDEV_CLKDIST_ACFG0_
 242:Generated_Source\PSoC5/cyfitter_cfg.c **** 
 243:Generated_Source\PSoC5/cyfitter_cfg.c **** 	/* Configure ILO based on settings from Clock DWR */
 244:Generated_Source\PSoC5/cyfitter_cfg.c **** 	CY_SET_XTND_REG8((void CYFAR *)(CYREG_SLOWCLK_ILO_CR0), 0x02u);
 245:Generated_Source\PSoC5/cyfitter_cfg.c **** 	CY_SET_XTND_REG8((void CYFAR *)(CYREG_CLKDIST_CR), 0x08u);
 246:Generated_Source\PSoC5/cyfitter_cfg.c **** 
 247:Generated_Source\PSoC5/cyfitter_cfg.c **** 	/* Configure IMO based on settings from Clock DWR */
 248:Generated_Source\PSoC5/cyfitter_cfg.c **** 	CY_SET_XTND_REG8((void CYFAR *)(CYREG_FASTCLK_IMO_CR), 0x03u);
 249:Generated_Source\PSoC5/cyfitter_cfg.c **** 	CY_SET_XTND_REG8((void CYFAR *)(CYREG_IMO_TR1), (CY_GET_XTND_REG8((void CYFAR *)CYREG_FLSHID_CUST_
 250:Generated_Source\PSoC5/cyfitter_cfg.c **** 
 251:Generated_Source\PSoC5/cyfitter_cfg.c **** 	/* Configure PLL based on settings from Clock DWR */
 252:Generated_Source\PSoC5/cyfitter_cfg.c **** 	CY_SET_XTND_REG16((void CYFAR *)(CYREG_FASTCLK_PLL_P), 0x0008u);
 253:Generated_Source\PSoC5/cyfitter_cfg.c **** 	CY_SET_XTND_REG16((void CYFAR *)(CYREG_FASTCLK_PLL_CFG0), 0x1251u);
 254:Generated_Source\PSoC5/cyfitter_cfg.c **** 	/* Wait up to 250us for the PLL to lock */
 255:Generated_Source\PSoC5/cyfitter_cfg.c **** 	pllLock = 0u;
 256:Generated_Source\PSoC5/cyfitter_cfg.c **** 	for (timeout = 250u / 10u; (timeout > 0u) && (pllLock != 0x03u); timeout--)
 257:Generated_Source\PSoC5/cyfitter_cfg.c **** 	{ 
 258:Generated_Source\PSoC5/cyfitter_cfg.c **** 		pllLock = 0x03u & ((uint8)((uint8)pllLock << 1) | ((CY_GET_XTND_REG8((void CYFAR *)CYREG_FASTCLK_
ARM GAS  C:\Users\THOMPS~1\AppData\Local\Temp\ccOrtDsn.s 			page 6


 259:Generated_Source\PSoC5/cyfitter_cfg.c **** 		CyDelayCycles(10u * 48u); /* Delay 10us based on 48MHz clock */
 260:Generated_Source\PSoC5/cyfitter_cfg.c **** 	}
 261:Generated_Source\PSoC5/cyfitter_cfg.c **** 	/* If we ran out of time the PLL didn't lock so go to the error function */
 262:Generated_Source\PSoC5/cyfitter_cfg.c **** 	if (timeout == 0u)
 263:Generated_Source\PSoC5/cyfitter_cfg.c **** 	{
 264:Generated_Source\PSoC5/cyfitter_cfg.c **** 		CyClockStartupError(CYCLOCKSTART_PLL_ERROR);
 265:Generated_Source\PSoC5/cyfitter_cfg.c **** 	}
 266:Generated_Source\PSoC5/cyfitter_cfg.c **** 
 267:Generated_Source\PSoC5/cyfitter_cfg.c **** 	/* Configure Bus/Master Clock based on settings from Clock DWR */
 268:Generated_Source\PSoC5/cyfitter_cfg.c **** 	CY_SET_XTND_REG16((void CYFAR *)(CYREG_CLKDIST_MSTR0), 0x0100u);
 269:Generated_Source\PSoC5/cyfitter_cfg.c **** 	CY_SET_XTND_REG8((void CYFAR *)(CYREG_CLKDIST_MSTR0), 0x07u);
 270:Generated_Source\PSoC5/cyfitter_cfg.c **** 	CY_SET_XTND_REG8((void CYFAR *)(CYREG_CLKDIST_BCFG0), 0x00u);
 271:Generated_Source\PSoC5/cyfitter_cfg.c **** 	CY_SET_XTND_REG8((void CYFAR *)(CYREG_CLKDIST_BCFG2), 0x48u);
 272:Generated_Source\PSoC5/cyfitter_cfg.c **** 	CY_SET_XTND_REG8((void CYFAR *)(CYREG_CLKDIST_MSTR0), 0x00u);
 273:Generated_Source\PSoC5/cyfitter_cfg.c **** 	CY_SET_XTND_REG8((void CYFAR *)(CYREG_CLKDIST_LD), 0x02u);
 274:Generated_Source\PSoC5/cyfitter_cfg.c **** 	CY_SET_XTND_REG8((void CYFAR *)(CYREG_CLKDIST_DLY1), 0x04u);
 275:Generated_Source\PSoC5/cyfitter_cfg.c **** 
 276:Generated_Source\PSoC5/cyfitter_cfg.c **** 	CY_SET_XTND_REG8((void CYFAR *)(CYREG_PM_ACT_CFG2), ((CY_GET_XTND_REG8((void CYFAR *)CYREG_PM_ACT_
 277:Generated_Source\PSoC5/cyfitter_cfg.c **** 	CY_SET_XTND_REG8((void CYFAR *)(CYREG_PM_ACT_CFG1), ((CY_GET_XTND_REG8((void CYFAR *)CYREG_PM_ACT_
 278:Generated_Source\PSoC5/cyfitter_cfg.c **** 	CY_SET_XTND_REG8((void CYFAR *)(CYREG_PM_ACT_CFG0), ((CY_GET_XTND_REG8((void CYFAR *)CYREG_PM_ACT_
 279:Generated_Source\PSoC5/cyfitter_cfg.c **** }
 280:Generated_Source\PSoC5/cyfitter_cfg.c **** 
 281:Generated_Source\PSoC5/cyfitter_cfg.c **** 
 282:Generated_Source\PSoC5/cyfitter_cfg.c **** /* Analog API Functions */
 283:Generated_Source\PSoC5/cyfitter_cfg.c **** 
 284:Generated_Source\PSoC5/cyfitter_cfg.c **** 
 285:Generated_Source\PSoC5/cyfitter_cfg.c **** /*******************************************************************************
 286:Generated_Source\PSoC5/cyfitter_cfg.c **** * Function Name: AnalogSetDefault
 287:Generated_Source\PSoC5/cyfitter_cfg.c **** ********************************************************************************
 288:Generated_Source\PSoC5/cyfitter_cfg.c **** *
 289:Generated_Source\PSoC5/cyfitter_cfg.c **** * Summary:
 290:Generated_Source\PSoC5/cyfitter_cfg.c **** *  Sets up the analog portions of the chip to default values based on chip
 291:Generated_Source\PSoC5/cyfitter_cfg.c **** *  configuration options from the project.
 292:Generated_Source\PSoC5/cyfitter_cfg.c **** *
 293:Generated_Source\PSoC5/cyfitter_cfg.c **** * Parameters:
 294:Generated_Source\PSoC5/cyfitter_cfg.c **** *  void
 295:Generated_Source\PSoC5/cyfitter_cfg.c **** *
 296:Generated_Source\PSoC5/cyfitter_cfg.c **** * Return:
 297:Generated_Source\PSoC5/cyfitter_cfg.c **** *  void
 298:Generated_Source\PSoC5/cyfitter_cfg.c **** *
 299:Generated_Source\PSoC5/cyfitter_cfg.c **** *******************************************************************************/
 300:Generated_Source\PSoC5/cyfitter_cfg.c **** static void AnalogSetDefault(void);
 301:Generated_Source\PSoC5/cyfitter_cfg.c **** static void AnalogSetDefault(void)
 302:Generated_Source\PSoC5/cyfitter_cfg.c **** {
 303:Generated_Source\PSoC5/cyfitter_cfg.c **** 	uint8 bg_xover_inl_trim = CY_GET_XTND_REG8((void CYFAR *)(CYREG_FLSHID_MFG_CFG_BG_XOVER_INL_TRIM +
 304:Generated_Source\PSoC5/cyfitter_cfg.c **** 	uint8 cr4 = CY_GET_XTND_REG8((void CYFAR *)(CYREG_RESET_CR4));
 305:Generated_Source\PSoC5/cyfitter_cfg.c **** 	uint8 cr5 = CY_GET_XTND_REG8((void CYFAR *)(CYREG_RESET_CR5));
 306:Generated_Source\PSoC5/cyfitter_cfg.c **** 	CY_SET_XTND_REG8((void CYFAR *)(CYREG_BG_DFT0), (bg_xover_inl_trim & 0x07u));
 307:Generated_Source\PSoC5/cyfitter_cfg.c **** 	CY_SET_XTND_REG8((void CYFAR *)(CYREG_BG_DFT1), ((bg_xover_inl_trim >> 4) & 0x0Fu));
 308:Generated_Source\PSoC5/cyfitter_cfg.c **** 	/* Disable PRES while setting up SAR voltage reference */
 309:Generated_Source\PSoC5/cyfitter_cfg.c **** 	CY_SET_XTND_REG8((void CYFAR *)(CYREG_RESET_CR4), (cr4 | 0x03u));
 310:Generated_Source\PSoC5/cyfitter_cfg.c **** 	CY_SET_XTND_REG8((void CYFAR *)(CYREG_RESET_CR5), (cr5 | 0x03u));
 311:Generated_Source\PSoC5/cyfitter_cfg.c **** 	CY_SET_XTND_REG16((void CYFAR *)CYREG_PRT0_AMUX, 0x0A40u);
 312:Generated_Source\PSoC5/cyfitter_cfg.c **** 	CY_SET_XTND_REG8((void CYFAR *)CYREG_PRT3_AG, 0x02u);
 313:Generated_Source\PSoC5/cyfitter_cfg.c **** 	CY_SET_XTND_REG8((void CYFAR *)CYREG_SAR0_CSR1, 0x80u);
 314:Generated_Source\PSoC5/cyfitter_cfg.c **** 	CY_SET_XTND_REG8((void CYFAR *)CYREG_DAC0_SW3, 0x01u);
 315:Generated_Source\PSoC5/cyfitter_cfg.c **** 	CY_SET_XTND_REG8((void CYFAR *)CYREG_DAC3_SW0, 0x20u);
ARM GAS  C:\Users\THOMPS~1\AppData\Local\Temp\ccOrtDsn.s 			page 7


 316:Generated_Source\PSoC5/cyfitter_cfg.c **** 	CY_SET_XTND_REG8((void CYFAR *)CYREG_DSM0_SW0, 0x20u);
 317:Generated_Source\PSoC5/cyfitter_cfg.c **** 	CY_SET_XTND_REG8((void CYFAR *)CYREG_SAR0_SW0, 0x80u);
 318:Generated_Source\PSoC5/cyfitter_cfg.c **** 	CY_SET_XTND_REG8((void CYFAR *)CYREG_SAR0_SW3, 0x20u);
 319:Generated_Source\PSoC5/cyfitter_cfg.c **** 	CyDelayUs(10u); /* Allow vref to settle before re-enabling PRES */
 320:Generated_Source\PSoC5/cyfitter_cfg.c **** 	CY_SET_XTND_REG8((void CYFAR *)(CYREG_RESET_CR5), (cr5));
 321:Generated_Source\PSoC5/cyfitter_cfg.c **** 	CY_SET_XTND_REG8((void CYFAR *)(CYREG_RESET_CR4), (cr4));
 322:Generated_Source\PSoC5/cyfitter_cfg.c **** 	CY_SET_XTND_REG8((void CYFAR *)CYREG_PUMP_CR0, 0x44u);
 323:Generated_Source\PSoC5/cyfitter_cfg.c **** }
 324:Generated_Source\PSoC5/cyfitter_cfg.c **** 
 325:Generated_Source\PSoC5/cyfitter_cfg.c **** 
 326:Generated_Source\PSoC5/cyfitter_cfg.c **** /*******************************************************************************
 327:Generated_Source\PSoC5/cyfitter_cfg.c **** * Function Name: SetAnalogRoutingPumps
 328:Generated_Source\PSoC5/cyfitter_cfg.c **** ********************************************************************************
 329:Generated_Source\PSoC5/cyfitter_cfg.c **** *
 330:Generated_Source\PSoC5/cyfitter_cfg.c **** * Summary:
 331:Generated_Source\PSoC5/cyfitter_cfg.c **** * Enables or disables the analog pumps feeding analog routing switches.
 332:Generated_Source\PSoC5/cyfitter_cfg.c **** * Intended to be called at startup, based on the Vdda system configuration;
 333:Generated_Source\PSoC5/cyfitter_cfg.c **** * may be called during operation when the user informs us that the Vdda voltage
 334:Generated_Source\PSoC5/cyfitter_cfg.c **** * crossed the pump threshold.
 335:Generated_Source\PSoC5/cyfitter_cfg.c **** *
 336:Generated_Source\PSoC5/cyfitter_cfg.c **** * Parameters:
 337:Generated_Source\PSoC5/cyfitter_cfg.c **** *  enabled - 1 to enable the pumps, 0 to disable the pumps
 338:Generated_Source\PSoC5/cyfitter_cfg.c **** *
 339:Generated_Source\PSoC5/cyfitter_cfg.c **** * Return:
 340:Generated_Source\PSoC5/cyfitter_cfg.c **** *  void
 341:Generated_Source\PSoC5/cyfitter_cfg.c **** *
 342:Generated_Source\PSoC5/cyfitter_cfg.c **** *******************************************************************************/
 343:Generated_Source\PSoC5/cyfitter_cfg.c **** void SetAnalogRoutingPumps(uint8 enabled)
 344:Generated_Source\PSoC5/cyfitter_cfg.c **** {
  28              		.loc 1 344 0
  29              		.cfi_startproc
  30              		@ args = 0, pretend = 0, frame = 0
  31              		@ frame_needed = 0, uses_anonymous_args = 0
  32              		@ link register save eliminated.
  33              	.LVL0:
 345:Generated_Source\PSoC5/cyfitter_cfg.c **** 	uint8 regValue = CY_GET_XTND_REG8((void CYFAR *)CYREG_PUMP_CR0);
  34              		.loc 1 345 0
  35 0000 054A     		ldr	r2, .L5
  36 0002 1378     		ldrb	r3, [r2]	@ zero_extendqisi2
  37 0004 DBB2     		uxtb	r3, r3
  38              	.LVL1:
 346:Generated_Source\PSoC5/cyfitter_cfg.c **** 	if (enabled != 0u)
  39              		.loc 1 346 0
  40 0006 10B1     		cbz	r0, .L2
 347:Generated_Source\PSoC5/cyfitter_cfg.c **** 	{
 348:Generated_Source\PSoC5/cyfitter_cfg.c **** 		regValue |= 0x22u;
  41              		.loc 1 348 0
  42 0008 43F02203 		orr	r3, r3, #34
  43              	.LVL2:
  44 000c 01E0     		b	.L3
  45              	.L2:
 349:Generated_Source\PSoC5/cyfitter_cfg.c **** 	}
 350:Generated_Source\PSoC5/cyfitter_cfg.c **** 	else
 351:Generated_Source\PSoC5/cyfitter_cfg.c **** 	{
 352:Generated_Source\PSoC5/cyfitter_cfg.c **** 		regValue &= (uint8)~0x22u;
  46              		.loc 1 352 0
  47 000e 03F0DD03 		and	r3, r3, #221
ARM GAS  C:\Users\THOMPS~1\AppData\Local\Temp\ccOrtDsn.s 			page 8


  48              	.LVL3:
  49              	.L3:
 353:Generated_Source\PSoC5/cyfitter_cfg.c **** 	}
 354:Generated_Source\PSoC5/cyfitter_cfg.c **** 	CY_SET_XTND_REG8((void CYFAR *)CYREG_PUMP_CR0, regValue);
  50              		.loc 1 354 0
  51 0012 1370     		strb	r3, [r2]
  52 0014 7047     		bx	lr
  53              	.L6:
  54 0016 00BF     		.align	2
  55              	.L5:
  56 0018 76580040 		.word	1073764470
  57              		.cfi_endproc
  58              	.LFE7:
  59              		.size	SetAnalogRoutingPumps, .-SetAnalogRoutingPumps
  60              		.section	.text.LFOutADC_AMux_Set,"ax",%progbits
  61              		.align	1
  62              		.global	LFOutADC_AMux_Set
  63              		.thumb
  64              		.thumb_func
  65              		.type	LFOutADC_AMux_Set, %function
  66              	LFOutADC_AMux_Set:
  67              	.LFB8:
 355:Generated_Source\PSoC5/cyfitter_cfg.c **** }
 356:Generated_Source\PSoC5/cyfitter_cfg.c **** 
 357:Generated_Source\PSoC5/cyfitter_cfg.c **** 
 358:Generated_Source\PSoC5/cyfitter_cfg.c **** #define CY_AMUX_UNUSED CYREG_BOOST_SR
 359:Generated_Source\PSoC5/cyfitter_cfg.c **** /* This is an implementation detail of the AMux. Code that depends on it may be
 360:Generated_Source\PSoC5/cyfitter_cfg.c ****    incompatible with other versions of PSoC Creator. */
 361:Generated_Source\PSoC5/cyfitter_cfg.c **** uint8 CYXDATA * const CYCODE LFOutADC_AMux__addrTable[2] = {
 362:Generated_Source\PSoC5/cyfitter_cfg.c **** 	(uint8 CYXDATA *)CYREG_DSM0_SW3, 
 363:Generated_Source\PSoC5/cyfitter_cfg.c **** 	(uint8 CYXDATA *)CY_AMUX_UNUSED, 
 364:Generated_Source\PSoC5/cyfitter_cfg.c **** };
 365:Generated_Source\PSoC5/cyfitter_cfg.c **** 
 366:Generated_Source\PSoC5/cyfitter_cfg.c **** /* This is an implementation detail of the AMux. Code that depends on it may be
 367:Generated_Source\PSoC5/cyfitter_cfg.c ****    incompatible with other versions of PSoC Creator. */
 368:Generated_Source\PSoC5/cyfitter_cfg.c **** const uint8 CYCODE LFOutADC_AMux__maskTable[2] = {
 369:Generated_Source\PSoC5/cyfitter_cfg.c **** 	0x40u, 
 370:Generated_Source\PSoC5/cyfitter_cfg.c **** 	0x00u, 
 371:Generated_Source\PSoC5/cyfitter_cfg.c **** };
 372:Generated_Source\PSoC5/cyfitter_cfg.c **** 
 373:Generated_Source\PSoC5/cyfitter_cfg.c **** /*******************************************************************************
 374:Generated_Source\PSoC5/cyfitter_cfg.c **** * Function Name: LFOutADC_AMux_Set
 375:Generated_Source\PSoC5/cyfitter_cfg.c **** ********************************************************************************
 376:Generated_Source\PSoC5/cyfitter_cfg.c **** * Summary:
 377:Generated_Source\PSoC5/cyfitter_cfg.c **** *  This function is used to set a particular channel as active on the AMux.
 378:Generated_Source\PSoC5/cyfitter_cfg.c **** *
 379:Generated_Source\PSoC5/cyfitter_cfg.c **** * Parameters:  
 380:Generated_Source\PSoC5/cyfitter_cfg.c **** *   channel - The mux channel input to set as active
 381:Generated_Source\PSoC5/cyfitter_cfg.c **** *
 382:Generated_Source\PSoC5/cyfitter_cfg.c **** * Return:
 383:Generated_Source\PSoC5/cyfitter_cfg.c **** *   void
 384:Generated_Source\PSoC5/cyfitter_cfg.c **** *
 385:Generated_Source\PSoC5/cyfitter_cfg.c **** *******************************************************************************/
 386:Generated_Source\PSoC5/cyfitter_cfg.c **** void LFOutADC_AMux_Set(uint8 channel)
 387:Generated_Source\PSoC5/cyfitter_cfg.c **** {
  68              		.loc 1 387 0
  69              		.cfi_startproc
ARM GAS  C:\Users\THOMPS~1\AppData\Local\Temp\ccOrtDsn.s 			page 9


  70              		@ args = 0, pretend = 0, frame = 0
  71              		@ frame_needed = 0, uses_anonymous_args = 0
  72              		@ link register save eliminated.
  73              	.LVL4:
 388:Generated_Source\PSoC5/cyfitter_cfg.c **** 	if (channel < 2)
  74              		.loc 1 388 0
  75 0000 0128     		cmp	r0, #1
  76 0002 07D8     		bhi	.L7
 389:Generated_Source\PSoC5/cyfitter_cfg.c **** 	{
 390:Generated_Source\PSoC5/cyfitter_cfg.c **** 		*LFOutADC_AMux__addrTable[channel] |= LFOutADC_AMux__maskTable[channel];
  77              		.loc 1 390 0
  78 0004 044B     		ldr	r3, .L9
  79 0006 53F82020 		ldr	r2, [r3, r0, lsl #2]
  80 000a 1844     		add	r0, r0, r3
  81              	.LVL5:
  82 000c 1178     		ldrb	r1, [r2]	@ zero_extendqisi2
  83 000e 037A     		ldrb	r3, [r0, #8]	@ zero_extendqisi2
  84 0010 0B43     		orrs	r3, r3, r1
  85 0012 1370     		strb	r3, [r2]
  86              	.L7:
  87 0014 7047     		bx	lr
  88              	.L10:
  89 0016 00BF     		.align	2
  90              	.L9:
  91 0018 00000000 		.word	.LANCHOR0
  92              		.cfi_endproc
  93              	.LFE8:
  94              		.size	LFOutADC_AMux_Set, .-LFOutADC_AMux_Set
  95              		.section	.text.LFOutADC_AMux_Unset,"ax",%progbits
  96              		.align	1
  97              		.global	LFOutADC_AMux_Unset
  98              		.thumb
  99              		.thumb_func
 100              		.type	LFOutADC_AMux_Unset, %function
 101              	LFOutADC_AMux_Unset:
 102              	.LFB9:
 391:Generated_Source\PSoC5/cyfitter_cfg.c **** 	}
 392:Generated_Source\PSoC5/cyfitter_cfg.c **** }
 393:Generated_Source\PSoC5/cyfitter_cfg.c **** 
 394:Generated_Source\PSoC5/cyfitter_cfg.c **** /*******************************************************************************
 395:Generated_Source\PSoC5/cyfitter_cfg.c **** * Function Name: LFOutADC_AMux_Unset
 396:Generated_Source\PSoC5/cyfitter_cfg.c **** ********************************************************************************
 397:Generated_Source\PSoC5/cyfitter_cfg.c **** * Summary:
 398:Generated_Source\PSoC5/cyfitter_cfg.c **** *  This function is used to clear a particular channel from being active on the
 399:Generated_Source\PSoC5/cyfitter_cfg.c **** *  AMux.
 400:Generated_Source\PSoC5/cyfitter_cfg.c **** *
 401:Generated_Source\PSoC5/cyfitter_cfg.c **** * Parameters:  
 402:Generated_Source\PSoC5/cyfitter_cfg.c **** *   channel - The mux channel input to mark inactive
 403:Generated_Source\PSoC5/cyfitter_cfg.c **** *
 404:Generated_Source\PSoC5/cyfitter_cfg.c **** * Return:
 405:Generated_Source\PSoC5/cyfitter_cfg.c **** *   void
 406:Generated_Source\PSoC5/cyfitter_cfg.c **** *
 407:Generated_Source\PSoC5/cyfitter_cfg.c **** *******************************************************************************/
 408:Generated_Source\PSoC5/cyfitter_cfg.c **** void LFOutADC_AMux_Unset(uint8 channel)
 409:Generated_Source\PSoC5/cyfitter_cfg.c **** {
 103              		.loc 1 409 0
 104              		.cfi_startproc
ARM GAS  C:\Users\THOMPS~1\AppData\Local\Temp\ccOrtDsn.s 			page 10


 105              		@ args = 0, pretend = 0, frame = 0
 106              		@ frame_needed = 0, uses_anonymous_args = 0
 107              		@ link register save eliminated.
 108              	.LVL6:
 410:Generated_Source\PSoC5/cyfitter_cfg.c **** 	if (channel < 2)
 109              		.loc 1 410 0
 110 0000 0128     		cmp	r0, #1
 111 0002 08D8     		bhi	.L11
 411:Generated_Source\PSoC5/cyfitter_cfg.c **** 	{
 412:Generated_Source\PSoC5/cyfitter_cfg.c **** 		*LFOutADC_AMux__addrTable[channel] &= (uint8)~LFOutADC_AMux__maskTable[channel];
 112              		.loc 1 412 0
 113 0004 044B     		ldr	r3, .L13
 114 0006 53F82020 		ldr	r2, [r3, r0, lsl #2]
 115 000a 1844     		add	r0, r0, r3
 116              	.LVL7:
 117 000c 017A     		ldrb	r1, [r0, #8]	@ zero_extendqisi2
 118 000e 1378     		ldrb	r3, [r2]	@ zero_extendqisi2
 119 0010 23EA0103 		bic	r3, r3, r1
 120 0014 1370     		strb	r3, [r2]
 121              	.L11:
 122 0016 7047     		bx	lr
 123              	.L14:
 124              		.align	2
 125              	.L13:
 126 0018 00000000 		.word	.LANCHOR0
 127              		.cfi_endproc
 128              	.LFE9:
 129              		.size	LFOutADC_AMux_Unset, .-LFOutADC_AMux_Unset
 130              		.section	.text.cyfitter_cfg,"ax",%progbits
 131              		.align	1
 132              		.global	cyfitter_cfg
 133              		.thumb
 134              		.thumb_func
 135              		.type	cyfitter_cfg, %function
 136              	cyfitter_cfg:
 137              	.LFB10:
 413:Generated_Source\PSoC5/cyfitter_cfg.c **** 	}
 414:Generated_Source\PSoC5/cyfitter_cfg.c **** }
 415:Generated_Source\PSoC5/cyfitter_cfg.c **** 
 416:Generated_Source\PSoC5/cyfitter_cfg.c **** 
 417:Generated_Source\PSoC5/cyfitter_cfg.c **** 
 418:Generated_Source\PSoC5/cyfitter_cfg.c **** /*******************************************************************************
 419:Generated_Source\PSoC5/cyfitter_cfg.c **** * Function Name: cyfitter_cfg
 420:Generated_Source\PSoC5/cyfitter_cfg.c **** ********************************************************************************
 421:Generated_Source\PSoC5/cyfitter_cfg.c **** * Summary:
 422:Generated_Source\PSoC5/cyfitter_cfg.c **** *  This function is called by the start-up code for the selected device. It
 423:Generated_Source\PSoC5/cyfitter_cfg.c **** *  performs all of the necessary device configuration based on the design
 424:Generated_Source\PSoC5/cyfitter_cfg.c **** *  settings.  This includes settings from the Design Wide Resources (DWR) such
 425:Generated_Source\PSoC5/cyfitter_cfg.c **** *  as Clocks and Pins as well as any component configuration that is necessary.
 426:Generated_Source\PSoC5/cyfitter_cfg.c **** *
 427:Generated_Source\PSoC5/cyfitter_cfg.c **** * Parameters:
 428:Generated_Source\PSoC5/cyfitter_cfg.c **** *   void
 429:Generated_Source\PSoC5/cyfitter_cfg.c **** *
 430:Generated_Source\PSoC5/cyfitter_cfg.c **** * Return:
 431:Generated_Source\PSoC5/cyfitter_cfg.c **** *   void
 432:Generated_Source\PSoC5/cyfitter_cfg.c **** *
 433:Generated_Source\PSoC5/cyfitter_cfg.c **** *******************************************************************************/
ARM GAS  C:\Users\THOMPS~1\AppData\Local\Temp\ccOrtDsn.s 			page 11


 434:Generated_Source\PSoC5/cyfitter_cfg.c **** 
 435:Generated_Source\PSoC5/cyfitter_cfg.c **** void cyfitter_cfg(void)
 436:Generated_Source\PSoC5/cyfitter_cfg.c **** {
 138              		.loc 1 436 0
 139              		.cfi_startproc
 140              		@ args = 0, pretend = 0, frame = 0
 141              		@ frame_needed = 0, uses_anonymous_args = 0
 142 0000 2DE9F041 		push	{r4, r5, r6, r7, r8, lr}
 143              		.cfi_def_cfa_offset 24
 144              		.cfi_offset 4, -24
 145              		.cfi_offset 5, -20
 146              		.cfi_offset 6, -16
 147              		.cfi_offset 7, -12
 148              		.cfi_offset 8, -8
 149              		.cfi_offset 14, -4
 437:Generated_Source\PSoC5/cyfitter_cfg.c **** #ifdef CYGlobalIntDisable
 438:Generated_Source\PSoC5/cyfitter_cfg.c **** 	/* Disable interrupts by default. Let user enable if/when they want. */
 439:Generated_Source\PSoC5/cyfitter_cfg.c **** 	CYGlobalIntDisable
 150              		.loc 1 439 0
 151              		.syntax unified
 152              	@ 439 "Generated_Source\PSoC5\cyfitter_cfg.c" 1
 153 0004 72B6     		CPSID   i
 154              	@ 0 "" 2
 440:Generated_Source\PSoC5/cyfitter_cfg.c **** #endif
 441:Generated_Source\PSoC5/cyfitter_cfg.c **** 
 442:Generated_Source\PSoC5/cyfitter_cfg.c **** 	/* Enable/Disable Debug functionality based on settings from System DWR */
 443:Generated_Source\PSoC5/cyfitter_cfg.c **** 	CY_SET_XTND_REG8((void CYFAR *)CYREG_MLOGIC_DEBUG, (CY_GET_XTND_REG8((void CYFAR *)CYREG_MLOGIC_DE
 155              		.loc 1 443 0
 156              		.thumb
 157              		.syntax unified
 158 0006 814A     		ldr	r2, .L30
 159              	.LBB46:
 160              	.LBB47:
 444:Generated_Source\PSoC5/cyfitter_cfg.c **** 
 445:Generated_Source\PSoC5/cyfitter_cfg.c **** 	{
 446:Generated_Source\PSoC5/cyfitter_cfg.c **** 
 447:Generated_Source\PSoC5/cyfitter_cfg.c **** 		CYPACKED typedef struct {
 448:Generated_Source\PSoC5/cyfitter_cfg.c **** 			void CYFAR *address;
 449:Generated_Source\PSoC5/cyfitter_cfg.c **** 			uint16 size;
 450:Generated_Source\PSoC5/cyfitter_cfg.c **** 		} CYPACKED_ATTR cfg_memset_t;
 451:Generated_Source\PSoC5/cyfitter_cfg.c **** 
 452:Generated_Source\PSoC5/cyfitter_cfg.c **** 		static const cfg_memset_t CYCODE cfg_memset_list[] = {
 453:Generated_Source\PSoC5/cyfitter_cfg.c **** 			/* address, size */
 454:Generated_Source\PSoC5/cyfitter_cfg.c **** 			{(void CYFAR *)(CYREG_PRT4_DR), 16u},
 455:Generated_Source\PSoC5/cyfitter_cfg.c **** 			{(void CYFAR *)(CYREG_PRT6_DR), 16u},
 456:Generated_Source\PSoC5/cyfitter_cfg.c **** 			{(void CYFAR *)(CYREG_PRT12_DR), 16u},
 457:Generated_Source\PSoC5/cyfitter_cfg.c **** 			{(void CYFAR *)(CYREG_PRT15_DR), 16u},
 458:Generated_Source\PSoC5/cyfitter_cfg.c **** 			{(void CYFAR *)(CYDEV_UCFG_B0_P0_U0_BASE), 4096u},
 459:Generated_Source\PSoC5/cyfitter_cfg.c **** 			{(void CYFAR *)(CYDEV_UCFG_B1_P2_U0_BASE), 2048u},
 460:Generated_Source\PSoC5/cyfitter_cfg.c **** 			{(void CYFAR *)(CYDEV_UCFG_DSI0_BASE), 2560u},
 461:Generated_Source\PSoC5/cyfitter_cfg.c **** 			{(void CYFAR *)(CYDEV_UCFG_DSI12_BASE), 512u},
 462:Generated_Source\PSoC5/cyfitter_cfg.c **** 			{(void CYFAR *)(CYREG_BCTL0_MDCLK_EN), 32u},
 463:Generated_Source\PSoC5/cyfitter_cfg.c **** 		};
 464:Generated_Source\PSoC5/cyfitter_cfg.c **** 
 465:Generated_Source\PSoC5/cyfitter_cfg.c **** 		uint8 CYDATA i;
 466:Generated_Source\PSoC5/cyfitter_cfg.c **** 
 467:Generated_Source\PSoC5/cyfitter_cfg.c **** 		/* Zero out critical memory blocks before beginning configuration */
ARM GAS  C:\Users\THOMPS~1\AppData\Local\Temp\ccOrtDsn.s 			page 12


 468:Generated_Source\PSoC5/cyfitter_cfg.c **** 		for (i = 0u; i < (sizeof(cfg_memset_list)/sizeof(cfg_memset_list[0])); i++)
 469:Generated_Source\PSoC5/cyfitter_cfg.c **** 		{
 470:Generated_Source\PSoC5/cyfitter_cfg.c **** 			const cfg_memset_t CYCODE * CYDATA ms = &cfg_memset_list[i];
 471:Generated_Source\PSoC5/cyfitter_cfg.c **** 			CYMEMZERO(ms->address, (size_t)(uint32)(ms->size));
 161              		.loc 1 471 0
 162 0008 814D     		ldr	r5, .L30+4
 163              	.LBE47:
 164              	.LBE46:
 443:Generated_Source\PSoC5/cyfitter_cfg.c **** 
 165              		.loc 1 443 0
 166 000a 1378     		ldrb	r3, [r2]	@ zero_extendqisi2
 167 000c 0024     		movs	r4, #0
 168 000e 43F00403 		orr	r3, r3, #4
 169 0012 1370     		strb	r3, [r2]
 170              	.LVL8:
 171              	.LBB56:
 172              	.LBB50:
 173              		.loc 1 471 0
 174 0014 0626     		movs	r6, #6
 175              	.LVL9:
 176              	.L16:
 177              		.loc 1 471 0 is_stmt 0 discriminator 3
 178 0016 06FB0453 		mla	r3, r6, r4, r5
 179              	.LBB48:
 180              	.LBB49:
  79:Generated_Source\PSoC5/cyfitter_cfg.c **** }
 181              		.loc 1 79 0 is_stmt 1 discriminator 3
 182 001a 0021     		movs	r1, #0
 183 001c DA89     		ldrh	r2, [r3, #14]	@ unaligned
 184 001e D3F80A00 		ldr	r0, [r3, #10]	@ unaligned
 185 0022 0134     		adds	r4, r4, #1
 186              	.LVL10:
 187 0024 FFF7FEFF 		bl	memset
 188              	.LVL11:
 189              	.LBE49:
 190              	.LBE48:
 191              	.LBE50:
 468:Generated_Source\PSoC5/cyfitter_cfg.c **** 		{
 192              		.loc 1 468 0 discriminator 3
 193 0028 092C     		cmp	r4, #9
 194 002a F4D1     		bne	.L16
 195 002c 7948     		ldr	r0, .L30+8
 196              	.LBB51:
 197              	.LBB52:
 199:Generated_Source\PSoC5/cyfitter_cfg.c **** 	{
 198              		.loc 1 199 0
 199 002e 7A4D     		ldr	r5, .L30+12
 200              	.LBE52:
 201              	.LBE51:
 202 0030 0024     		movs	r4, #0
 203              	.LVL12:
 204              	.L19:
 205              	.LBB55:
 206              	.LBB54:
 207              	.LBB53:
 201:Generated_Source\PSoC5/cyfitter_cfg.c **** 		uint8 count = (uint8)baseAddr;
 208              		.loc 1 201 0
ARM GAS  C:\Users\THOMPS~1\AppData\Local\Temp\ccOrtDsn.s 			page 13


 209 0032 50F8041F 		ldr	r1, [r0, #4]!
 210              	.LVL13:
 211 0036 04F11053 		add	r3, r4, #603979776
 212 003a 03F12C02 		add	r2, r3, #44
 203:Generated_Source\PSoC5/cyfitter_cfg.c **** 		while (count != 0u)
 213              		.loc 1 203 0
 214 003e 21F0FF06 		bic	r6, r1, #255
 215              	.LVL14:
 216 0042 2D33     		adds	r3, r3, #45
 217 0044 C9B2     		uxtb	r1, r1
 218 0046 0B44     		add	r3, r3, r1
 219 0048 5200     		lsls	r2, r2, #1
 220 004a 5B00     		lsls	r3, r3, #1
 221              	.LVL15:
 222              	.L17:
 223 004c 0232     		adds	r2, r2, #2
 204:Generated_Source\PSoC5/cyfitter_cfg.c **** 		{
 224              		.loc 1 204 0
 225 004e 9A42     		cmp	r2, r3
 226 0050 06D0     		beq	.L29
 206:Generated_Source\PSoC5/cyfitter_cfg.c **** 			j++;
 227              		.loc 1 206 0
 228 0052 12F8027C 		ldrb	r7, [r2, #-2]	@ zero_extendqisi2
 229 0056 12F801EC 		ldrb	lr, [r2, #-1]	@ zero_extendqisi2
 230 005a 07F806E0 		strb	lr, [r7, r6]
 231 005e F5E7     		b	.L17
 232              	.L29:
 233              	.LBE53:
 199:Generated_Source\PSoC5/cyfitter_cfg.c **** 	{
 234              		.loc 1 199 0
 235 0060 A842     		cmp	r0, r5
 236 0062 0C44     		add	r4, r4, r1
 237              	.LVL16:
 238 0064 E5D1     		bne	.L19
 239              	.LVL17:
 240              	.LBE54:
 241              	.LBE55:
 472:Generated_Source\PSoC5/cyfitter_cfg.c **** 		}
 473:Generated_Source\PSoC5/cyfitter_cfg.c **** 
 474:Generated_Source\PSoC5/cyfitter_cfg.c **** 		cfg_write_bytes32(cy_cfg_addr_table, cy_cfg_data_table);
 475:Generated_Source\PSoC5/cyfitter_cfg.c **** 
 476:Generated_Source\PSoC5/cyfitter_cfg.c **** 		/* Perform normal device configuration. Order is not critical for these items. */
 477:Generated_Source\PSoC5/cyfitter_cfg.c **** 		CY_SET_XTND_REG8((void CYFAR *)(CYREG_DSM0_CR3), 0x0Au);
 242              		.loc 1 477 0
 243 0066 6D4B     		ldr	r3, .L30+16
 244 0068 0A22     		movs	r2, #10
 245 006a 1A70     		strb	r2, [r3]
 478:Generated_Source\PSoC5/cyfitter_cfg.c **** 		CY_SET_XTND_REG8((void CYFAR *)(CYREG_DSM0_CLK), 0x01u);
 246              		.loc 1 478 0
 247 006c 0122     		movs	r2, #1
 248 006e 83F88422 		strb	r2, [r3, #644]
 479:Generated_Source\PSoC5/cyfitter_cfg.c **** 
 480:Generated_Source\PSoC5/cyfitter_cfg.c **** 		/* Enable digital routing */
 481:Generated_Source\PSoC5/cyfitter_cfg.c **** 		CY_SET_XTND_REG8((void CYFAR *)CYREG_BCTL0_BANK_CTL, CY_GET_XTND_REG8((void CYFAR *)CYREG_BCTL0_B
 249              		.loc 1 481 0
 250 0072 6B4A     		ldr	r2, .L30+20
 482:Generated_Source\PSoC5/cyfitter_cfg.c **** 		CY_SET_XTND_REG8((void CYFAR *)CYREG_BCTL1_BANK_CTL, CY_GET_XTND_REG8((void CYFAR *)CYREG_BCTL1_B
ARM GAS  C:\Users\THOMPS~1\AppData\Local\Temp\ccOrtDsn.s 			page 14


 483:Generated_Source\PSoC5/cyfitter_cfg.c **** 
 484:Generated_Source\PSoC5/cyfitter_cfg.c **** 		/* Enable UDB array */
 485:Generated_Source\PSoC5/cyfitter_cfg.c **** 		CY_SET_XTND_REG8((void CYFAR *)CYREG_PM_ACT_CFG0, CY_GET_XTND_REG8((void CYFAR *)CYREG_PM_ACT_CFG
 251              		.loc 1 485 0
 252 0074 6B4D     		ldr	r5, .L30+24
 481:Generated_Source\PSoC5/cyfitter_cfg.c **** 		CY_SET_XTND_REG8((void CYFAR *)CYREG_BCTL1_BANK_CTL, CY_GET_XTND_REG8((void CYFAR *)CYREG_BCTL1_B
 253              		.loc 1 481 0
 254 0076 1378     		ldrb	r3, [r2]	@ zero_extendqisi2
 255              	.LBE56:
 256              	.LBB57:
 257              	.LBB58:
  86:Generated_Source\PSoC5/cyfitter_cfg.c **** }
 258              		.loc 1 86 0
 259 0078 6B4C     		ldr	r4, .L30+28
 260              	.LBE58:
 261              	.LBE57:
 262              	.LBB60:
 481:Generated_Source\PSoC5/cyfitter_cfg.c **** 		CY_SET_XTND_REG8((void CYFAR *)CYREG_BCTL1_BANK_CTL, CY_GET_XTND_REG8((void CYFAR *)CYREG_BCTL1_B
 263              		.loc 1 481 0
 264 007a 43F00203 		orr	r3, r3, #2
 265 007e 1370     		strb	r3, [r2]
 482:Generated_Source\PSoC5/cyfitter_cfg.c **** 		CY_SET_XTND_REG8((void CYFAR *)CYREG_BCTL1_BANK_CTL, CY_GET_XTND_REG8((void CYFAR *)CYREG_BCTL1_B
 266              		.loc 1 482 0
 267 0080 137C     		ldrb	r3, [r2, #16]	@ zero_extendqisi2
 268              	.LBE60:
 269              	.LBB61:
 270              	.LBB62:
 258:Generated_Source\PSoC5/cyfitter_cfg.c **** 		CyDelayCycles(10u * 48u); /* Delay 10us based on 48MHz clock */
 271              		.loc 1 258 0
 272 0082 6A4F     		ldr	r7, .L30+32
 273              	.LBE62:
 274              	.LBE61:
 275              	.LBB74:
 482:Generated_Source\PSoC5/cyfitter_cfg.c **** 
 276              		.loc 1 482 0
 277 0084 43F00203 		orr	r3, r3, #2
 278 0088 1374     		strb	r3, [r2, #16]
 279              		.loc 1 485 0
 280 008a 2B78     		ldrb	r3, [r5]	@ zero_extendqisi2
 486:Generated_Source\PSoC5/cyfitter_cfg.c **** 		CY_SET_XTND_REG8((void CYFAR *)CYREG_PM_AVAIL_CR2, CY_GET_XTND_REG8((void CYFAR *)CYREG_PM_AVAIL_
 281              		.loc 1 486 0
 282 008c A2F58632 		sub	r2, r2, #68608
 485:Generated_Source\PSoC5/cyfitter_cfg.c **** 		CY_SET_XTND_REG8((void CYFAR *)CYREG_PM_AVAIL_CR2, CY_GET_XTND_REG8((void CYFAR *)CYREG_PM_AVAIL_
 283              		.loc 1 485 0
 284 0090 43F04003 		orr	r3, r3, #64
 285 0094 2B70     		strb	r3, [r5]
 286              		.loc 1 486 0
 287 0096 413A     		subs	r2, r2, #65
 288 0098 1378     		ldrb	r3, [r2]	@ zero_extendqisi2
 289              	.LBE74:
 290              	.LBB75:
 291              	.LBB67:
 253:Generated_Source\PSoC5/cyfitter_cfg.c **** 	/* Wait up to 250us for the PLL to lock */
 292              		.loc 1 253 0
 293 009a 1926     		movs	r6, #25
 294              	.LBE67:
 295              	.LBE75:
ARM GAS  C:\Users\THOMPS~1\AppData\Local\Temp\ccOrtDsn.s 			page 15


 296              	.LBB76:
 297              		.loc 1 486 0
 298 009c 43F01003 		orr	r3, r3, #16
 299 00a0 1370     		strb	r3, [r2]
 300              	.LVL18:
 301              	.LBE76:
 302              	.LBB77:
 303              	.LBB78:
  86:Generated_Source\PSoC5/cyfitter_cfg.c **** }
 304              		.loc 1 86 0
 305 00a2 634B     		ldr	r3, .L30+36
 306 00a4 03CB     		ldmia	r3!, {r0, r1}
 307 00a6 C2F8400D 		str	r0, [r2, #3392]	@ unaligned
 308 00aa C2F8441D 		str	r1, [r2, #3396]	@ unaligned
 309              	.LVL19:
 310              	.LBE78:
 311              	.LBE77:
 312              	.LBB79:
 313              	.LBB80:
 314 00ae 03CB     		ldmia	r3!, {r0, r1}
 315 00b0 C2F8500D 		str	r0, [r2, #3408]	@ unaligned
 316 00b4 C2F8541D 		str	r1, [r2, #3412]	@ unaligned
 317              	.LVL20:
 318              	.LBE80:
 319              	.LBE79:
 320              	.LBB81:
 321              	.LBB59:
 322 00b8 93E80700 		ldmia	r3, {r0, r1, r2}
 323 00bc 03C4     		stmia	r4!, {r0, r1}
 324 00be 2280     		strh	r2, [r4]	@ movhi
 325              	.LVL21:
 326              	.LBE59:
 327              	.LBE81:
 328              	.LBB82:
 329              	.LBB83:
 330 00c0 5C4A     		ldr	r2, .L30+40
 331 00c2 0C33     		adds	r3, r3, #12
 332 00c4 03CB     		ldmia	r3!, {r0, r1}
 333 00c6 1060     		str	r0, [r2]	@ unaligned
 334 00c8 5160     		str	r1, [r2, #4]	@ unaligned
 335              	.LVL22:
 336              	.LBE83:
 337              	.LBE82:
 338              	.LBB84:
 339              	.LBB85:
 340 00ca 03CB     		ldmia	r3!, {r0, r1}
 341 00cc 5162     		str	r1, [r2, #36]	@ unaligned
 342              	.LVL23:
 343              	.LBE85:
 344              	.LBE84:
 487:Generated_Source\PSoC5/cyfitter_cfg.c **** 	}
 488:Generated_Source\PSoC5/cyfitter_cfg.c **** 
 489:Generated_Source\PSoC5/cyfitter_cfg.c **** 
 490:Generated_Source\PSoC5/cyfitter_cfg.c **** 	/* Perform second pass device configuration. These items must be configured in specific order afte
 491:Generated_Source\PSoC5/cyfitter_cfg.c **** 	CYCONFIGCPY((void CYFAR *)(CYREG_PRT0_DM0), (const void CYFAR *)(BS_IOPINS0_0_VAL), 8u);
 492:Generated_Source\PSoC5/cyfitter_cfg.c **** 	CYCONFIGCPY((void CYFAR *)(CYREG_PRT1_DM0), (const void CYFAR *)(BS_IOPINS0_1_VAL), 8u);
 493:Generated_Source\PSoC5/cyfitter_cfg.c **** 	CYCONFIGCPY((void CYFAR *)(CYREG_PRT2_DR), (const void CYFAR *)(BS_IOPINS0_2_VAL), 10u);
ARM GAS  C:\Users\THOMPS~1\AppData\Local\Temp\ccOrtDsn.s 			page 16


 494:Generated_Source\PSoC5/cyfitter_cfg.c **** 	CYCONFIGCPY((void CYFAR *)(CYREG_PRT3_DM0), (const void CYFAR *)(BS_IOPINS0_3_VAL), 8u);
 495:Generated_Source\PSoC5/cyfitter_cfg.c **** 	CYCONFIGCPY((void CYFAR *)(CYREG_PRT5_DM0), (const void CYFAR *)(BS_IOPINS0_5_VAL), 8u);
 496:Generated_Source\PSoC5/cyfitter_cfg.c **** 	/* Switch Boost to the precision bandgap reference from its internal reference */
 497:Generated_Source\PSoC5/cyfitter_cfg.c **** 	CY_SET_REG8((void CYXDATA *)CYREG_BOOST_CR2, (CY_GET_REG8((void CYXDATA *)CYREG_BOOST_CR2) | 0x08u
 345              		.loc 1 497 0
 346 00ce 5A49     		ldr	r1, .L30+44
 347              	.LBB87:
 348              	.LBB86:
  86:Generated_Source\PSoC5/cyfitter_cfg.c **** }
 349              		.loc 1 86 0
 350 00d0 1062     		str	r0, [r2, #32]	@ unaligned
 351              	.LBE86:
 352              	.LBE87:
 353              		.loc 1 497 0
 354 00d2 0A78     		ldrb	r2, [r1]	@ zero_extendqisi2
 355              	.LBB88:
 356              	.LBB68:
 237:Generated_Source\PSoC5/cyfitter_cfg.c **** 	CY_SET_XTND_REG8((void CYFAR *)(CYREG_CLKDIST_DCFG0_CFG0 + 0x2u), 0x50u);
 357              		.loc 1 237 0
 358 00d4 0024     		movs	r4, #0
 359              	.LBE68:
 360              	.LBE88:
 361              		.loc 1 497 0
 362 00d6 42F00802 		orr	r2, r2, #8
 363 00da 0A70     		strb	r2, [r1]
 498:Generated_Source\PSoC5/cyfitter_cfg.c **** 
 499:Generated_Source\PSoC5/cyfitter_cfg.c **** 	/* Set Flash Cycles based on max possible frequency in case a glitch occurs during ClockSetup(). *
 500:Generated_Source\PSoC5/cyfitter_cfg.c **** 	CY_SET_XTND_REG8((void CYFAR *)(CYREG_CACHE_CC_CTL), (((CYDEV_INSTRUCT_CACHE_ENABLED) != 0) ? 0x61
 364              		.loc 1 500 0
 365 00dc 574A     		ldr	r2, .L30+48
 366 00de 6121     		movs	r1, #97
 367 00e0 1170     		strb	r1, [r2]
 368              	.LBB89:
 369              	.LBB69:
 237:Generated_Source\PSoC5/cyfitter_cfg.c **** 	CY_SET_XTND_REG8((void CYFAR *)(CYREG_CLKDIST_DCFG0_CFG0 + 0x2u), 0x50u);
 370              		.loc 1 237 0
 371 00e2 A2F5F062 		sub	r2, r2, #1920
 238:Generated_Source\PSoC5/cyfitter_cfg.c **** 
 372              		.loc 1 238 0
 373 00e6 5021     		movs	r1, #80
 237:Generated_Source\PSoC5/cyfitter_cfg.c **** 	CY_SET_XTND_REG8((void CYFAR *)(CYREG_CLKDIST_DCFG0_CFG0 + 0x2u), 0x50u);
 374              		.loc 1 237 0
 375 00e8 1480     		strh	r4, [r2]	@ movhi
 238:Generated_Source\PSoC5/cyfitter_cfg.c **** 
 376              		.loc 1 238 0
 377 00ea 9170     		strb	r1, [r2, #2]
 378              	.LVL24:
 379              	.LBB63:
 380              	.LBB64:
  86:Generated_Source\PSoC5/cyfitter_cfg.c **** }
 381              		.loc 1 86 0
 382 00ec 93E80300 		ldmia	r3, {r0, r1}
 383 00f0 8032     		adds	r2, r2, #128
 384              	.LBE64:
 385              	.LBE63:
 244:Generated_Source\PSoC5/cyfitter_cfg.c **** 	CY_SET_XTND_REG8((void CYFAR *)(CYREG_CLKDIST_CR), 0x08u);
 386              		.loc 1 244 0
ARM GAS  C:\Users\THOMPS~1\AppData\Local\Temp\ccOrtDsn.s 			page 17


 387 00f2 534B     		ldr	r3, .L30+52
 388              	.LBB66:
 389              	.LBB65:
  86:Generated_Source\PSoC5/cyfitter_cfg.c **** }
 390              		.loc 1 86 0
 391 00f4 82E80300 		stmia	r2, {r0, r1}
 392              	.LVL25:
 393              	.LBE65:
 394              	.LBE66:
 244:Generated_Source\PSoC5/cyfitter_cfg.c **** 	CY_SET_XTND_REG8((void CYFAR *)(CYREG_CLKDIST_CR), 0x08u);
 395              		.loc 1 244 0
 396 00f8 0222     		movs	r2, #2
 397 00fa 1A70     		strb	r2, [r3]
 248:Generated_Source\PSoC5/cyfitter_cfg.c **** 	CY_SET_XTND_REG8((void CYFAR *)(CYREG_IMO_TR1), (CY_GET_XTND_REG8((void CYFAR *)CYREG_FLSHID_CUST_
 398              		.loc 1 248 0
 399 00fc 0321     		movs	r1, #3
 245:Generated_Source\PSoC5/cyfitter_cfg.c **** 
 400              		.loc 1 245 0
 401 00fe 0822     		movs	r2, #8
 402 0100 4FF04023 		mov	r3, #1073758208
 403 0104 1A70     		strb	r2, [r3]
 248:Generated_Source\PSoC5/cyfitter_cfg.c **** 	CY_SET_XTND_REG8((void CYFAR *)(CYREG_IMO_TR1), (CY_GET_XTND_REG8((void CYFAR *)CYREG_FLSHID_CUST_
 404              		.loc 1 248 0
 405 0106 83F80012 		strb	r1, [r3, #512]
 249:Generated_Source\PSoC5/cyfitter_cfg.c **** 
 406              		.loc 1 249 0
 407 010a 4E4B     		ldr	r3, .L30+56
 408 010c 4E49     		ldr	r1, .L30+60
 409 010e 1B78     		ldrb	r3, [r3]	@ zero_extendqisi2
 410 0110 DBB2     		uxtb	r3, r3
 411 0112 0B70     		strb	r3, [r1]
 252:Generated_Source\PSoC5/cyfitter_cfg.c **** 	CY_SET_XTND_REG16((void CYFAR *)(CYREG_FASTCLK_PLL_CFG0), 0x1251u);
 412              		.loc 1 252 0
 413 0114 4D4B     		ldr	r3, .L30+64
 414 0116 1A80     		strh	r2, [r3]	@ movhi
 253:Generated_Source\PSoC5/cyfitter_cfg.c **** 	/* Wait up to 250us for the PLL to lock */
 415              		.loc 1 253 0
 416 0118 41F25122 		movw	r2, #4689
 417 011c 23F8022C 		strh	r2, [r3, #-2]	@ movhi
 418              	.LVL26:
 419              	.L21:
 258:Generated_Source\PSoC5/cyfitter_cfg.c **** 		CyDelayCycles(10u * 48u); /* Delay 10us based on 48MHz clock */
 420              		.loc 1 258 0
 421 0120 3B78     		ldrb	r3, [r7]	@ zero_extendqisi2
 259:Generated_Source\PSoC5/cyfitter_cfg.c **** 	}
 422              		.loc 1 259 0
 423 0122 4FF4F070 		mov	r0, #480
 258:Generated_Source\PSoC5/cyfitter_cfg.c **** 		CyDelayCycles(10u * 48u); /* Delay 10us based on 48MHz clock */
 424              		.loc 1 258 0
 425 0126 03F00103 		and	r3, r3, #1
 426 012a 43EA4404 		orr	r4, r3, r4, lsl #1
 427              	.LVL27:
 259:Generated_Source\PSoC5/cyfitter_cfg.c **** 	}
 428              		.loc 1 259 0
 429 012e FFF7FEFF 		bl	CyDelayCycles
 430              	.LVL28:
 256:Generated_Source\PSoC5/cyfitter_cfg.c **** 	{ 
ARM GAS  C:\Users\THOMPS~1\AppData\Local\Temp\ccOrtDsn.s 			page 18


 431              		.loc 1 256 0
 432 0132 013E     		subs	r6, r6, #1
 433              	.LVL29:
 258:Generated_Source\PSoC5/cyfitter_cfg.c **** 		CyDelayCycles(10u * 48u); /* Delay 10us based on 48MHz clock */
 434              		.loc 1 258 0
 435 0134 04F00304 		and	r4, r4, #3
 436              	.LVL30:
 256:Generated_Source\PSoC5/cyfitter_cfg.c **** 	{ 
 437              		.loc 1 256 0
 438 0138 66D0     		beq	.L20
 439              	.LVL31:
 440 013a 032C     		cmp	r4, #3
 441 013c F0D1     		bne	.L21
 268:Generated_Source\PSoC5/cyfitter_cfg.c **** 	CY_SET_XTND_REG8((void CYFAR *)(CYREG_CLKDIST_MSTR0), 0x07u);
 442              		.loc 1 268 0
 443 013e 444B     		ldr	r3, .L30+68
 444 0140 4FF48072 		mov	r2, #256
 445 0144 1A80     		strh	r2, [r3]	@ movhi
 270:Generated_Source\PSoC5/cyfitter_cfg.c **** 	CY_SET_XTND_REG8((void CYFAR *)(CYREG_CLKDIST_BCFG2), 0x48u);
 446              		.loc 1 270 0
 447 0146 4349     		ldr	r1, .L30+72
 269:Generated_Source\PSoC5/cyfitter_cfg.c **** 	CY_SET_XTND_REG8((void CYFAR *)(CYREG_CLKDIST_BCFG0), 0x00u);
 448              		.loc 1 269 0
 449 0148 0722     		movs	r2, #7
 450 014a 1A70     		strb	r2, [r3]
 271:Generated_Source\PSoC5/cyfitter_cfg.c **** 	CY_SET_XTND_REG8((void CYFAR *)(CYREG_CLKDIST_MSTR0), 0x00u);
 451              		.loc 1 271 0
 452 014c 4820     		movs	r0, #72
 270:Generated_Source\PSoC5/cyfitter_cfg.c **** 	CY_SET_XTND_REG8((void CYFAR *)(CYREG_CLKDIST_BCFG2), 0x48u);
 453              		.loc 1 270 0
 454 014e 0022     		movs	r2, #0
 455 0150 0A70     		strb	r2, [r1]
 271:Generated_Source\PSoC5/cyfitter_cfg.c **** 	CY_SET_XTND_REG8((void CYFAR *)(CYREG_CLKDIST_MSTR0), 0x00u);
 456              		.loc 1 271 0
 457 0152 8870     		strb	r0, [r1, #2]
 272:Generated_Source\PSoC5/cyfitter_cfg.c **** 	CY_SET_XTND_REG8((void CYFAR *)(CYREG_CLKDIST_LD), 0x02u);
 458              		.loc 1 272 0
 459 0154 1A70     		strb	r2, [r3]
 274:Generated_Source\PSoC5/cyfitter_cfg.c **** 
 460              		.loc 1 274 0
 461 0156 0421     		movs	r1, #4
 273:Generated_Source\PSoC5/cyfitter_cfg.c **** 	CY_SET_XTND_REG8((void CYFAR *)(CYREG_CLKDIST_DLY1), 0x04u);
 462              		.loc 1 273 0
 463 0158 0222     		movs	r2, #2
 464 015a 03F8032C 		strb	r2, [r3, #-3]
 274:Generated_Source\PSoC5/cyfitter_cfg.c **** 
 465              		.loc 1 274 0
 466 015e D971     		strb	r1, [r3, #7]
 276:Generated_Source\PSoC5/cyfitter_cfg.c **** 	CY_SET_XTND_REG8((void CYFAR *)(CYREG_PM_ACT_CFG1), ((CY_GET_XTND_REG8((void CYFAR *)CYREG_PM_ACT_
 467              		.loc 1 276 0
 468 0160 3D49     		ldr	r1, .L30+76
 469              	.LBE69:
 470              	.LBE89:
 471              	.LBB90:
 472              	.LBB91:
 304:Generated_Source\PSoC5/cyfitter_cfg.c **** 	uint8 cr5 = CY_GET_XTND_REG8((void CYFAR *)(CYREG_RESET_CR5));
 473              		.loc 1 304 0
ARM GAS  C:\Users\THOMPS~1\AppData\Local\Temp\ccOrtDsn.s 			page 19


 474 0162 3E4F     		ldr	r7, .L30+80
 475              	.LBE91:
 476              	.LBE90:
 477              	.LBB96:
 478              	.LBB70:
 276:Generated_Source\PSoC5/cyfitter_cfg.c **** 	CY_SET_XTND_REG8((void CYFAR *)(CYREG_PM_ACT_CFG1), ((CY_GET_XTND_REG8((void CYFAR *)CYREG_PM_ACT_
 479              		.loc 1 276 0
 480 0164 0B78     		ldrb	r3, [r1]	@ zero_extendqisi2
 481              	.LBE70:
 482              	.LBE96:
 483              	.LBB97:
 484              	.LBB92:
 305:Generated_Source\PSoC5/cyfitter_cfg.c **** 	CY_SET_XTND_REG8((void CYFAR *)(CYREG_BG_DFT0), (bg_xover_inl_trim & 0x07u));
 485              		.loc 1 305 0
 486 0166 DFF81481 		ldr	r8, .L30+112
 487              	.LBE92:
 488              	.LBE97:
 489              	.LBB98:
 490              	.LBB71:
 276:Generated_Source\PSoC5/cyfitter_cfg.c **** 	CY_SET_XTND_REG8((void CYFAR *)(CYREG_PM_ACT_CFG1), ((CY_GET_XTND_REG8((void CYFAR *)CYREG_PM_ACT_
 491              		.loc 1 276 0
 492 016a 43F00103 		orr	r3, r3, #1
 493 016e 0B70     		strb	r3, [r1]
 277:Generated_Source\PSoC5/cyfitter_cfg.c **** 	CY_SET_XTND_REG8((void CYFAR *)(CYREG_PM_ACT_CFG0), ((CY_GET_XTND_REG8((void CYFAR *)CYREG_PM_ACT_
 494              		.loc 1 277 0
 495 0170 11F8013C 		ldrb	r3, [r1, #-1]	@ zero_extendqisi2
 496              	.LBE71:
 497              	.LBE98:
 498              	.LBB99:
 499              	.LBB93:
 306:Generated_Source\PSoC5/cyfitter_cfg.c **** 	CY_SET_XTND_REG8((void CYFAR *)(CYREG_BG_DFT1), ((bg_xover_inl_trim >> 4) & 0x0Fu));
 500              		.loc 1 306 0
 501 0174 3A48     		ldr	r0, .L30+84
 502              	.LBE93:
 503              	.LBE99:
 504              	.LBB100:
 505              	.LBB72:
 277:Generated_Source\PSoC5/cyfitter_cfg.c **** 	CY_SET_XTND_REG8((void CYFAR *)(CYREG_PM_ACT_CFG0), ((CY_GET_XTND_REG8((void CYFAR *)CYREG_PM_ACT_
 506              		.loc 1 277 0
 507 0176 43F00303 		orr	r3, r3, #3
 508 017a 01F8013C 		strb	r3, [r1, #-1]
 278:Generated_Source\PSoC5/cyfitter_cfg.c **** }
 509              		.loc 1 278 0
 510 017e 2B78     		ldrb	r3, [r5]	@ zero_extendqisi2
 511              	.LBE72:
 512              	.LBE100:
 501:Generated_Source\PSoC5/cyfitter_cfg.c **** 	/* Setup clocks based on selections from Clock DWR */
 502:Generated_Source\PSoC5/cyfitter_cfg.c **** 	ClockSetup();
 503:Generated_Source\PSoC5/cyfitter_cfg.c **** 	/* Set Flash Cycles based on newly configured 24.00MHz Bus Clock. */
 504:Generated_Source\PSoC5/cyfitter_cfg.c **** 	CY_SET_XTND_REG8((void CYFAR *)(CYREG_CACHE_CC_CTL), (((CYDEV_INSTRUCT_CACHE_ENABLED) != 0) ? 0x81
 513              		.loc 1 504 0
 514 0180 8121     		movs	r1, #129
 515              	.LBB101:
 516              	.LBB73:
 278:Generated_Source\PSoC5/cyfitter_cfg.c **** }
 517              		.loc 1 278 0
 518 0182 43F08003 		orr	r3, r3, #128
ARM GAS  C:\Users\THOMPS~1\AppData\Local\Temp\ccOrtDsn.s 			page 20


 519 0186 2B70     		strb	r3, [r5]
 520              	.LVL32:
 521              	.LBE73:
 522              	.LBE101:
 523              		.loc 1 504 0
 524 0188 2C4B     		ldr	r3, .L30+48
 525 018a 1970     		strb	r1, [r3]
 505:Generated_Source\PSoC5/cyfitter_cfg.c **** 	CY_SET_XTND_REG8((void CYFAR *)(CYREG_PANTHER_WAITPIPE), 0x01u);
 526              		.loc 1 505 0
 527 018c 03F5F723 		add	r3, r3, #505856
 528 0190 0121     		movs	r1, #1
 529 0192 0433     		adds	r3, r3, #4
 530 0194 1970     		strb	r1, [r3]
 531              	.LBB102:
 532              	.LBB94:
 303:Generated_Source\PSoC5/cyfitter_cfg.c **** 	uint8 cr4 = CY_GET_XTND_REG8((void CYFAR *)(CYREG_RESET_CR4));
 533              		.loc 1 303 0
 534 0196 334B     		ldr	r3, .L30+88
 535 0198 1B78     		ldrb	r3, [r3]	@ zero_extendqisi2
 304:Generated_Source\PSoC5/cyfitter_cfg.c **** 	uint8 cr5 = CY_GET_XTND_REG8((void CYFAR *)(CYREG_RESET_CR5));
 536              		.loc 1 304 0
 537 019a 3C78     		ldrb	r4, [r7]	@ zero_extendqisi2
 303:Generated_Source\PSoC5/cyfitter_cfg.c **** 	uint8 cr4 = CY_GET_XTND_REG8((void CYFAR *)(CYREG_RESET_CR4));
 538              		.loc 1 303 0
 539 019c DBB2     		uxtb	r3, r3
 540              	.LVL33:
 305:Generated_Source\PSoC5/cyfitter_cfg.c **** 	CY_SET_XTND_REG8((void CYFAR *)(CYREG_BG_DFT0), (bg_xover_inl_trim & 0x07u));
 541              		.loc 1 305 0
 542 019e 98F80060 		ldrb	r6, [r8]	@ zero_extendqisi2
 304:Generated_Source\PSoC5/cyfitter_cfg.c **** 	uint8 cr5 = CY_GET_XTND_REG8((void CYFAR *)(CYREG_RESET_CR5));
 543              		.loc 1 304 0
 544 01a2 E4B2     		uxtb	r4, r4
 545              	.LVL34:
 306:Generated_Source\PSoC5/cyfitter_cfg.c **** 	CY_SET_XTND_REG8((void CYFAR *)(CYREG_BG_DFT1), ((bg_xover_inl_trim >> 4) & 0x0Fu));
 546              		.loc 1 306 0
 547 01a4 03F0070E 		and	lr, r3, #7
 307:Generated_Source\PSoC5/cyfitter_cfg.c **** 	/* Disable PRES while setting up SAR voltage reference */
 548              		.loc 1 307 0
 549 01a8 1B09     		lsrs	r3, r3, #4
 550              	.LVL35:
 306:Generated_Source\PSoC5/cyfitter_cfg.c **** 	CY_SET_XTND_REG8((void CYFAR *)(CYREG_BG_DFT1), ((bg_xover_inl_trim >> 4) & 0x0Fu));
 551              		.loc 1 306 0
 552 01aa 80F800E0 		strb	lr, [r0]
 305:Generated_Source\PSoC5/cyfitter_cfg.c **** 	CY_SET_XTND_REG8((void CYFAR *)(CYREG_BG_DFT0), (bg_xover_inl_trim & 0x07u));
 553              		.loc 1 305 0
 554 01ae F6B2     		uxtb	r6, r6
 555              	.LVL36:
 307:Generated_Source\PSoC5/cyfitter_cfg.c **** 	/* Disable PRES while setting up SAR voltage reference */
 556              		.loc 1 307 0
 557 01b0 4370     		strb	r3, [r0, #1]
 309:Generated_Source\PSoC5/cyfitter_cfg.c **** 	CY_SET_XTND_REG8((void CYFAR *)(CYREG_RESET_CR5), (cr5 | 0x03u));
 558              		.loc 1 309 0
 559 01b2 44F00303 		orr	r3, r4, #3
 560 01b6 3B70     		strb	r3, [r7]
 310:Generated_Source\PSoC5/cyfitter_cfg.c **** 	CY_SET_XTND_REG16((void CYFAR *)CYREG_PRT0_AMUX, 0x0A40u);
 561              		.loc 1 310 0
 562 01b8 46F00303 		orr	r3, r6, #3
ARM GAS  C:\Users\THOMPS~1\AppData\Local\Temp\ccOrtDsn.s 			page 21


 563 01bc 88F80030 		strb	r3, [r8]
 311:Generated_Source\PSoC5/cyfitter_cfg.c **** 	CY_SET_XTND_REG8((void CYFAR *)CYREG_PRT3_AG, 0x02u);
 564              		.loc 1 311 0
 565 01c0 294B     		ldr	r3, .L30+92
 566 01c2 4FF42460 		mov	r0, #2624
 567 01c6 1880     		strh	r0, [r3]	@ movhi
 312:Generated_Source\PSoC5/cyfitter_cfg.c **** 	CY_SET_XTND_REG8((void CYFAR *)CYREG_SAR0_CSR1, 0x80u);
 568              		.loc 1 312 0
 569 01c8 83F83120 		strb	r2, [r3, #49]
 313:Generated_Source\PSoC5/cyfitter_cfg.c **** 	CY_SET_XTND_REG8((void CYFAR *)CYREG_DAC0_SW3, 0x01u);
 570              		.loc 1 313 0
 571 01cc 8022     		movs	r2, #128
 572 01ce 83F8F527 		strb	r2, [r3, #2037]
 314:Generated_Source\PSoC5/cyfitter_cfg.c **** 	CY_SET_XTND_REG8((void CYFAR *)CYREG_DAC3_SW0, 0x20u);
 573              		.loc 1 314 0
 574 01d2 83F87719 		strb	r1, [r3, #2423]
 315:Generated_Source\PSoC5/cyfitter_cfg.c **** 	CY_SET_XTND_REG8((void CYFAR *)CYREG_DSM0_SW0, 0x20u);
 575              		.loc 1 315 0
 576 01d6 2549     		ldr	r1, .L30+96
 577 01d8 2023     		movs	r3, #32
 578 01da 0B70     		strb	r3, [r1]
 316:Generated_Source\PSoC5/cyfitter_cfg.c **** 	CY_SET_XTND_REG8((void CYFAR *)CYREG_SAR0_SW0, 0x80u);
 579              		.loc 1 316 0
 580 01dc 81F86830 		strb	r3, [r1, #104]
 317:Generated_Source\PSoC5/cyfitter_cfg.c **** 	CY_SET_XTND_REG8((void CYFAR *)CYREG_SAR0_SW3, 0x20u);
 581              		.loc 1 317 0
 582 01e0 81F88820 		strb	r2, [r1, #136]
 318:Generated_Source\PSoC5/cyfitter_cfg.c **** 	CyDelayUs(10u); /* Allow vref to settle before re-enabling PRES */
 583              		.loc 1 318 0
 584 01e4 224A     		ldr	r2, .L30+100
 319:Generated_Source\PSoC5/cyfitter_cfg.c **** 	CY_SET_XTND_REG8((void CYFAR *)(CYREG_RESET_CR5), (cr5));
 585              		.loc 1 319 0
 586 01e6 0A20     		movs	r0, #10
 318:Generated_Source\PSoC5/cyfitter_cfg.c **** 	CyDelayUs(10u); /* Allow vref to settle before re-enabling PRES */
 587              		.loc 1 318 0
 588 01e8 1370     		strb	r3, [r2]
 319:Generated_Source\PSoC5/cyfitter_cfg.c **** 	CY_SET_XTND_REG8((void CYFAR *)(CYREG_RESET_CR5), (cr5));
 589              		.loc 1 319 0
 590 01ea FFF7FEFF 		bl	CyDelayUs
 591              	.LVL37:
 322:Generated_Source\PSoC5/cyfitter_cfg.c **** }
 592              		.loc 1 322 0
 593 01ee 214B     		ldr	r3, .L30+104
 320:Generated_Source\PSoC5/cyfitter_cfg.c **** 	CY_SET_XTND_REG8((void CYFAR *)(CYREG_RESET_CR4), (cr4));
 594              		.loc 1 320 0
 595 01f0 88F80060 		strb	r6, [r8]
 322:Generated_Source\PSoC5/cyfitter_cfg.c **** }
 596              		.loc 1 322 0
 597 01f4 4422     		movs	r2, #68
 321:Generated_Source\PSoC5/cyfitter_cfg.c **** 	CY_SET_XTND_REG8((void CYFAR *)CYREG_PUMP_CR0, 0x44u);
 598              		.loc 1 321 0
 599 01f6 3C70     		strb	r4, [r7]
 600              	.LBE94:
 601              	.LBE102:
 602              	.LBB103:
 603              	.LBB104:
  86:Generated_Source\PSoC5/cyfitter_cfg.c **** }
ARM GAS  C:\Users\THOMPS~1\AppData\Local\Temp\ccOrtDsn.s 			page 22


 604              		.loc 1 86 0
 605 01f8 1F4C     		ldr	r4, .L30+108
 606              	.LVL38:
 607              	.LBE104:
 608              	.LBE103:
 609              	.LBB106:
 610              	.LBB95:
 322:Generated_Source\PSoC5/cyfitter_cfg.c **** }
 611              		.loc 1 322 0
 612 01fa 1A70     		strb	r2, [r3]
 613              	.LVL39:
 614              	.LBE95:
 615              	.LBE106:
 616              	.LBB107:
 617              	.LBB105:
  86:Generated_Source\PSoC5/cyfitter_cfg.c **** }
 618              		.loc 1 86 0
 619 01fc 95E80F00 		ldmia	r5, {r0, r1, r2, r3}
 620 0200 07C4     		stmia	r4!, {r0, r1, r2}
 621 0202 2380     		strh	r3, [r4]	@ movhi
 622              	.LVL40:
 623 0204 BDE8F081 		pop	{r4, r5, r6, r7, r8, pc}
 624              	.LVL41:
 625              	.L20:
 626 0208 FEE7     		b	.L20
 627              	.L31:
 628 020a 00BF     		.align	2
 629              	.L30:
 630 020c E8460040 		.word	1073759976
 631 0210 00000000 		.word	.LANCHOR0
 632 0214 FCFFFF47 		.word	1207959548
 633 0218 54000048 		.word	1207959636
 634 021c 83580040 		.word	1073764483
 635 0220 03500140 		.word	1073827843
 636 0224 A0430040 		.word	1073759136
 637 0228 20510040 		.word	1073762592
 638 022c 25420040 		.word	1073758757
 639 0230 B0000048 		.word	1207959728
 640 0234 32510040 		.word	1073762610
 641 0238 22430040 		.word	1073759010
 642 023c 00480040 		.word	1073760256
 643 0240 00430040 		.word	1073758976
 644 0244 08010049 		.word	1224737032
 645 0248 A1460040 		.word	1073759905
 646 024c 22420040 		.word	1073758754
 647 0250 04400040 		.word	1073758212
 648 0254 06400040 		.word	1073758214
 649 0258 A2430040 		.word	1073759138
 650 025c F8460040 		.word	1073759992
 651 0260 6E580040 		.word	1073764462
 652 0264 CF010049 		.word	1224737231
 653 0268 0C510040 		.word	1073762572
 654 026c 985A0040 		.word	1073765016
 655 0270 235B0040 		.word	1073765155
 656 0274 76580040 		.word	1073764470
 657 0278 B0430040 		.word	1073759152
 658 027c F9460040 		.word	1073759993
ARM GAS  C:\Users\THOMPS~1\AppData\Local\Temp\ccOrtDsn.s 			page 23


 659              	.LBE105:
 660              	.LBE107:
 661              		.cfi_endproc
 662              	.LFE10:
 663              		.size	cyfitter_cfg, .-cyfitter_cfg
 664              		.global	LFOutADC_AMux__maskTable
 665              		.global	LFOutADC_AMux__addrTable
 666              		.section	.rodata
 667              		.align	2
 668              		.set	.LANCHOR0,. + 0
 669              		.type	LFOutADC_AMux__addrTable, %object
 670              		.size	LFOutADC_AMux__addrTable, 8
 671              	LFOutADC_AMux__addrTable:
 672 0000 035B0040 		.word	1073765123
 673 0004 24430040 		.word	1073759012
 674              		.type	LFOutADC_AMux__maskTable, %object
 675              		.size	LFOutADC_AMux__maskTable, 2
 676              	LFOutADC_AMux__maskTable:
 677 0008 40       		.byte	64
 678 0009 00       		.byte	0
 679              		.type	cfg_memset_list.5029, %object
 680              		.size	cfg_memset_list.5029, 54
 681              	cfg_memset_list.5029:
 682 000a 40510040 		.4byte	1073762624
 683 000e 1000     		.2byte	16
 684 0010 60510040 		.4byte	1073762656
 685 0014 1000     		.2byte	16
 686 0016 C0510040 		.4byte	1073762752
 687 001a 1000     		.2byte	16
 688 001c F0510040 		.4byte	1073762800
 689 0020 1000     		.2byte	16
 690 0022 00000140 		.4byte	1073807360
 691 0026 0010     		.2byte	4096
 692 0028 00140140 		.4byte	1073812480
 693 002c 0008     		.2byte	2048
 694 002e 00400140 		.4byte	1073823744
 695 0032 000A     		.2byte	2560
 696 0034 004C0140 		.4byte	1073826816
 697 0038 0002     		.2byte	512
 698 003a 00500140 		.4byte	1073827840
 699 003e 2000     		.2byte	32
 700              		.text
 701              	.Letext0:
 702              		.file 2 "c:\\program files (x86)\\cypress\\psoc creator\\4.2\\psoc creator\\import\\gnu\\arm\\5.4.
 703              		.file 3 "Generated_Source\\PSoC5\\cytypes.h"
 704              		.file 4 "Generated_Source\\PSoC5\\CyLib.h"