ARM GAS  C:\Users\THOMPS~1\AppData\Local\Temp\cc1H8Boe.s 			page 1


   1              		.syntax unified
   2              		.cpu cortex-m3
   3              		.fpu softvfp
   4              		.eabi_attribute 20, 1
   5              		.eabi_attribute 21, 1
   6              		.eabi_attribute 23, 3
   7              		.eabi_attribute 24, 1
   8              		.eabi_attribute 25, 1
   9              		.eabi_attribute 26, 1
  10              		.eabi_attribute 30, 4
  11              		.eabi_attribute 34, 1
  12              		.eabi_attribute 18, 4
  13              		.thumb
  14              		.syntax unified
  15              		.file	"fineDAC_PM.c"
  16              		.text
  17              	.Ltext0:
  18              		.cfi_sections	.debug_frame
  19              		.section	.text.fineDAC_SaveConfig,"ax",%progbits
  20              		.align	1
  21              		.global	fineDAC_SaveConfig
  22              		.thumb
  23              		.thumb_func
  24              		.type	fineDAC_SaveConfig, %function
  25              	fineDAC_SaveConfig:
  26              	.LFB0:
  27              		.file 1 "Generated_Source\\PSoC5\\fineDAC_PM.c"
   1:Generated_Source\PSoC5/fineDAC_PM.c **** /*******************************************************************************
   2:Generated_Source\PSoC5/fineDAC_PM.c **** * File Name: fineDAC_PM.c  
   3:Generated_Source\PSoC5/fineDAC_PM.c **** * Version 1.90
   4:Generated_Source\PSoC5/fineDAC_PM.c **** *
   5:Generated_Source\PSoC5/fineDAC_PM.c **** * Description:
   6:Generated_Source\PSoC5/fineDAC_PM.c **** *  This file provides the power management source code to API for the
   7:Generated_Source\PSoC5/fineDAC_PM.c **** *  VDAC8.  
   8:Generated_Source\PSoC5/fineDAC_PM.c **** *
   9:Generated_Source\PSoC5/fineDAC_PM.c **** * Note:
  10:Generated_Source\PSoC5/fineDAC_PM.c **** *  None
  11:Generated_Source\PSoC5/fineDAC_PM.c **** *
  12:Generated_Source\PSoC5/fineDAC_PM.c **** ********************************************************************************
  13:Generated_Source\PSoC5/fineDAC_PM.c **** * Copyright 2008-2012, Cypress Semiconductor Corporation.  All rights reserved.
  14:Generated_Source\PSoC5/fineDAC_PM.c **** * You may use this file only in accordance with the license, terms, conditions, 
  15:Generated_Source\PSoC5/fineDAC_PM.c **** * disclaimers, and limitations in the end user license agreement accompanying 
  16:Generated_Source\PSoC5/fineDAC_PM.c **** * the software package with which this file was provided.
  17:Generated_Source\PSoC5/fineDAC_PM.c **** *******************************************************************************/
  18:Generated_Source\PSoC5/fineDAC_PM.c **** 
  19:Generated_Source\PSoC5/fineDAC_PM.c **** #include "fineDAC.h"
  20:Generated_Source\PSoC5/fineDAC_PM.c **** 
  21:Generated_Source\PSoC5/fineDAC_PM.c **** static fineDAC_backupStruct fineDAC_backup;
  22:Generated_Source\PSoC5/fineDAC_PM.c **** 
  23:Generated_Source\PSoC5/fineDAC_PM.c **** 
  24:Generated_Source\PSoC5/fineDAC_PM.c **** /*******************************************************************************
  25:Generated_Source\PSoC5/fineDAC_PM.c **** * Function Name: fineDAC_SaveConfig
  26:Generated_Source\PSoC5/fineDAC_PM.c **** ********************************************************************************
  27:Generated_Source\PSoC5/fineDAC_PM.c **** * Summary:
  28:Generated_Source\PSoC5/fineDAC_PM.c **** *  Save the current user configuration
  29:Generated_Source\PSoC5/fineDAC_PM.c **** *
  30:Generated_Source\PSoC5/fineDAC_PM.c **** * Parameters:  
ARM GAS  C:\Users\THOMPS~1\AppData\Local\Temp\cc1H8Boe.s 			page 2


  31:Generated_Source\PSoC5/fineDAC_PM.c **** *  void  
  32:Generated_Source\PSoC5/fineDAC_PM.c **** *
  33:Generated_Source\PSoC5/fineDAC_PM.c **** * Return: 
  34:Generated_Source\PSoC5/fineDAC_PM.c **** *  void
  35:Generated_Source\PSoC5/fineDAC_PM.c **** *
  36:Generated_Source\PSoC5/fineDAC_PM.c **** *******************************************************************************/
  37:Generated_Source\PSoC5/fineDAC_PM.c **** void fineDAC_SaveConfig(void) 
  38:Generated_Source\PSoC5/fineDAC_PM.c **** {
  28              		.loc 1 38 0
  29              		.cfi_startproc
  30              		@ args = 0, pretend = 0, frame = 0
  31              		@ frame_needed = 0, uses_anonymous_args = 0
  32              		@ link register save eliminated.
  39:Generated_Source\PSoC5/fineDAC_PM.c ****     if (!((fineDAC_CR1 & fineDAC_SRC_MASK) == fineDAC_SRC_UDB))
  33              		.loc 1 39 0
  34 0000 044B     		ldr	r3, .L3
  35 0002 1B78     		ldrb	r3, [r3]	@ zero_extendqisi2
  36 0004 9B06     		lsls	r3, r3, #26
  40:Generated_Source\PSoC5/fineDAC_PM.c ****     {
  41:Generated_Source\PSoC5/fineDAC_PM.c ****         fineDAC_backup.data_value = fineDAC_Data;
  37              		.loc 1 41 0
  38 0006 5FBF     		itttt	pl
  39 0008 034B     		ldrpl	r3, .L3+4
  40 000a 1A78     		ldrbpl	r2, [r3]	@ zero_extendqisi2
  41 000c 034B     		ldrpl	r3, .L3+8
  42 000e 5A70     		strbpl	r2, [r3, #1]
  43 0010 7047     		bx	lr
  44              	.L4:
  45 0012 00BF     		.align	2
  46              	.L3:
  47 0014 2D580040 		.word	1073764397
  48 0018 835B0040 		.word	1073765251
  49 001c 00000000 		.word	.LANCHOR0
  50              		.cfi_endproc
  51              	.LFE0:
  52              		.size	fineDAC_SaveConfig, .-fineDAC_SaveConfig
  53              		.section	.text.fineDAC_RestoreConfig,"ax",%progbits
  54              		.align	1
  55              		.global	fineDAC_RestoreConfig
  56              		.thumb
  57              		.thumb_func
  58              		.type	fineDAC_RestoreConfig, %function
  59              	fineDAC_RestoreConfig:
  60              	.LFB1:
  42:Generated_Source\PSoC5/fineDAC_PM.c ****     }
  43:Generated_Source\PSoC5/fineDAC_PM.c **** }
  44:Generated_Source\PSoC5/fineDAC_PM.c **** 
  45:Generated_Source\PSoC5/fineDAC_PM.c **** 
  46:Generated_Source\PSoC5/fineDAC_PM.c **** /*******************************************************************************
  47:Generated_Source\PSoC5/fineDAC_PM.c **** * Function Name: fineDAC_RestoreConfig
  48:Generated_Source\PSoC5/fineDAC_PM.c **** ********************************************************************************
  49:Generated_Source\PSoC5/fineDAC_PM.c **** *
  50:Generated_Source\PSoC5/fineDAC_PM.c **** * Summary:
  51:Generated_Source\PSoC5/fineDAC_PM.c **** *  Restores the current user configuration.
  52:Generated_Source\PSoC5/fineDAC_PM.c **** *
  53:Generated_Source\PSoC5/fineDAC_PM.c **** * Parameters:  
  54:Generated_Source\PSoC5/fineDAC_PM.c **** *  void
ARM GAS  C:\Users\THOMPS~1\AppData\Local\Temp\cc1H8Boe.s 			page 3


  55:Generated_Source\PSoC5/fineDAC_PM.c **** *
  56:Generated_Source\PSoC5/fineDAC_PM.c **** * Return: 
  57:Generated_Source\PSoC5/fineDAC_PM.c **** *  void
  58:Generated_Source\PSoC5/fineDAC_PM.c **** *
  59:Generated_Source\PSoC5/fineDAC_PM.c **** *******************************************************************************/
  60:Generated_Source\PSoC5/fineDAC_PM.c **** void fineDAC_RestoreConfig(void) 
  61:Generated_Source\PSoC5/fineDAC_PM.c **** {
  61              		.loc 1 61 0
  62              		.cfi_startproc
  63              		@ args = 0, pretend = 0, frame = 0
  64              		@ frame_needed = 0, uses_anonymous_args = 0
  65              		@ link register save eliminated.
  62:Generated_Source\PSoC5/fineDAC_PM.c ****     if (!((fineDAC_CR1 & fineDAC_SRC_MASK) == fineDAC_SRC_UDB))
  66              		.loc 1 62 0
  67 0000 0C4B     		ldr	r3, .L9
  68 0002 1B78     		ldrb	r3, [r3]	@ zero_extendqisi2
  69 0004 9B06     		lsls	r3, r3, #26
  70 0006 13D4     		bmi	.L5
  63:Generated_Source\PSoC5/fineDAC_PM.c ****     {
  64:Generated_Source\PSoC5/fineDAC_PM.c ****         if((fineDAC_Strobe & fineDAC_STRB_MASK) == fineDAC_STRB_EN)
  71              		.loc 1 64 0
  72 0008 0B4B     		ldr	r3, .L9+4
  73 000a 0C48     		ldr	r0, .L9+8
  74 000c 1A78     		ldrb	r2, [r3]	@ zero_extendqisi2
  75 000e 0C49     		ldr	r1, .L9+12
  76 0010 12F0080F 		tst	r2, #8
  77 0014 0AD0     		beq	.L7
  78              	.LBB4:
  79              	.LBB5:
  65:Generated_Source\PSoC5/fineDAC_PM.c ****         {
  66:Generated_Source\PSoC5/fineDAC_PM.c ****             fineDAC_Strobe &= (uint8)(~fineDAC_STRB_MASK);
  80              		.loc 1 66 0
  81 0016 1A78     		ldrb	r2, [r3]	@ zero_extendqisi2
  82 0018 02F0F702 		and	r2, r2, #247
  83 001c 1A70     		strb	r2, [r3]
  67:Generated_Source\PSoC5/fineDAC_PM.c ****             fineDAC_Data = fineDAC_backup.data_value;
  84              		.loc 1 67 0
  85 001e 4278     		ldrb	r2, [r0, #1]	@ zero_extendqisi2
  86 0020 0A70     		strb	r2, [r1]
  68:Generated_Source\PSoC5/fineDAC_PM.c ****             fineDAC_Strobe |= fineDAC_STRB_EN;
  87              		.loc 1 68 0
  88 0022 1A78     		ldrb	r2, [r3]	@ zero_extendqisi2
  89 0024 42F00802 		orr	r2, r2, #8
  90 0028 1A70     		strb	r2, [r3]
  91 002a 7047     		bx	lr
  92              	.L7:
  93              	.LBE5:
  94              	.LBE4:
  69:Generated_Source\PSoC5/fineDAC_PM.c ****         }
  70:Generated_Source\PSoC5/fineDAC_PM.c ****         else
  71:Generated_Source\PSoC5/fineDAC_PM.c ****         {
  72:Generated_Source\PSoC5/fineDAC_PM.c ****             fineDAC_Data = fineDAC_backup.data_value;
  95              		.loc 1 72 0
  96 002c 4378     		ldrb	r3, [r0, #1]	@ zero_extendqisi2
  97 002e 0B70     		strb	r3, [r1]
  98              	.L5:
  99 0030 7047     		bx	lr
ARM GAS  C:\Users\THOMPS~1\AppData\Local\Temp\cc1H8Boe.s 			page 4


 100              	.L10:
 101 0032 00BF     		.align	2
 102              	.L9:
 103 0034 2D580040 		.word	1073764397
 104 0038 9F5A0040 		.word	1073765023
 105 003c 00000000 		.word	.LANCHOR0
 106 0040 835B0040 		.word	1073765251
 107              		.cfi_endproc
 108              	.LFE1:
 109              		.size	fineDAC_RestoreConfig, .-fineDAC_RestoreConfig
 110              		.section	.text.fineDAC_Sleep,"ax",%progbits
 111              		.align	1
 112              		.global	fineDAC_Sleep
 113              		.thumb
 114              		.thumb_func
 115              		.type	fineDAC_Sleep, %function
 116              	fineDAC_Sleep:
 117              	.LFB2:
  73:Generated_Source\PSoC5/fineDAC_PM.c ****         }
  74:Generated_Source\PSoC5/fineDAC_PM.c ****     }
  75:Generated_Source\PSoC5/fineDAC_PM.c **** }
  76:Generated_Source\PSoC5/fineDAC_PM.c **** 
  77:Generated_Source\PSoC5/fineDAC_PM.c **** 
  78:Generated_Source\PSoC5/fineDAC_PM.c **** /*******************************************************************************
  79:Generated_Source\PSoC5/fineDAC_PM.c **** * Function Name: fineDAC_Sleep
  80:Generated_Source\PSoC5/fineDAC_PM.c **** ********************************************************************************
  81:Generated_Source\PSoC5/fineDAC_PM.c **** * Summary:
  82:Generated_Source\PSoC5/fineDAC_PM.c **** *  Stop and Save the user configuration
  83:Generated_Source\PSoC5/fineDAC_PM.c **** *
  84:Generated_Source\PSoC5/fineDAC_PM.c **** * Parameters:  
  85:Generated_Source\PSoC5/fineDAC_PM.c **** *  void:  
  86:Generated_Source\PSoC5/fineDAC_PM.c **** *
  87:Generated_Source\PSoC5/fineDAC_PM.c **** * Return: 
  88:Generated_Source\PSoC5/fineDAC_PM.c **** *  void
  89:Generated_Source\PSoC5/fineDAC_PM.c **** *
  90:Generated_Source\PSoC5/fineDAC_PM.c **** * Global variables:
  91:Generated_Source\PSoC5/fineDAC_PM.c **** *  fineDAC_backup.enableState:  Is modified depending on the enable 
  92:Generated_Source\PSoC5/fineDAC_PM.c **** *  state  of the block before entering sleep mode.
  93:Generated_Source\PSoC5/fineDAC_PM.c **** *
  94:Generated_Source\PSoC5/fineDAC_PM.c **** *******************************************************************************/
  95:Generated_Source\PSoC5/fineDAC_PM.c **** void fineDAC_Sleep(void) 
  96:Generated_Source\PSoC5/fineDAC_PM.c **** {
 118              		.loc 1 96 0
 119              		.cfi_startproc
 120              		@ args = 0, pretend = 0, frame = 0
 121              		@ frame_needed = 0, uses_anonymous_args = 0
 122 0000 08B5     		push	{r3, lr}
 123              		.cfi_def_cfa_offset 8
 124              		.cfi_offset 3, -8
 125              		.cfi_offset 14, -4
  97:Generated_Source\PSoC5/fineDAC_PM.c ****     /* Save VDAC8's enable state */    
  98:Generated_Source\PSoC5/fineDAC_PM.c ****     if(fineDAC_ACT_PWR_EN == (fineDAC_PWRMGR & fineDAC_ACT_PWR_EN))
 126              		.loc 1 98 0
 127 0002 094B     		ldr	r3, .L14
 128 0004 094A     		ldr	r2, .L14+4
 129 0006 1B78     		ldrb	r3, [r3]	@ zero_extendqisi2
 130 0008 03F00803 		and	r3, r3, #8
ARM GAS  C:\Users\THOMPS~1\AppData\Local\Temp\cc1H8Boe.s 			page 5


 131 000c 03F0FF01 		and	r1, r3, #255
 132 0010 13B1     		cbz	r3, .L12
  99:Generated_Source\PSoC5/fineDAC_PM.c ****     {
 100:Generated_Source\PSoC5/fineDAC_PM.c ****         /* VDAC8 is enabled */
 101:Generated_Source\PSoC5/fineDAC_PM.c ****         fineDAC_backup.enableState = 1u;
 133              		.loc 1 101 0
 134 0012 0123     		movs	r3, #1
 135 0014 1370     		strb	r3, [r2]
 136 0016 00E0     		b	.L13
 137              	.L12:
 102:Generated_Source\PSoC5/fineDAC_PM.c ****     }
 103:Generated_Source\PSoC5/fineDAC_PM.c ****     else
 104:Generated_Source\PSoC5/fineDAC_PM.c ****     {
 105:Generated_Source\PSoC5/fineDAC_PM.c ****         /* VDAC8 is disabled */
 106:Generated_Source\PSoC5/fineDAC_PM.c ****         fineDAC_backup.enableState = 0u;
 138              		.loc 1 106 0
 139 0018 1170     		strb	r1, [r2]
 140              	.L13:
 107:Generated_Source\PSoC5/fineDAC_PM.c ****     }
 108:Generated_Source\PSoC5/fineDAC_PM.c ****     
 109:Generated_Source\PSoC5/fineDAC_PM.c ****     fineDAC_Stop();
 141              		.loc 1 109 0
 142 001a FFF7FEFF 		bl	fineDAC_Stop
 143              	.LVL0:
 110:Generated_Source\PSoC5/fineDAC_PM.c ****     fineDAC_SaveConfig();
 111:Generated_Source\PSoC5/fineDAC_PM.c **** }
 144              		.loc 1 111 0
 145 001e BDE80840 		pop	{r3, lr}
 146              		.cfi_restore 14
 147              		.cfi_restore 3
 148              		.cfi_def_cfa_offset 0
 110:Generated_Source\PSoC5/fineDAC_PM.c ****     fineDAC_SaveConfig();
 149              		.loc 1 110 0
 150 0022 FFF7FEBF 		b	fineDAC_SaveConfig
 151              	.LVL1:
 152              	.L15:
 153 0026 00BF     		.align	2
 154              	.L14:
 155 0028 A8430040 		.word	1073759144
 156 002c 00000000 		.word	.LANCHOR0
 157              		.cfi_endproc
 158              	.LFE2:
 159              		.size	fineDAC_Sleep, .-fineDAC_Sleep
 160              		.section	.text.fineDAC_Wakeup,"ax",%progbits
 161              		.align	1
 162              		.global	fineDAC_Wakeup
 163              		.thumb
 164              		.thumb_func
 165              		.type	fineDAC_Wakeup, %function
 166              	fineDAC_Wakeup:
 167              	.LFB3:
 112:Generated_Source\PSoC5/fineDAC_PM.c **** 
 113:Generated_Source\PSoC5/fineDAC_PM.c **** 
 114:Generated_Source\PSoC5/fineDAC_PM.c **** /*******************************************************************************
 115:Generated_Source\PSoC5/fineDAC_PM.c **** * Function Name: fineDAC_Wakeup
 116:Generated_Source\PSoC5/fineDAC_PM.c **** ********************************************************************************
 117:Generated_Source\PSoC5/fineDAC_PM.c **** *
ARM GAS  C:\Users\THOMPS~1\AppData\Local\Temp\cc1H8Boe.s 			page 6


 118:Generated_Source\PSoC5/fineDAC_PM.c **** * Summary:
 119:Generated_Source\PSoC5/fineDAC_PM.c **** *  Restores and enables the user configuration
 120:Generated_Source\PSoC5/fineDAC_PM.c **** *  
 121:Generated_Source\PSoC5/fineDAC_PM.c **** * Parameters:  
 122:Generated_Source\PSoC5/fineDAC_PM.c **** *  void
 123:Generated_Source\PSoC5/fineDAC_PM.c **** *
 124:Generated_Source\PSoC5/fineDAC_PM.c **** * Return: 
 125:Generated_Source\PSoC5/fineDAC_PM.c **** *  void
 126:Generated_Source\PSoC5/fineDAC_PM.c **** *
 127:Generated_Source\PSoC5/fineDAC_PM.c **** * Global variables:
 128:Generated_Source\PSoC5/fineDAC_PM.c **** *  fineDAC_backup.enableState:  Is used to restore the enable state of 
 129:Generated_Source\PSoC5/fineDAC_PM.c **** *  block on wakeup from sleep mode.
 130:Generated_Source\PSoC5/fineDAC_PM.c **** *
 131:Generated_Source\PSoC5/fineDAC_PM.c **** *******************************************************************************/
 132:Generated_Source\PSoC5/fineDAC_PM.c **** void fineDAC_Wakeup(void) 
 133:Generated_Source\PSoC5/fineDAC_PM.c **** {
 168              		.loc 1 133 0
 169              		.cfi_startproc
 170              		@ args = 0, pretend = 0, frame = 0
 171              		@ frame_needed = 0, uses_anonymous_args = 0
 172 0000 08B5     		push	{r3, lr}
 173              		.cfi_def_cfa_offset 8
 174              		.cfi_offset 3, -8
 175              		.cfi_offset 14, -4
 134:Generated_Source\PSoC5/fineDAC_PM.c ****     fineDAC_RestoreConfig();
 176              		.loc 1 134 0
 177 0002 FFF7FEFF 		bl	fineDAC_RestoreConfig
 178              	.LVL2:
 135:Generated_Source\PSoC5/fineDAC_PM.c ****     
 136:Generated_Source\PSoC5/fineDAC_PM.c ****     if(fineDAC_backup.enableState == 1u)
 179              		.loc 1 136 0
 180 0006 064B     		ldr	r3, .L18
 181 0008 1B78     		ldrb	r3, [r3]	@ zero_extendqisi2
 182 000a 012B     		cmp	r3, #1
 183 000c 07D1     		bne	.L16
 137:Generated_Source\PSoC5/fineDAC_PM.c ****     {
 138:Generated_Source\PSoC5/fineDAC_PM.c ****         /* Enable VDAC8's operation */
 139:Generated_Source\PSoC5/fineDAC_PM.c ****         fineDAC_Enable();
 184              		.loc 1 139 0
 185 000e FFF7FEFF 		bl	fineDAC_Enable
 186              	.LVL3:
 140:Generated_Source\PSoC5/fineDAC_PM.c **** 
 141:Generated_Source\PSoC5/fineDAC_PM.c ****         /* Restore the data register */
 142:Generated_Source\PSoC5/fineDAC_PM.c ****         fineDAC_SetValue(fineDAC_Data);
 187              		.loc 1 142 0
 188 0012 044B     		ldr	r3, .L18+4
 189 0014 1878     		ldrb	r0, [r3]	@ zero_extendqisi2
 143:Generated_Source\PSoC5/fineDAC_PM.c ****     } /* Do nothing if VDAC8 was disabled before */    
 144:Generated_Source\PSoC5/fineDAC_PM.c **** }
 190              		.loc 1 144 0
 191 0016 BDE80840 		pop	{r3, lr}
 192              		.cfi_remember_state
 193              		.cfi_restore 14
 194              		.cfi_restore 3
 195              		.cfi_def_cfa_offset 0
 142:Generated_Source\PSoC5/fineDAC_PM.c ****     } /* Do nothing if VDAC8 was disabled before */    
 196              		.loc 1 142 0
ARM GAS  C:\Users\THOMPS~1\AppData\Local\Temp\cc1H8Boe.s 			page 7


 197 001a FFF7FEBF 		b	fineDAC_SetValue
 198              	.LVL4:
 199              	.L16:
 200              		.cfi_restore_state
 201 001e 08BD     		pop	{r3, pc}
 202              	.L19:
 203              		.align	2
 204              	.L18:
 205 0020 00000000 		.word	.LANCHOR0
 206 0024 835B0040 		.word	1073765251
 207              		.cfi_endproc
 208              	.LFE3:
 209              		.size	fineDAC_Wakeup, .-fineDAC_Wakeup
 210              		.bss
 211              		.set	.LANCHOR0,. + 0
 212              		.type	fineDAC_backup, %object
 213              		.size	fineDAC_backup, 2
 214              	fineDAC_backup:
 215 0000 0000     		.space	2
 216              		.text
 217              	.Letext0:
 218              		.file 2 "Generated_Source\\PSoC5\\cytypes.h"
 219              		.file 3 "Generated_Source\\PSoC5\\fineDAC.h"