ARM GAS  C:\Users\THOMPS~1\AppData\Local\Temp\ccP1wsW2.s 			page 1


   1              		.syntax unified
   2              		.cpu cortex-m3
   3              		.fpu softvfp
   4              		.eabi_attribute 20, 1
   5              		.eabi_attribute 21, 1
   6              		.eabi_attribute 23, 3
   7              		.eabi_attribute 24, 1
   8              		.eabi_attribute 25, 1
   9              		.eabi_attribute 26, 1
  10              		.eabi_attribute 30, 4
  11              		.eabi_attribute 34, 1
  12              		.eabi_attribute 18, 4
  13              		.thumb
  14              		.syntax unified
  15              		.file	"fineDAC.c"
  16              		.text
  17              	.Ltext0:
  18              		.cfi_sections	.debug_frame
  19              		.section	.text.fineDAC_Enable,"ax",%progbits
  20              		.align	1
  21              		.global	fineDAC_Enable
  22              		.thumb
  23              		.thumb_func
  24              		.type	fineDAC_Enable, %function
  25              	fineDAC_Enable:
  26              	.LFB1:
  27              		.file 1 "Generated_Source\\PSoC5\\fineDAC.c"
   1:Generated_Source\PSoC5/fineDAC.c **** /*******************************************************************************
   2:Generated_Source\PSoC5/fineDAC.c **** * File Name: fineDAC.c  
   3:Generated_Source\PSoC5/fineDAC.c **** * Version 1.90
   4:Generated_Source\PSoC5/fineDAC.c **** *
   5:Generated_Source\PSoC5/fineDAC.c **** * Description:
   6:Generated_Source\PSoC5/fineDAC.c **** *  This file provides the source code to the API for the 8-bit Voltage DAC 
   7:Generated_Source\PSoC5/fineDAC.c **** *  (VDAC8) User Module.
   8:Generated_Source\PSoC5/fineDAC.c **** *
   9:Generated_Source\PSoC5/fineDAC.c **** * Note:
  10:Generated_Source\PSoC5/fineDAC.c **** *  Any unusual or non-standard behavior should be noted here. Other-
  11:Generated_Source\PSoC5/fineDAC.c **** *  wise, this section should remain blank.
  12:Generated_Source\PSoC5/fineDAC.c **** *
  13:Generated_Source\PSoC5/fineDAC.c **** ********************************************************************************
  14:Generated_Source\PSoC5/fineDAC.c **** * Copyright 2008-2012, Cypress Semiconductor Corporation.  All rights reserved.
  15:Generated_Source\PSoC5/fineDAC.c **** * You may use this file only in accordance with the license, terms, conditions, 
  16:Generated_Source\PSoC5/fineDAC.c **** * disclaimers, and limitations in the end user license agreement accompanying 
  17:Generated_Source\PSoC5/fineDAC.c **** * the software package with which this file was provided.
  18:Generated_Source\PSoC5/fineDAC.c **** *******************************************************************************/
  19:Generated_Source\PSoC5/fineDAC.c **** 
  20:Generated_Source\PSoC5/fineDAC.c **** #include "cytypes.h"
  21:Generated_Source\PSoC5/fineDAC.c **** #include "fineDAC.h"
  22:Generated_Source\PSoC5/fineDAC.c **** 
  23:Generated_Source\PSoC5/fineDAC.c **** #if (CY_PSOC5A)
  24:Generated_Source\PSoC5/fineDAC.c **** #include <CyLib.h>
  25:Generated_Source\PSoC5/fineDAC.c **** #endif /* CY_PSOC5A */
  26:Generated_Source\PSoC5/fineDAC.c **** 
  27:Generated_Source\PSoC5/fineDAC.c **** uint8 fineDAC_initVar = 0u;
  28:Generated_Source\PSoC5/fineDAC.c **** 
  29:Generated_Source\PSoC5/fineDAC.c **** #if (CY_PSOC5A)
  30:Generated_Source\PSoC5/fineDAC.c ****     static uint8 fineDAC_restoreVal = 0u;
ARM GAS  C:\Users\THOMPS~1\AppData\Local\Temp\ccP1wsW2.s 			page 2


  31:Generated_Source\PSoC5/fineDAC.c **** #endif /* CY_PSOC5A */
  32:Generated_Source\PSoC5/fineDAC.c **** 
  33:Generated_Source\PSoC5/fineDAC.c **** #if (CY_PSOC5A)
  34:Generated_Source\PSoC5/fineDAC.c ****     static fineDAC_backupStruct fineDAC_backup;
  35:Generated_Source\PSoC5/fineDAC.c **** #endif /* CY_PSOC5A */
  36:Generated_Source\PSoC5/fineDAC.c **** 
  37:Generated_Source\PSoC5/fineDAC.c **** 
  38:Generated_Source\PSoC5/fineDAC.c **** /*******************************************************************************
  39:Generated_Source\PSoC5/fineDAC.c **** * Function Name: fineDAC_Init
  40:Generated_Source\PSoC5/fineDAC.c **** ********************************************************************************
  41:Generated_Source\PSoC5/fineDAC.c **** * Summary:
  42:Generated_Source\PSoC5/fineDAC.c **** *  Initialize to the schematic state.
  43:Generated_Source\PSoC5/fineDAC.c **** * 
  44:Generated_Source\PSoC5/fineDAC.c **** * Parameters:
  45:Generated_Source\PSoC5/fineDAC.c **** *  void:
  46:Generated_Source\PSoC5/fineDAC.c **** *
  47:Generated_Source\PSoC5/fineDAC.c **** * Return:
  48:Generated_Source\PSoC5/fineDAC.c **** *  void
  49:Generated_Source\PSoC5/fineDAC.c **** *
  50:Generated_Source\PSoC5/fineDAC.c **** * Theory:
  51:Generated_Source\PSoC5/fineDAC.c **** *
  52:Generated_Source\PSoC5/fineDAC.c **** * Side Effects:
  53:Generated_Source\PSoC5/fineDAC.c **** *
  54:Generated_Source\PSoC5/fineDAC.c **** *******************************************************************************/
  55:Generated_Source\PSoC5/fineDAC.c **** void fineDAC_Init(void) 
  56:Generated_Source\PSoC5/fineDAC.c **** {
  57:Generated_Source\PSoC5/fineDAC.c ****     fineDAC_CR0 = (fineDAC_MODE_V );
  58:Generated_Source\PSoC5/fineDAC.c **** 
  59:Generated_Source\PSoC5/fineDAC.c ****     /* Set default data source */
  60:Generated_Source\PSoC5/fineDAC.c ****     #if(fineDAC_DEFAULT_DATA_SRC != 0 )
  61:Generated_Source\PSoC5/fineDAC.c ****         fineDAC_CR1 = (fineDAC_DEFAULT_CNTL | fineDAC_DACBUS_ENABLE) ;
  62:Generated_Source\PSoC5/fineDAC.c ****     #else
  63:Generated_Source\PSoC5/fineDAC.c ****         fineDAC_CR1 = (fineDAC_DEFAULT_CNTL | fineDAC_DACBUS_DISABLE) ;
  64:Generated_Source\PSoC5/fineDAC.c ****     #endif /* (fineDAC_DEFAULT_DATA_SRC != 0 ) */
  65:Generated_Source\PSoC5/fineDAC.c **** 
  66:Generated_Source\PSoC5/fineDAC.c ****     /* Set default strobe mode */
  67:Generated_Source\PSoC5/fineDAC.c ****     #if(fineDAC_DEFAULT_STRB != 0)
  68:Generated_Source\PSoC5/fineDAC.c ****         fineDAC_Strobe |= fineDAC_STRB_EN ;
  69:Generated_Source\PSoC5/fineDAC.c ****     #endif/* (fineDAC_DEFAULT_STRB != 0) */
  70:Generated_Source\PSoC5/fineDAC.c **** 
  71:Generated_Source\PSoC5/fineDAC.c ****     /* Set default range */
  72:Generated_Source\PSoC5/fineDAC.c ****     fineDAC_SetRange(fineDAC_DEFAULT_RANGE); 
  73:Generated_Source\PSoC5/fineDAC.c **** 
  74:Generated_Source\PSoC5/fineDAC.c ****     /* Set default speed */
  75:Generated_Source\PSoC5/fineDAC.c ****     fineDAC_SetSpeed(fineDAC_DEFAULT_SPEED);
  76:Generated_Source\PSoC5/fineDAC.c **** }
  77:Generated_Source\PSoC5/fineDAC.c **** 
  78:Generated_Source\PSoC5/fineDAC.c **** 
  79:Generated_Source\PSoC5/fineDAC.c **** /*******************************************************************************
  80:Generated_Source\PSoC5/fineDAC.c **** * Function Name: fineDAC_Enable
  81:Generated_Source\PSoC5/fineDAC.c **** ********************************************************************************
  82:Generated_Source\PSoC5/fineDAC.c **** * Summary:
  83:Generated_Source\PSoC5/fineDAC.c **** *  Enable the VDAC8
  84:Generated_Source\PSoC5/fineDAC.c **** * 
  85:Generated_Source\PSoC5/fineDAC.c **** * Parameters:
  86:Generated_Source\PSoC5/fineDAC.c **** *  void
  87:Generated_Source\PSoC5/fineDAC.c **** *
ARM GAS  C:\Users\THOMPS~1\AppData\Local\Temp\ccP1wsW2.s 			page 3


  88:Generated_Source\PSoC5/fineDAC.c **** * Return:
  89:Generated_Source\PSoC5/fineDAC.c **** *  void
  90:Generated_Source\PSoC5/fineDAC.c **** *
  91:Generated_Source\PSoC5/fineDAC.c **** * Theory:
  92:Generated_Source\PSoC5/fineDAC.c **** *
  93:Generated_Source\PSoC5/fineDAC.c **** * Side Effects:
  94:Generated_Source\PSoC5/fineDAC.c **** *
  95:Generated_Source\PSoC5/fineDAC.c **** *******************************************************************************/
  96:Generated_Source\PSoC5/fineDAC.c **** void fineDAC_Enable(void) 
  97:Generated_Source\PSoC5/fineDAC.c **** {
  28              		.loc 1 97 0
  29              		.cfi_startproc
  30              		@ args = 0, pretend = 0, frame = 0
  31              		@ frame_needed = 0, uses_anonymous_args = 0
  32              		@ link register save eliminated.
  98:Generated_Source\PSoC5/fineDAC.c ****     fineDAC_PWRMGR |= fineDAC_ACT_PWR_EN;
  33              		.loc 1 98 0
  34 0000 044A     		ldr	r2, .L2
  35 0002 1378     		ldrb	r3, [r2]	@ zero_extendqisi2
  36 0004 43F00803 		orr	r3, r3, #8
  37 0008 1370     		strb	r3, [r2]
  99:Generated_Source\PSoC5/fineDAC.c ****     fineDAC_STBY_PWRMGR |= fineDAC_STBY_PWR_EN;
  38              		.loc 1 99 0
  39 000a 137C     		ldrb	r3, [r2, #16]	@ zero_extendqisi2
  40 000c 43F00803 		orr	r3, r3, #8
  41 0010 1374     		strb	r3, [r2, #16]
  42 0012 7047     		bx	lr
  43              	.L3:
  44              		.align	2
  45              	.L2:
  46 0014 A8430040 		.word	1073759144
  47              		.cfi_endproc
  48              	.LFE1:
  49              		.size	fineDAC_Enable, .-fineDAC_Enable
  50              		.section	.text.fineDAC_Stop,"ax",%progbits
  51              		.align	1
  52              		.global	fineDAC_Stop
  53              		.thumb
  54              		.thumb_func
  55              		.type	fineDAC_Stop, %function
  56              	fineDAC_Stop:
  57              	.LFB3:
 100:Generated_Source\PSoC5/fineDAC.c **** 
 101:Generated_Source\PSoC5/fineDAC.c ****     /*This is to restore the value of register CR0 ,
 102:Generated_Source\PSoC5/fineDAC.c ****     which is modified  in Stop API , this prevents misbehaviour of VDAC */
 103:Generated_Source\PSoC5/fineDAC.c ****     #if (CY_PSOC5A)
 104:Generated_Source\PSoC5/fineDAC.c ****         if(fineDAC_restoreVal == 1u) 
 105:Generated_Source\PSoC5/fineDAC.c ****         {
 106:Generated_Source\PSoC5/fineDAC.c ****              fineDAC_CR0 = fineDAC_backup.data_value;
 107:Generated_Source\PSoC5/fineDAC.c ****              fineDAC_restoreVal = 0u;
 108:Generated_Source\PSoC5/fineDAC.c ****         }
 109:Generated_Source\PSoC5/fineDAC.c ****     #endif /* CY_PSOC5A */
 110:Generated_Source\PSoC5/fineDAC.c **** }
 111:Generated_Source\PSoC5/fineDAC.c **** 
 112:Generated_Source\PSoC5/fineDAC.c **** 
 113:Generated_Source\PSoC5/fineDAC.c **** /*******************************************************************************
 114:Generated_Source\PSoC5/fineDAC.c **** * Function Name: fineDAC_Start
ARM GAS  C:\Users\THOMPS~1\AppData\Local\Temp\ccP1wsW2.s 			page 4


 115:Generated_Source\PSoC5/fineDAC.c **** ********************************************************************************
 116:Generated_Source\PSoC5/fineDAC.c **** *
 117:Generated_Source\PSoC5/fineDAC.c **** * Summary:
 118:Generated_Source\PSoC5/fineDAC.c **** *  The start function initializes the voltage DAC with the default values, 
 119:Generated_Source\PSoC5/fineDAC.c **** *  and sets the power to the given level.  A power level of 0, is the same as
 120:Generated_Source\PSoC5/fineDAC.c **** *  executing the stop function.
 121:Generated_Source\PSoC5/fineDAC.c **** *
 122:Generated_Source\PSoC5/fineDAC.c **** * Parameters:
 123:Generated_Source\PSoC5/fineDAC.c **** *  Power: Sets power level between off (0) and (3) high power
 124:Generated_Source\PSoC5/fineDAC.c **** *
 125:Generated_Source\PSoC5/fineDAC.c **** * Return:
 126:Generated_Source\PSoC5/fineDAC.c **** *  void 
 127:Generated_Source\PSoC5/fineDAC.c **** *
 128:Generated_Source\PSoC5/fineDAC.c **** * Global variables:
 129:Generated_Source\PSoC5/fineDAC.c **** *  fineDAC_initVar: Is modified when this function is called for the 
 130:Generated_Source\PSoC5/fineDAC.c **** *  first time. Is used to ensure that initialization happens only once.
 131:Generated_Source\PSoC5/fineDAC.c **** *
 132:Generated_Source\PSoC5/fineDAC.c **** *******************************************************************************/
 133:Generated_Source\PSoC5/fineDAC.c **** void fineDAC_Start(void)  
 134:Generated_Source\PSoC5/fineDAC.c **** {
 135:Generated_Source\PSoC5/fineDAC.c ****     /* Hardware initiazation only needs to occure the first time */
 136:Generated_Source\PSoC5/fineDAC.c ****     if(fineDAC_initVar == 0u)
 137:Generated_Source\PSoC5/fineDAC.c ****     { 
 138:Generated_Source\PSoC5/fineDAC.c ****         fineDAC_Init();
 139:Generated_Source\PSoC5/fineDAC.c ****         fineDAC_initVar = 1u;
 140:Generated_Source\PSoC5/fineDAC.c ****     }
 141:Generated_Source\PSoC5/fineDAC.c **** 
 142:Generated_Source\PSoC5/fineDAC.c ****     /* Enable power to DAC */
 143:Generated_Source\PSoC5/fineDAC.c ****     fineDAC_Enable();
 144:Generated_Source\PSoC5/fineDAC.c **** 
 145:Generated_Source\PSoC5/fineDAC.c ****     /* Set default value */
 146:Generated_Source\PSoC5/fineDAC.c ****     fineDAC_SetValue(fineDAC_DEFAULT_DATA); 
 147:Generated_Source\PSoC5/fineDAC.c **** }
 148:Generated_Source\PSoC5/fineDAC.c **** 
 149:Generated_Source\PSoC5/fineDAC.c **** 
 150:Generated_Source\PSoC5/fineDAC.c **** /*******************************************************************************
 151:Generated_Source\PSoC5/fineDAC.c **** * Function Name: fineDAC_Stop
 152:Generated_Source\PSoC5/fineDAC.c **** ********************************************************************************
 153:Generated_Source\PSoC5/fineDAC.c **** *
 154:Generated_Source\PSoC5/fineDAC.c **** * Summary:
 155:Generated_Source\PSoC5/fineDAC.c **** *  Powers down DAC to lowest power state.
 156:Generated_Source\PSoC5/fineDAC.c **** *
 157:Generated_Source\PSoC5/fineDAC.c **** * Parameters:
 158:Generated_Source\PSoC5/fineDAC.c **** *  void
 159:Generated_Source\PSoC5/fineDAC.c **** *
 160:Generated_Source\PSoC5/fineDAC.c **** * Return:
 161:Generated_Source\PSoC5/fineDAC.c **** *  void
 162:Generated_Source\PSoC5/fineDAC.c **** *
 163:Generated_Source\PSoC5/fineDAC.c **** * Theory:
 164:Generated_Source\PSoC5/fineDAC.c **** *
 165:Generated_Source\PSoC5/fineDAC.c **** * Side Effects:
 166:Generated_Source\PSoC5/fineDAC.c **** *
 167:Generated_Source\PSoC5/fineDAC.c **** *******************************************************************************/
 168:Generated_Source\PSoC5/fineDAC.c **** void fineDAC_Stop(void) 
 169:Generated_Source\PSoC5/fineDAC.c **** {
  58              		.loc 1 169 0
  59              		.cfi_startproc
ARM GAS  C:\Users\THOMPS~1\AppData\Local\Temp\ccP1wsW2.s 			page 5


  60              		@ args = 0, pretend = 0, frame = 0
  61              		@ frame_needed = 0, uses_anonymous_args = 0
  62              		@ link register save eliminated.
 170:Generated_Source\PSoC5/fineDAC.c ****     /* Disble power to DAC */
 171:Generated_Source\PSoC5/fineDAC.c ****     fineDAC_PWRMGR &= (uint8)(~fineDAC_ACT_PWR_EN);
  63              		.loc 1 171 0
  64 0000 044A     		ldr	r2, .L5
  65 0002 1378     		ldrb	r3, [r2]	@ zero_extendqisi2
  66 0004 03F0F703 		and	r3, r3, #247
  67 0008 1370     		strb	r3, [r2]
 172:Generated_Source\PSoC5/fineDAC.c ****     fineDAC_STBY_PWRMGR &= (uint8)(~fineDAC_STBY_PWR_EN);
  68              		.loc 1 172 0
  69 000a 137C     		ldrb	r3, [r2, #16]	@ zero_extendqisi2
  70 000c 03F0F703 		and	r3, r3, #247
  71 0010 1374     		strb	r3, [r2, #16]
  72 0012 7047     		bx	lr
  73              	.L6:
  74              		.align	2
  75              	.L5:
  76 0014 A8430040 		.word	1073759144
  77              		.cfi_endproc
  78              	.LFE3:
  79              		.size	fineDAC_Stop, .-fineDAC_Stop
  80              		.section	.text.fineDAC_SetSpeed,"ax",%progbits
  81              		.align	1
  82              		.global	fineDAC_SetSpeed
  83              		.thumb
  84              		.thumb_func
  85              		.type	fineDAC_SetSpeed, %function
  86              	fineDAC_SetSpeed:
  87              	.LFB4:
 173:Generated_Source\PSoC5/fineDAC.c **** 
 174:Generated_Source\PSoC5/fineDAC.c ****     /* This is a work around for PSoC5A  ,
 175:Generated_Source\PSoC5/fineDAC.c ****     this sets VDAC to current mode with output off */
 176:Generated_Source\PSoC5/fineDAC.c ****     #if (CY_PSOC5A)
 177:Generated_Source\PSoC5/fineDAC.c ****         fineDAC_backup.data_value = fineDAC_CR0;
 178:Generated_Source\PSoC5/fineDAC.c ****         fineDAC_CR0 = fineDAC_CUR_MODE_OUT_OFF;
 179:Generated_Source\PSoC5/fineDAC.c ****         fineDAC_restoreVal = 1u;
 180:Generated_Source\PSoC5/fineDAC.c ****     #endif /* CY_PSOC5A */
 181:Generated_Source\PSoC5/fineDAC.c **** }
 182:Generated_Source\PSoC5/fineDAC.c **** 
 183:Generated_Source\PSoC5/fineDAC.c **** 
 184:Generated_Source\PSoC5/fineDAC.c **** /*******************************************************************************
 185:Generated_Source\PSoC5/fineDAC.c **** * Function Name: fineDAC_SetSpeed
 186:Generated_Source\PSoC5/fineDAC.c **** ********************************************************************************
 187:Generated_Source\PSoC5/fineDAC.c **** *
 188:Generated_Source\PSoC5/fineDAC.c **** * Summary:
 189:Generated_Source\PSoC5/fineDAC.c **** *  Set DAC speed
 190:Generated_Source\PSoC5/fineDAC.c **** *
 191:Generated_Source\PSoC5/fineDAC.c **** * Parameters:
 192:Generated_Source\PSoC5/fineDAC.c **** *  power: Sets speed value
 193:Generated_Source\PSoC5/fineDAC.c **** *
 194:Generated_Source\PSoC5/fineDAC.c **** * Return:
 195:Generated_Source\PSoC5/fineDAC.c **** *  void
 196:Generated_Source\PSoC5/fineDAC.c **** *
 197:Generated_Source\PSoC5/fineDAC.c **** * Theory:
 198:Generated_Source\PSoC5/fineDAC.c **** *
ARM GAS  C:\Users\THOMPS~1\AppData\Local\Temp\ccP1wsW2.s 			page 6


 199:Generated_Source\PSoC5/fineDAC.c **** * Side Effects:
 200:Generated_Source\PSoC5/fineDAC.c **** *
 201:Generated_Source\PSoC5/fineDAC.c **** *******************************************************************************/
 202:Generated_Source\PSoC5/fineDAC.c **** void fineDAC_SetSpeed(uint8 speed) 
 203:Generated_Source\PSoC5/fineDAC.c **** {
  88              		.loc 1 203 0
  89              		.cfi_startproc
  90              		@ args = 0, pretend = 0, frame = 0
  91              		@ frame_needed = 0, uses_anonymous_args = 0
  92              		@ link register save eliminated.
  93              	.LVL0:
 204:Generated_Source\PSoC5/fineDAC.c ****     /* Clear power mask then write in new value */
 205:Generated_Source\PSoC5/fineDAC.c ****     fineDAC_CR0 &= (uint8)(~fineDAC_HS_MASK);
  94              		.loc 1 205 0
  95 0000 054B     		ldr	r3, .L8
 206:Generated_Source\PSoC5/fineDAC.c ****     fineDAC_CR0 |=  (speed & fineDAC_HS_MASK);
  96              		.loc 1 206 0
  97 0002 00F00200 		and	r0, r0, #2
  98              	.LVL1:
 205:Generated_Source\PSoC5/fineDAC.c ****     fineDAC_CR0 |=  (speed & fineDAC_HS_MASK);
  99              		.loc 1 205 0
 100 0006 1A78     		ldrb	r2, [r3]	@ zero_extendqisi2
 101 0008 02F0FD02 		and	r2, r2, #253
 102 000c 1A70     		strb	r2, [r3]
 103              		.loc 1 206 0
 104 000e 1A78     		ldrb	r2, [r3]	@ zero_extendqisi2
 105 0010 1043     		orrs	r0, r0, r2
 106 0012 1870     		strb	r0, [r3]
 107 0014 7047     		bx	lr
 108              	.L9:
 109 0016 00BF     		.align	2
 110              	.L8:
 111 0018 2C580040 		.word	1073764396
 112              		.cfi_endproc
 113              	.LFE4:
 114              		.size	fineDAC_SetSpeed, .-fineDAC_SetSpeed
 115              		.section	.text.fineDAC_SetValue,"ax",%progbits
 116              		.align	1
 117              		.global	fineDAC_SetValue
 118              		.thumb
 119              		.thumb_func
 120              		.type	fineDAC_SetValue, %function
 121              	fineDAC_SetValue:
 122              	.LFB6:
 207:Generated_Source\PSoC5/fineDAC.c **** }
 208:Generated_Source\PSoC5/fineDAC.c **** 
 209:Generated_Source\PSoC5/fineDAC.c **** 
 210:Generated_Source\PSoC5/fineDAC.c **** /*******************************************************************************
 211:Generated_Source\PSoC5/fineDAC.c **** * Function Name: fineDAC_SetRange
 212:Generated_Source\PSoC5/fineDAC.c **** ********************************************************************************
 213:Generated_Source\PSoC5/fineDAC.c **** *
 214:Generated_Source\PSoC5/fineDAC.c **** * Summary:
 215:Generated_Source\PSoC5/fineDAC.c **** *  Set one of three current ranges.
 216:Generated_Source\PSoC5/fineDAC.c **** *
 217:Generated_Source\PSoC5/fineDAC.c **** * Parameters:
 218:Generated_Source\PSoC5/fineDAC.c **** *  Range: Sets one of Three valid ranges.
 219:Generated_Source\PSoC5/fineDAC.c **** *
ARM GAS  C:\Users\THOMPS~1\AppData\Local\Temp\ccP1wsW2.s 			page 7


 220:Generated_Source\PSoC5/fineDAC.c **** * Return:
 221:Generated_Source\PSoC5/fineDAC.c **** *  void 
 222:Generated_Source\PSoC5/fineDAC.c **** *
 223:Generated_Source\PSoC5/fineDAC.c **** * Theory:
 224:Generated_Source\PSoC5/fineDAC.c **** *
 225:Generated_Source\PSoC5/fineDAC.c **** * Side Effects:
 226:Generated_Source\PSoC5/fineDAC.c **** *
 227:Generated_Source\PSoC5/fineDAC.c **** *******************************************************************************/
 228:Generated_Source\PSoC5/fineDAC.c **** void fineDAC_SetRange(uint8 range) 
 229:Generated_Source\PSoC5/fineDAC.c **** {
 230:Generated_Source\PSoC5/fineDAC.c ****     fineDAC_CR0 &= (uint8)(~fineDAC_RANGE_MASK);      /* Clear existing mode */
 231:Generated_Source\PSoC5/fineDAC.c ****     fineDAC_CR0 |= (range & fineDAC_RANGE_MASK);      /*  Set Range  */
 232:Generated_Source\PSoC5/fineDAC.c ****     fineDAC_DacTrim();
 233:Generated_Source\PSoC5/fineDAC.c **** }
 234:Generated_Source\PSoC5/fineDAC.c **** 
 235:Generated_Source\PSoC5/fineDAC.c **** 
 236:Generated_Source\PSoC5/fineDAC.c **** /*******************************************************************************
 237:Generated_Source\PSoC5/fineDAC.c **** * Function Name: fineDAC_SetValue
 238:Generated_Source\PSoC5/fineDAC.c **** ********************************************************************************
 239:Generated_Source\PSoC5/fineDAC.c **** *
 240:Generated_Source\PSoC5/fineDAC.c **** * Summary:
 241:Generated_Source\PSoC5/fineDAC.c **** *  Set 8-bit DAC value
 242:Generated_Source\PSoC5/fineDAC.c **** *
 243:Generated_Source\PSoC5/fineDAC.c **** * Parameters:  
 244:Generated_Source\PSoC5/fineDAC.c **** *  value:  Sets DAC value between 0 and 255.
 245:Generated_Source\PSoC5/fineDAC.c **** *
 246:Generated_Source\PSoC5/fineDAC.c **** * Return: 
 247:Generated_Source\PSoC5/fineDAC.c **** *  void 
 248:Generated_Source\PSoC5/fineDAC.c **** *
 249:Generated_Source\PSoC5/fineDAC.c **** * Theory: 
 250:Generated_Source\PSoC5/fineDAC.c **** *
 251:Generated_Source\PSoC5/fineDAC.c **** * Side Effects:
 252:Generated_Source\PSoC5/fineDAC.c **** *
 253:Generated_Source\PSoC5/fineDAC.c **** *******************************************************************************/
 254:Generated_Source\PSoC5/fineDAC.c **** void fineDAC_SetValue(uint8 value) 
 255:Generated_Source\PSoC5/fineDAC.c **** {
 123              		.loc 1 255 0
 124              		.cfi_startproc
 125              		@ args = 0, pretend = 0, frame = 0
 126              		@ frame_needed = 0, uses_anonymous_args = 0
 127              		@ link register save eliminated.
 128              	.LVL2:
 256:Generated_Source\PSoC5/fineDAC.c ****     #if (CY_PSOC5A)
 257:Generated_Source\PSoC5/fineDAC.c ****         uint8 fineDAC_intrStatus = CyEnterCriticalSection();
 258:Generated_Source\PSoC5/fineDAC.c ****     #endif /* CY_PSOC5A */
 259:Generated_Source\PSoC5/fineDAC.c **** 
 260:Generated_Source\PSoC5/fineDAC.c ****     fineDAC_Data = value;                /*  Set Value  */
 129              		.loc 1 260 0
 130 0000 014B     		ldr	r3, .L11
 131 0002 1870     		strb	r0, [r3]
 132 0004 7047     		bx	lr
 133              	.L12:
 134 0006 00BF     		.align	2
 135              	.L11:
 136 0008 835B0040 		.word	1073765251
 137              		.cfi_endproc
 138              	.LFE6:
ARM GAS  C:\Users\THOMPS~1\AppData\Local\Temp\ccP1wsW2.s 			page 8


 139              		.size	fineDAC_SetValue, .-fineDAC_SetValue
 140              		.section	.text.fineDAC_DacTrim,"ax",%progbits
 141              		.align	1
 142              		.global	fineDAC_DacTrim
 143              		.thumb
 144              		.thumb_func
 145              		.type	fineDAC_DacTrim, %function
 146              	fineDAC_DacTrim:
 147              	.LFB7:
 261:Generated_Source\PSoC5/fineDAC.c **** 
 262:Generated_Source\PSoC5/fineDAC.c ****     /* PSOC5A requires a double write */
 263:Generated_Source\PSoC5/fineDAC.c ****     /* Exit Critical Section */
 264:Generated_Source\PSoC5/fineDAC.c ****     #if (CY_PSOC5A)
 265:Generated_Source\PSoC5/fineDAC.c ****         fineDAC_Data = value;
 266:Generated_Source\PSoC5/fineDAC.c ****         CyExitCriticalSection(fineDAC_intrStatus);
 267:Generated_Source\PSoC5/fineDAC.c ****     #endif /* CY_PSOC5A */
 268:Generated_Source\PSoC5/fineDAC.c **** }
 269:Generated_Source\PSoC5/fineDAC.c **** 
 270:Generated_Source\PSoC5/fineDAC.c **** 
 271:Generated_Source\PSoC5/fineDAC.c **** /*******************************************************************************
 272:Generated_Source\PSoC5/fineDAC.c **** * Function Name: fineDAC_DacTrim
 273:Generated_Source\PSoC5/fineDAC.c **** ********************************************************************************
 274:Generated_Source\PSoC5/fineDAC.c **** *
 275:Generated_Source\PSoC5/fineDAC.c **** * Summary:
 276:Generated_Source\PSoC5/fineDAC.c **** *  Set the trim value for the given range.
 277:Generated_Source\PSoC5/fineDAC.c **** *
 278:Generated_Source\PSoC5/fineDAC.c **** * Parameters:
 279:Generated_Source\PSoC5/fineDAC.c **** *  range:  1V or 4V range.  See constants.
 280:Generated_Source\PSoC5/fineDAC.c **** *
 281:Generated_Source\PSoC5/fineDAC.c **** * Return:
 282:Generated_Source\PSoC5/fineDAC.c **** *  void
 283:Generated_Source\PSoC5/fineDAC.c **** *
 284:Generated_Source\PSoC5/fineDAC.c **** * Theory: 
 285:Generated_Source\PSoC5/fineDAC.c **** *
 286:Generated_Source\PSoC5/fineDAC.c **** * Side Effects:
 287:Generated_Source\PSoC5/fineDAC.c **** *
 288:Generated_Source\PSoC5/fineDAC.c **** *******************************************************************************/
 289:Generated_Source\PSoC5/fineDAC.c **** void fineDAC_DacTrim(void) 
 290:Generated_Source\PSoC5/fineDAC.c **** {
 148              		.loc 1 290 0
 149              		.cfi_startproc
 150              		@ args = 0, pretend = 0, frame = 0
 151              		@ frame_needed = 0, uses_anonymous_args = 0
 152              		@ link register save eliminated.
 291:Generated_Source\PSoC5/fineDAC.c ****     uint8 mode;
 292:Generated_Source\PSoC5/fineDAC.c **** 
 293:Generated_Source\PSoC5/fineDAC.c ****     mode = (uint8)((fineDAC_CR0 & fineDAC_RANGE_MASK) >> 2) + fineDAC_TRIM_M7_1V_RNG_OFFSET;
 153              		.loc 1 293 0
 154 0000 064B     		ldr	r3, .L14
 294:Generated_Source\PSoC5/fineDAC.c ****     fineDAC_TR = CY_GET_XTND_REG8((uint8 *)(fineDAC_DAC_TRIM_BASE + mode));
 155              		.loc 1 294 0
 156 0002 074A     		ldr	r2, .L14+4
 293:Generated_Source\PSoC5/fineDAC.c ****     fineDAC_TR = CY_GET_XTND_REG8((uint8 *)(fineDAC_DAC_TRIM_BASE + mode));
 157              		.loc 1 293 0
 158 0004 1B78     		ldrb	r3, [r3]	@ zero_extendqisi2
 159              	.LVL3:
 160              		.loc 1 294 0
ARM GAS  C:\Users\THOMPS~1\AppData\Local\Temp\ccP1wsW2.s 			page 9


 161 0006 C3F38103 		ubfx	r3, r3, #2, #2
 162              	.LVL4:
 163 000a 03F19243 		add	r3, r3, #1224736768
 164 000e 0633     		adds	r3, r3, #6
 165 0010 93F83831 		ldrb	r3, [r3, #312]	@ zero_extendqisi2
 166 0014 DBB2     		uxtb	r3, r3
 167 0016 1370     		strb	r3, [r2]
 168 0018 7047     		bx	lr
 169              	.L15:
 170 001a 00BF     		.align	2
 171              	.L14:
 172 001c 2C580040 		.word	1073764396
 173 0020 0B460040 		.word	1073759755
 174              		.cfi_endproc
 175              	.LFE7:
 176              		.size	fineDAC_DacTrim, .-fineDAC_DacTrim
 177              		.section	.text.fineDAC_SetRange,"ax",%progbits
 178              		.align	1
 179              		.global	fineDAC_SetRange
 180              		.thumb
 181              		.thumb_func
 182              		.type	fineDAC_SetRange, %function
 183              	fineDAC_SetRange:
 184              	.LFB5:
 229:Generated_Source\PSoC5/fineDAC.c ****     fineDAC_CR0 &= (uint8)(~fineDAC_RANGE_MASK);      /* Clear existing mode */
 185              		.loc 1 229 0
 186              		.cfi_startproc
 187              		@ args = 0, pretend = 0, frame = 0
 188              		@ frame_needed = 0, uses_anonymous_args = 0
 189              		@ link register save eliminated.
 190              	.LVL5:
 230:Generated_Source\PSoC5/fineDAC.c ****     fineDAC_CR0 |= (range & fineDAC_RANGE_MASK);      /*  Set Range  */
 191              		.loc 1 230 0
 192 0000 054B     		ldr	r3, .L17
 231:Generated_Source\PSoC5/fineDAC.c ****     fineDAC_DacTrim();
 193              		.loc 1 231 0
 194 0002 00F00C00 		and	r0, r0, #12
 195              	.LVL6:
 230:Generated_Source\PSoC5/fineDAC.c ****     fineDAC_CR0 |= (range & fineDAC_RANGE_MASK);      /*  Set Range  */
 196              		.loc 1 230 0
 197 0006 1A78     		ldrb	r2, [r3]	@ zero_extendqisi2
 198 0008 02F0F302 		and	r2, r2, #243
 199 000c 1A70     		strb	r2, [r3]
 231:Generated_Source\PSoC5/fineDAC.c ****     fineDAC_DacTrim();
 200              		.loc 1 231 0
 201 000e 1A78     		ldrb	r2, [r3]	@ zero_extendqisi2
 202 0010 1043     		orrs	r0, r0, r2
 203 0012 1870     		strb	r0, [r3]
 232:Generated_Source\PSoC5/fineDAC.c **** }
 204              		.loc 1 232 0
 205 0014 FFF7FEBF 		b	fineDAC_DacTrim
 206              	.LVL7:
 207              	.L18:
 208              		.align	2
 209              	.L17:
 210 0018 2C580040 		.word	1073764396
 211              		.cfi_endproc
ARM GAS  C:\Users\THOMPS~1\AppData\Local\Temp\ccP1wsW2.s 			page 10


 212              	.LFE5:
 213              		.size	fineDAC_SetRange, .-fineDAC_SetRange
 214              		.section	.text.fineDAC_Init,"ax",%progbits
 215              		.align	1
 216              		.global	fineDAC_Init
 217              		.thumb
 218              		.thumb_func
 219              		.type	fineDAC_Init, %function
 220              	fineDAC_Init:
 221              	.LFB0:
  56:Generated_Source\PSoC5/fineDAC.c ****     fineDAC_CR0 = (fineDAC_MODE_V );
 222              		.loc 1 56 0
 223              		.cfi_startproc
 224              		@ args = 0, pretend = 0, frame = 0
 225              		@ frame_needed = 0, uses_anonymous_args = 0
 226 0000 08B5     		push	{r3, lr}
 227              		.cfi_def_cfa_offset 8
 228              		.cfi_offset 3, -8
 229              		.cfi_offset 14, -4
  57:Generated_Source\PSoC5/fineDAC.c **** 
 230              		.loc 1 57 0
 231 0002 064A     		ldr	r2, .L20
 232 0004 0023     		movs	r3, #0
 233 0006 1370     		strb	r3, [r2]
  72:Generated_Source\PSoC5/fineDAC.c **** 
 234              		.loc 1 72 0
 235 0008 0420     		movs	r0, #4
  63:Generated_Source\PSoC5/fineDAC.c ****     #endif /* (fineDAC_DEFAULT_DATA_SRC != 0 ) */
 236              		.loc 1 63 0
 237 000a 5370     		strb	r3, [r2, #1]
  72:Generated_Source\PSoC5/fineDAC.c **** 
 238              		.loc 1 72 0
 239 000c FFF7FEFF 		bl	fineDAC_SetRange
 240              	.LVL8:
  76:Generated_Source\PSoC5/fineDAC.c **** 
 241              		.loc 1 76 0
 242 0010 BDE80840 		pop	{r3, lr}
 243              		.cfi_restore 14
 244              		.cfi_restore 3
 245              		.cfi_def_cfa_offset 0
  75:Generated_Source\PSoC5/fineDAC.c **** }
 246              		.loc 1 75 0
 247 0014 0220     		movs	r0, #2
 248 0016 FFF7FEBF 		b	fineDAC_SetSpeed
 249              	.LVL9:
 250              	.L21:
 251 001a 00BF     		.align	2
 252              	.L20:
 253 001c 2C580040 		.word	1073764396
 254              		.cfi_endproc
 255              	.LFE0:
 256              		.size	fineDAC_Init, .-fineDAC_Init
 257              		.section	.text.fineDAC_Start,"ax",%progbits
 258              		.align	1
 259              		.global	fineDAC_Start
 260              		.thumb
 261              		.thumb_func
ARM GAS  C:\Users\THOMPS~1\AppData\Local\Temp\ccP1wsW2.s 			page 11


 262              		.type	fineDAC_Start, %function
 263              	fineDAC_Start:
 264              	.LFB2:
 134:Generated_Source\PSoC5/fineDAC.c ****     /* Hardware initiazation only needs to occure the first time */
 265              		.loc 1 134 0
 266              		.cfi_startproc
 267              		@ args = 0, pretend = 0, frame = 0
 268              		@ frame_needed = 0, uses_anonymous_args = 0
 269 0000 08B5     		push	{r3, lr}
 270              		.cfi_def_cfa_offset 8
 271              		.cfi_offset 3, -8
 272              		.cfi_offset 14, -4
 136:Generated_Source\PSoC5/fineDAC.c ****     { 
 273              		.loc 1 136 0
 274 0002 0649     		ldr	r1, .L25
 275 0004 0B78     		ldrb	r3, [r1]	@ zero_extendqisi2
 276 0006 1BB9     		cbnz	r3, .L23
 138:Generated_Source\PSoC5/fineDAC.c ****         fineDAC_initVar = 1u;
 277              		.loc 1 138 0
 278 0008 FFF7FEFF 		bl	fineDAC_Init
 279              	.LVL10:
 139:Generated_Source\PSoC5/fineDAC.c ****     }
 280              		.loc 1 139 0
 281 000c 0123     		movs	r3, #1
 282 000e 0B70     		strb	r3, [r1]
 283              	.L23:
 143:Generated_Source\PSoC5/fineDAC.c **** 
 284              		.loc 1 143 0
 285 0010 FFF7FEFF 		bl	fineDAC_Enable
 286              	.LVL11:
 287              	.LBB4:
 288              	.LBB5:
 260:Generated_Source\PSoC5/fineDAC.c **** 
 289              		.loc 1 260 0
 290 0014 024B     		ldr	r3, .L25+4
 291 0016 6422     		movs	r2, #100
 292 0018 1A70     		strb	r2, [r3]
 293              	.LVL12:
 294 001a 08BD     		pop	{r3, pc}
 295              	.L26:
 296              		.align	2
 297              	.L25:
 298 001c 00000000 		.word	.LANCHOR0
 299 0020 835B0040 		.word	1073765251
 300              	.LBE5:
 301              	.LBE4:
 302              		.cfi_endproc
 303              	.LFE2:
 304              		.size	fineDAC_Start, .-fineDAC_Start
 305              		.global	fineDAC_initVar
 306              		.bss
 307              		.set	.LANCHOR0,. + 0
 308              		.type	fineDAC_initVar, %object
 309              		.size	fineDAC_initVar, 1
 310              	fineDAC_initVar:
 311 0000 00       		.space	1
 312              		.text
ARM GAS  C:\Users\THOMPS~1\AppData\Local\Temp\ccP1wsW2.s 			page 12


 313              	.Letext0:
 314              		.file 2 "Generated_Source\\PSoC5\\cytypes.h"