ARM GAS  C:\Users\THOMPS~1\AppData\Local\Temp\ccarQ67K.s 			page 1


   1              		.syntax unified
   2              		.cpu cortex-m3
   3              		.fpu softvfp
   4              		.eabi_attribute 20, 1
   5              		.eabi_attribute 21, 1
   6              		.eabi_attribute 23, 3
   7              		.eabi_attribute 24, 1
   8              		.eabi_attribute 25, 1
   9              		.eabi_attribute 26, 1
  10              		.eabi_attribute 30, 4
  11              		.eabi_attribute 34, 1
  12              		.eabi_attribute 18, 4
  13              		.thumb
  14              		.syntax unified
  15              		.file	"LFOutADC_PM.c"
  16              		.text
  17              	.Ltext0:
  18              		.cfi_sections	.debug_frame
  19              		.section	.text.LFOutADC_SaveConfig,"ax",%progbits
  20              		.align	1
  21              		.global	LFOutADC_SaveConfig
  22              		.thumb
  23              		.thumb_func
  24              		.type	LFOutADC_SaveConfig, %function
  25              	LFOutADC_SaveConfig:
  26              	.LFB0:
  27              		.file 1 "Generated_Source\\PSoC5\\LFOutADC_PM.c"
   1:Generated_Source\PSoC5/LFOutADC_PM.c **** /*******************************************************************************
   2:Generated_Source\PSoC5/LFOutADC_PM.c **** * File Name: LFOutADC_PM.c
   3:Generated_Source\PSoC5/LFOutADC_PM.c **** * Version 3.30
   4:Generated_Source\PSoC5/LFOutADC_PM.c **** *
   5:Generated_Source\PSoC5/LFOutADC_PM.c **** * Description:
   6:Generated_Source\PSoC5/LFOutADC_PM.c **** *  This file provides the power manager source code to the API for the
   7:Generated_Source\PSoC5/LFOutADC_PM.c **** *  Delta-Sigma ADC Component.
   8:Generated_Source\PSoC5/LFOutADC_PM.c **** *
   9:Generated_Source\PSoC5/LFOutADC_PM.c **** * Note:
  10:Generated_Source\PSoC5/LFOutADC_PM.c **** *
  11:Generated_Source\PSoC5/LFOutADC_PM.c **** ********************************************************************************
  12:Generated_Source\PSoC5/LFOutADC_PM.c **** * Copyright 2008-2017, Cypress Semiconductor Corporation.  All rights reserved.
  13:Generated_Source\PSoC5/LFOutADC_PM.c **** * You may use this file only in accordance with the license, terms, conditions,
  14:Generated_Source\PSoC5/LFOutADC_PM.c **** * disclaimers, and limitations in the end user license agreement accompanying
  15:Generated_Source\PSoC5/LFOutADC_PM.c **** * the software package with which this file was provided.
  16:Generated_Source\PSoC5/LFOutADC_PM.c **** *******************************************************************************/
  17:Generated_Source\PSoC5/LFOutADC_PM.c **** 
  18:Generated_Source\PSoC5/LFOutADC_PM.c **** #include "LFOutADC.h"
  19:Generated_Source\PSoC5/LFOutADC_PM.c **** 
  20:Generated_Source\PSoC5/LFOutADC_PM.c **** static LFOutADC_BACKUP_STRUCT LFOutADC_backup =
  21:Generated_Source\PSoC5/LFOutADC_PM.c **** {
  22:Generated_Source\PSoC5/LFOutADC_PM.c ****     LFOutADC_DISABLED,
  23:Generated_Source\PSoC5/LFOutADC_PM.c ****     LFOutADC_CFG1_DEC_CR
  24:Generated_Source\PSoC5/LFOutADC_PM.c **** };
  25:Generated_Source\PSoC5/LFOutADC_PM.c **** 
  26:Generated_Source\PSoC5/LFOutADC_PM.c **** 
  27:Generated_Source\PSoC5/LFOutADC_PM.c **** /*******************************************************************************
  28:Generated_Source\PSoC5/LFOutADC_PM.c **** * Function Name: LFOutADC_SaveConfig
  29:Generated_Source\PSoC5/LFOutADC_PM.c **** ********************************************************************************
  30:Generated_Source\PSoC5/LFOutADC_PM.c **** *
ARM GAS  C:\Users\THOMPS~1\AppData\Local\Temp\ccarQ67K.s 			page 2


  31:Generated_Source\PSoC5/LFOutADC_PM.c **** * Summary:
  32:Generated_Source\PSoC5/LFOutADC_PM.c **** *  Save the register configuration which are not retention.
  33:Generated_Source\PSoC5/LFOutADC_PM.c **** *
  34:Generated_Source\PSoC5/LFOutADC_PM.c **** * Parameters:
  35:Generated_Source\PSoC5/LFOutADC_PM.c **** *  None
  36:Generated_Source\PSoC5/LFOutADC_PM.c **** *
  37:Generated_Source\PSoC5/LFOutADC_PM.c **** * Return:
  38:Generated_Source\PSoC5/LFOutADC_PM.c **** *  None
  39:Generated_Source\PSoC5/LFOutADC_PM.c **** *
  40:Generated_Source\PSoC5/LFOutADC_PM.c **** * Global variables:
  41:Generated_Source\PSoC5/LFOutADC_PM.c **** *  LFOutADC_backup:  This global structure variable is used to store
  42:Generated_Source\PSoC5/LFOutADC_PM.c **** *  configuration registers which are non retention whenever user wants to go
  43:Generated_Source\PSoC5/LFOutADC_PM.c **** *  sleep mode by calling Sleep() API.
  44:Generated_Source\PSoC5/LFOutADC_PM.c **** *
  45:Generated_Source\PSoC5/LFOutADC_PM.c **** *******************************************************************************/
  46:Generated_Source\PSoC5/LFOutADC_PM.c **** void LFOutADC_SaveConfig(void) 
  47:Generated_Source\PSoC5/LFOutADC_PM.c **** {
  28              		.loc 1 47 0
  29              		.cfi_startproc
  30              		@ args = 0, pretend = 0, frame = 0
  31              		@ frame_needed = 0, uses_anonymous_args = 0
  32              		@ link register save eliminated.
  48:Generated_Source\PSoC5/LFOutADC_PM.c ****     LFOutADC_backup.deccr = LFOutADC_DEC_CR_REG;
  33              		.loc 1 48 0
  34 0000 024B     		ldr	r3, .L2
  35 0002 1A78     		ldrb	r2, [r3]	@ zero_extendqisi2
  36 0004 024B     		ldr	r3, .L2+4
  37 0006 5A70     		strb	r2, [r3, #1]
  38 0008 7047     		bx	lr
  39              	.L3:
  40 000a 00BF     		.align	2
  41              	.L2:
  42 000c 004E0040 		.word	1073761792
  43 0010 00000000 		.word	.LANCHOR0
  44              		.cfi_endproc
  45              	.LFE0:
  46              		.size	LFOutADC_SaveConfig, .-LFOutADC_SaveConfig
  47              		.section	.text.LFOutADC_RestoreConfig,"ax",%progbits
  48              		.align	1
  49              		.global	LFOutADC_RestoreConfig
  50              		.thumb
  51              		.thumb_func
  52              		.type	LFOutADC_RestoreConfig, %function
  53              	LFOutADC_RestoreConfig:
  54              	.LFB1:
  49:Generated_Source\PSoC5/LFOutADC_PM.c **** }
  50:Generated_Source\PSoC5/LFOutADC_PM.c **** 
  51:Generated_Source\PSoC5/LFOutADC_PM.c **** 
  52:Generated_Source\PSoC5/LFOutADC_PM.c **** /*******************************************************************************
  53:Generated_Source\PSoC5/LFOutADC_PM.c **** * Function Name: LFOutADC_RestoreConfig
  54:Generated_Source\PSoC5/LFOutADC_PM.c **** ********************************************************************************
  55:Generated_Source\PSoC5/LFOutADC_PM.c **** *
  56:Generated_Source\PSoC5/LFOutADC_PM.c **** * Summary:
  57:Generated_Source\PSoC5/LFOutADC_PM.c **** *  Restore the register configurations which are not retention.
  58:Generated_Source\PSoC5/LFOutADC_PM.c **** *
  59:Generated_Source\PSoC5/LFOutADC_PM.c **** * Parameters:
  60:Generated_Source\PSoC5/LFOutADC_PM.c **** *  None
ARM GAS  C:\Users\THOMPS~1\AppData\Local\Temp\ccarQ67K.s 			page 3


  61:Generated_Source\PSoC5/LFOutADC_PM.c **** *
  62:Generated_Source\PSoC5/LFOutADC_PM.c **** * Return:
  63:Generated_Source\PSoC5/LFOutADC_PM.c **** *  None
  64:Generated_Source\PSoC5/LFOutADC_PM.c **** *
  65:Generated_Source\PSoC5/LFOutADC_PM.c **** * Global variables:
  66:Generated_Source\PSoC5/LFOutADC_PM.c **** *  LFOutADC_backup:  This global structure variable is used to restore
  67:Generated_Source\PSoC5/LFOutADC_PM.c **** *  configuration registers which are non retention whenever user wants to switch
  68:Generated_Source\PSoC5/LFOutADC_PM.c **** *  to active power mode by calling Wakeup() API.
  69:Generated_Source\PSoC5/LFOutADC_PM.c **** *
  70:Generated_Source\PSoC5/LFOutADC_PM.c **** *******************************************************************************/
  71:Generated_Source\PSoC5/LFOutADC_PM.c **** void LFOutADC_RestoreConfig(void) 
  72:Generated_Source\PSoC5/LFOutADC_PM.c **** {
  55              		.loc 1 72 0
  56              		.cfi_startproc
  57              		@ args = 0, pretend = 0, frame = 0
  58              		@ frame_needed = 0, uses_anonymous_args = 0
  59              		@ link register save eliminated.
  73:Generated_Source\PSoC5/LFOutADC_PM.c ****     LFOutADC_DEC_CR_REG = LFOutADC_backup.deccr;
  60              		.loc 1 73 0
  61 0000 024B     		ldr	r3, .L5
  62 0002 5A78     		ldrb	r2, [r3, #1]	@ zero_extendqisi2
  63 0004 024B     		ldr	r3, .L5+4
  64 0006 1A70     		strb	r2, [r3]
  65 0008 7047     		bx	lr
  66              	.L6:
  67 000a 00BF     		.align	2
  68              	.L5:
  69 000c 00000000 		.word	.LANCHOR0
  70 0010 004E0040 		.word	1073761792
  71              		.cfi_endproc
  72              	.LFE1:
  73              		.size	LFOutADC_RestoreConfig, .-LFOutADC_RestoreConfig
  74              		.section	.text.LFOutADC_Sleep,"ax",%progbits
  75              		.align	1
  76              		.global	LFOutADC_Sleep
  77              		.thumb
  78              		.thumb_func
  79              		.type	LFOutADC_Sleep, %function
  80              	LFOutADC_Sleep:
  81              	.LFB2:
  74:Generated_Source\PSoC5/LFOutADC_PM.c **** }
  75:Generated_Source\PSoC5/LFOutADC_PM.c **** 
  76:Generated_Source\PSoC5/LFOutADC_PM.c **** 
  77:Generated_Source\PSoC5/LFOutADC_PM.c **** /*******************************************************************************
  78:Generated_Source\PSoC5/LFOutADC_PM.c **** * Function Name: LFOutADC_Sleep
  79:Generated_Source\PSoC5/LFOutADC_PM.c **** ********************************************************************************
  80:Generated_Source\PSoC5/LFOutADC_PM.c **** *
  81:Generated_Source\PSoC5/LFOutADC_PM.c **** * Summary:
  82:Generated_Source\PSoC5/LFOutADC_PM.c **** *  Stops the operation of the block and saves the user configuration.
  83:Generated_Source\PSoC5/LFOutADC_PM.c **** *
  84:Generated_Source\PSoC5/LFOutADC_PM.c **** * Parameters:
  85:Generated_Source\PSoC5/LFOutADC_PM.c **** *  None
  86:Generated_Source\PSoC5/LFOutADC_PM.c **** *
  87:Generated_Source\PSoC5/LFOutADC_PM.c **** * Return:
  88:Generated_Source\PSoC5/LFOutADC_PM.c **** *  None
  89:Generated_Source\PSoC5/LFOutADC_PM.c **** *
  90:Generated_Source\PSoC5/LFOutADC_PM.c **** * Global variables:
ARM GAS  C:\Users\THOMPS~1\AppData\Local\Temp\ccarQ67K.s 			page 4


  91:Generated_Source\PSoC5/LFOutADC_PM.c **** *  LFOutADC_backup:  The structure field 'enableState' is modified
  92:Generated_Source\PSoC5/LFOutADC_PM.c **** *  depending on the enable state of the block before entering to sleep mode.
  93:Generated_Source\PSoC5/LFOutADC_PM.c **** *
  94:Generated_Source\PSoC5/LFOutADC_PM.c **** *******************************************************************************/
  95:Generated_Source\PSoC5/LFOutADC_PM.c **** void LFOutADC_Sleep(void) 
  96:Generated_Source\PSoC5/LFOutADC_PM.c **** {
  82              		.loc 1 96 0
  83              		.cfi_startproc
  84              		@ args = 0, pretend = 0, frame = 0
  85              		@ frame_needed = 0, uses_anonymous_args = 0
  86 0000 08B5     		push	{r3, lr}
  87              		.cfi_def_cfa_offset 8
  88              		.cfi_offset 3, -8
  89              		.cfi_offset 14, -4
  97:Generated_Source\PSoC5/LFOutADC_PM.c ****     /* Save ADC enable state */
  98:Generated_Source\PSoC5/LFOutADC_PM.c ****     if((LFOutADC_ACT_PWR_DEC_EN == (LFOutADC_PWRMGR_DEC_REG & LFOutADC_ACT_PWR_DEC_EN)) &&
  90              		.loc 1 98 0
  91 0002 0D4A     		ldr	r2, .L21
  92 0004 1378     		ldrb	r3, [r2]	@ zero_extendqisi2
  93 0006 13F0010F 		tst	r3, #1
  94 000a 0C4B     		ldr	r3, .L21+4
  95 000c 0DD0     		beq	.L8
  99:Generated_Source\PSoC5/LFOutADC_PM.c ****        (LFOutADC_ACT_PWR_DSM_EN == (LFOutADC_PWRMGR_DSM_REG & LFOutADC_ACT_PWR_DSM_EN)))
  96              		.loc 1 99 0 discriminator 1
  97 000e 1278     		ldrb	r2, [r2]	@ zero_extendqisi2
  98:Generated_Source\PSoC5/LFOutADC_PM.c ****        (LFOutADC_ACT_PWR_DSM_EN == (LFOutADC_PWRMGR_DSM_REG & LFOutADC_ACT_PWR_DSM_EN)))
  98              		.loc 1 98 0 discriminator 1
  99 0010 D106     		lsls	r1, r2, #27
 100 0012 0AD5     		bpl	.L8
 100:Generated_Source\PSoC5/LFOutADC_PM.c ****     {
 101:Generated_Source\PSoC5/LFOutADC_PM.c ****         /* Component is enabled */
 102:Generated_Source\PSoC5/LFOutADC_PM.c ****         LFOutADC_backup.enableState = LFOutADC_ENABLED;
 101              		.loc 1 102 0
 102 0014 0122     		movs	r2, #1
 103 0016 1A70     		strb	r2, [r3]
 103:Generated_Source\PSoC5/LFOutADC_PM.c ****         if((LFOutADC_DEC_CR_REG & LFOutADC_DEC_START_CONV) != 0u)
 104              		.loc 1 103 0
 105 0018 094A     		ldr	r2, .L21+8
 106 001a 1278     		ldrb	r2, [r2]	@ zero_extendqisi2
 107 001c D207     		lsls	r2, r2, #31
 104:Generated_Source\PSoC5/LFOutADC_PM.c ****         {   
 105:Generated_Source\PSoC5/LFOutADC_PM.c ****             /* Conversion is started */
 106:Generated_Source\PSoC5/LFOutADC_PM.c ****             LFOutADC_backup.enableState |= LFOutADC_STARTED;
 108              		.loc 1 106 0
 109 001e 44BF     		itt	mi
 110 0020 0322     		movmi	r2, #3
 111 0022 1A70     		strbmi	r2, [r3]
 107:Generated_Source\PSoC5/LFOutADC_PM.c ****         }
 108:Generated_Source\PSoC5/LFOutADC_PM.c **** 		
 109:Generated_Source\PSoC5/LFOutADC_PM.c ****         /* Stop the configuration */
 110:Generated_Source\PSoC5/LFOutADC_PM.c ****         LFOutADC_Stop();
 112              		.loc 1 110 0
 113 0024 FFF7FEFF 		bl	LFOutADC_Stop
 114              	.LVL0:
 115 0028 01E0     		b	.L10
 116              	.L8:
 111:Generated_Source\PSoC5/LFOutADC_PM.c ****     }
ARM GAS  C:\Users\THOMPS~1\AppData\Local\Temp\ccarQ67K.s 			page 5


 112:Generated_Source\PSoC5/LFOutADC_PM.c ****     else
 113:Generated_Source\PSoC5/LFOutADC_PM.c ****     {
 114:Generated_Source\PSoC5/LFOutADC_PM.c ****         /* Component is disabled */
 115:Generated_Source\PSoC5/LFOutADC_PM.c ****         LFOutADC_backup.enableState = LFOutADC_DISABLED;
 117              		.loc 1 115 0
 118 002a 0022     		movs	r2, #0
 119 002c 1A70     		strb	r2, [r3]
 120              	.L10:
 116:Generated_Source\PSoC5/LFOutADC_PM.c ****     }
 117:Generated_Source\PSoC5/LFOutADC_PM.c **** 
 118:Generated_Source\PSoC5/LFOutADC_PM.c ****     /* Save the user configuration */
 119:Generated_Source\PSoC5/LFOutADC_PM.c ****     LFOutADC_SaveConfig();
 120:Generated_Source\PSoC5/LFOutADC_PM.c **** }
 121              		.loc 1 120 0
 122 002e BDE80840 		pop	{r3, lr}
 123              		.cfi_restore 14
 124              		.cfi_restore 3
 125              		.cfi_def_cfa_offset 0
 119:Generated_Source\PSoC5/LFOutADC_PM.c **** }
 126              		.loc 1 119 0
 127 0032 FFF7FEBF 		b	LFOutADC_SaveConfig
 128              	.LVL1:
 129              	.L22:
 130 0036 00BF     		.align	2
 131              	.L21:
 132 0038 AA430040 		.word	1073759146
 133 003c 00000000 		.word	.LANCHOR0
 134 0040 004E0040 		.word	1073761792
 135              		.cfi_endproc
 136              	.LFE2:
 137              		.size	LFOutADC_Sleep, .-LFOutADC_Sleep
 138              		.section	.text.LFOutADC_Wakeup,"ax",%progbits
 139              		.align	1
 140              		.global	LFOutADC_Wakeup
 141              		.thumb
 142              		.thumb_func
 143              		.type	LFOutADC_Wakeup, %function
 144              	LFOutADC_Wakeup:
 145              	.LFB3:
 121:Generated_Source\PSoC5/LFOutADC_PM.c **** 
 122:Generated_Source\PSoC5/LFOutADC_PM.c **** 
 123:Generated_Source\PSoC5/LFOutADC_PM.c **** /*******************************************************************************
 124:Generated_Source\PSoC5/LFOutADC_PM.c **** * Function Name: LFOutADC_Wakeup
 125:Generated_Source\PSoC5/LFOutADC_PM.c **** ********************************************************************************
 126:Generated_Source\PSoC5/LFOutADC_PM.c **** *
 127:Generated_Source\PSoC5/LFOutADC_PM.c **** * Summary:
 128:Generated_Source\PSoC5/LFOutADC_PM.c **** *  Restores the user configuration and enables the power to the block.
 129:Generated_Source\PSoC5/LFOutADC_PM.c **** *
 130:Generated_Source\PSoC5/LFOutADC_PM.c **** * Parameters:
 131:Generated_Source\PSoC5/LFOutADC_PM.c **** *  None
 132:Generated_Source\PSoC5/LFOutADC_PM.c **** *
 133:Generated_Source\PSoC5/LFOutADC_PM.c **** * Return:
 134:Generated_Source\PSoC5/LFOutADC_PM.c **** *  None
 135:Generated_Source\PSoC5/LFOutADC_PM.c **** *
 136:Generated_Source\PSoC5/LFOutADC_PM.c **** * Global variables:
 137:Generated_Source\PSoC5/LFOutADC_PM.c **** *  LFOutADC_backup:  The structure field 'enableState' is used to
 138:Generated_Source\PSoC5/LFOutADC_PM.c **** *  restore the enable state of block after wakeup from sleep mode.
ARM GAS  C:\Users\THOMPS~1\AppData\Local\Temp\ccarQ67K.s 			page 6


 139:Generated_Source\PSoC5/LFOutADC_PM.c **** *
 140:Generated_Source\PSoC5/LFOutADC_PM.c **** *******************************************************************************/
 141:Generated_Source\PSoC5/LFOutADC_PM.c **** void LFOutADC_Wakeup(void) 
 142:Generated_Source\PSoC5/LFOutADC_PM.c **** {
 146              		.loc 1 142 0
 147              		.cfi_startproc
 148              		@ args = 0, pretend = 0, frame = 0
 149              		@ frame_needed = 0, uses_anonymous_args = 0
 150 0000 10B5     		push	{r4, lr}
 151              		.cfi_def_cfa_offset 8
 152              		.cfi_offset 4, -8
 153              		.cfi_offset 14, -4
 143:Generated_Source\PSoC5/LFOutADC_PM.c ****     /* Restore the configuration */
 144:Generated_Source\PSoC5/LFOutADC_PM.c ****     LFOutADC_RestoreConfig();
 145:Generated_Source\PSoC5/LFOutADC_PM.c **** 
 146:Generated_Source\PSoC5/LFOutADC_PM.c ****     /* Enables the component operation */
 147:Generated_Source\PSoC5/LFOutADC_PM.c ****     if(LFOutADC_backup.enableState != LFOutADC_DISABLED)
 154              		.loc 1 147 0
 155 0002 074C     		ldr	r4, .L30
 144:Generated_Source\PSoC5/LFOutADC_PM.c **** 
 156              		.loc 1 144 0
 157 0004 FFF7FEFF 		bl	LFOutADC_RestoreConfig
 158              	.LVL2:
 159              		.loc 1 147 0
 160 0008 2378     		ldrb	r3, [r4]	@ zero_extendqisi2
 161 000a 43B1     		cbz	r3, .L23
 148:Generated_Source\PSoC5/LFOutADC_PM.c ****     {
 149:Generated_Source\PSoC5/LFOutADC_PM.c ****         LFOutADC_Enable();
 162              		.loc 1 149 0
 163 000c FFF7FEFF 		bl	LFOutADC_Enable
 164              	.LVL3:
 150:Generated_Source\PSoC5/LFOutADC_PM.c ****         if((LFOutADC_backup.enableState & LFOutADC_STARTED) != 0u)
 165              		.loc 1 150 0
 166 0010 2378     		ldrb	r3, [r4]	@ zero_extendqisi2
 167 0012 9B07     		lsls	r3, r3, #30
 168 0014 03D5     		bpl	.L23
 151:Generated_Source\PSoC5/LFOutADC_PM.c ****         {
 152:Generated_Source\PSoC5/LFOutADC_PM.c ****             LFOutADC_StartConvert();
 153:Generated_Source\PSoC5/LFOutADC_PM.c ****         }
 154:Generated_Source\PSoC5/LFOutADC_PM.c ****     } /* Do nothing if component was disable before */
 155:Generated_Source\PSoC5/LFOutADC_PM.c **** }
 169              		.loc 1 155 0
 170 0016 BDE81040 		pop	{r4, lr}
 171              		.cfi_remember_state
 172              		.cfi_restore 14
 173              		.cfi_restore 4
 174              		.cfi_def_cfa_offset 0
 152:Generated_Source\PSoC5/LFOutADC_PM.c ****         }
 175              		.loc 1 152 0
 176 001a FFF7FEBF 		b	LFOutADC_StartConvert
 177              	.LVL4:
 178              	.L23:
 179              		.cfi_restore_state
 180 001e 10BD     		pop	{r4, pc}
 181              	.L31:
 182              		.align	2
 183              	.L30:
ARM GAS  C:\Users\THOMPS~1\AppData\Local\Temp\ccarQ67K.s 			page 7


 184 0020 00000000 		.word	.LANCHOR0
 185              		.cfi_endproc
 186              	.LFE3:
 187              		.size	LFOutADC_Wakeup, .-LFOutADC_Wakeup
 188              		.data
 189              		.set	.LANCHOR0,. + 0
 190              		.type	LFOutADC_backup, %object
 191              		.size	LFOutADC_backup, 2
 192              	LFOutADC_backup:
 193 0000 00       		.byte	0
 194 0001 38       		.byte	56
 195              		.text
 196              	.Letext0:
 197              		.file 2 "Generated_Source\\PSoC5\\cytypes.h"
 198              		.file 3 "Generated_Source\\PSoC5\\LFOutADC.h"