ARM GAS  C:\Users\THOMPS~1\AppData\Local\Temp\ccNeT8Rd.s 			page 1


   1              		.syntax unified
   2              		.cpu cortex-m3
   3              		.fpu softvfp
   4              		.eabi_attribute 20, 1
   5              		.eabi_attribute 21, 1
   6              		.eabi_attribute 23, 3
   7              		.eabi_attribute 24, 1
   8              		.eabi_attribute 25, 1
   9              		.eabi_attribute 26, 1
  10              		.eabi_attribute 30, 4
  11              		.eabi_attribute 34, 1
  12              		.eabi_attribute 18, 4
  13              		.thumb
  14              		.syntax unified
  15              		.file	"LFOutADC_AMux.c"
  16              		.text
  17              	.Ltext0:
  18              		.cfi_sections	.debug_frame
  19              		.section	.text.LFOutADC_AMux_Start,"ax",%progbits
  20              		.align	1
  21              		.global	LFOutADC_AMux_Start
  22              		.thumb
  23              		.thumb_func
  24              		.type	LFOutADC_AMux_Start, %function
  25              	LFOutADC_AMux_Start:
  26              	.LFB0:
  27              		.file 1 "Generated_Source\\PSoC5\\LFOutADC_AMux.c"
   1:Generated_Source\PSoC5/LFOutADC_AMux.c **** /*******************************************************************************
   2:Generated_Source\PSoC5/LFOutADC_AMux.c **** * File Name: LFOutADC_AMux.c
   3:Generated_Source\PSoC5/LFOutADC_AMux.c **** * Version 1.80
   4:Generated_Source\PSoC5/LFOutADC_AMux.c **** *
   5:Generated_Source\PSoC5/LFOutADC_AMux.c **** *  Description:
   6:Generated_Source\PSoC5/LFOutADC_AMux.c **** *    This file contains all functions required for the analog multiplexer
   7:Generated_Source\PSoC5/LFOutADC_AMux.c **** *    AMux User Module.
   8:Generated_Source\PSoC5/LFOutADC_AMux.c **** *
   9:Generated_Source\PSoC5/LFOutADC_AMux.c **** *   Note:
  10:Generated_Source\PSoC5/LFOutADC_AMux.c **** *
  11:Generated_Source\PSoC5/LFOutADC_AMux.c **** *******************************************************************************
  12:Generated_Source\PSoC5/LFOutADC_AMux.c **** * Copyright 2008-2010, Cypress Semiconductor Corporation.  All rights reserved.
  13:Generated_Source\PSoC5/LFOutADC_AMux.c **** * You may use this file only in accordance with the license, terms, conditions, 
  14:Generated_Source\PSoC5/LFOutADC_AMux.c **** * disclaimers, and limitations in the end user license agreement accompanying 
  15:Generated_Source\PSoC5/LFOutADC_AMux.c **** * the software package with which this file was provided.
  16:Generated_Source\PSoC5/LFOutADC_AMux.c **** ********************************************************************************/
  17:Generated_Source\PSoC5/LFOutADC_AMux.c **** 
  18:Generated_Source\PSoC5/LFOutADC_AMux.c **** #include "LFOutADC_AMux.h"
  19:Generated_Source\PSoC5/LFOutADC_AMux.c **** 
  20:Generated_Source\PSoC5/LFOutADC_AMux.c **** static uint8 LFOutADC_AMux_lastChannel = LFOutADC_AMux_NULL_CHANNEL;
  21:Generated_Source\PSoC5/LFOutADC_AMux.c **** 
  22:Generated_Source\PSoC5/LFOutADC_AMux.c **** 
  23:Generated_Source\PSoC5/LFOutADC_AMux.c **** /*******************************************************************************
  24:Generated_Source\PSoC5/LFOutADC_AMux.c **** * Function Name: LFOutADC_AMux_Start
  25:Generated_Source\PSoC5/LFOutADC_AMux.c **** ********************************************************************************
  26:Generated_Source\PSoC5/LFOutADC_AMux.c **** * Summary:
  27:Generated_Source\PSoC5/LFOutADC_AMux.c **** *  Disconnect all channels.
  28:Generated_Source\PSoC5/LFOutADC_AMux.c **** *
  29:Generated_Source\PSoC5/LFOutADC_AMux.c **** * Parameters:
  30:Generated_Source\PSoC5/LFOutADC_AMux.c **** *  void
ARM GAS  C:\Users\THOMPS~1\AppData\Local\Temp\ccNeT8Rd.s 			page 2


  31:Generated_Source\PSoC5/LFOutADC_AMux.c **** *
  32:Generated_Source\PSoC5/LFOutADC_AMux.c **** * Return:
  33:Generated_Source\PSoC5/LFOutADC_AMux.c **** *  void
  34:Generated_Source\PSoC5/LFOutADC_AMux.c **** *
  35:Generated_Source\PSoC5/LFOutADC_AMux.c **** *******************************************************************************/
  36:Generated_Source\PSoC5/LFOutADC_AMux.c **** void LFOutADC_AMux_Start(void) 
  37:Generated_Source\PSoC5/LFOutADC_AMux.c **** {
  28              		.loc 1 37 0
  29              		.cfi_startproc
  30              		@ args = 0, pretend = 0, frame = 0
  31              		@ frame_needed = 0, uses_anonymous_args = 0
  32              	.LVL0:
  33 0000 08B5     		push	{r3, lr}
  34              		.cfi_def_cfa_offset 8
  35              		.cfi_offset 3, -8
  36              		.cfi_offset 14, -4
  38:Generated_Source\PSoC5/LFOutADC_AMux.c ****     uint8 chan;
  39:Generated_Source\PSoC5/LFOutADC_AMux.c **** 
  40:Generated_Source\PSoC5/LFOutADC_AMux.c ****     for(chan = 0u; chan < LFOutADC_AMux_CHANNELS ; chan++)
  41:Generated_Source\PSoC5/LFOutADC_AMux.c ****     {
  42:Generated_Source\PSoC5/LFOutADC_AMux.c **** #if (LFOutADC_AMux_MUXTYPE == LFOutADC_AMux_MUX_SINGLE)
  43:Generated_Source\PSoC5/LFOutADC_AMux.c ****         LFOutADC_AMux_Unset(chan);
  37              		.loc 1 43 0
  38 0002 0020     		movs	r0, #0
  39 0004 FFF7FEFF 		bl	LFOutADC_AMux_Unset
  40              	.LVL1:
  41 0008 0120     		movs	r0, #1
  42 000a FFF7FEFF 		bl	LFOutADC_AMux_Unset
  43              	.LVL2:
  44:Generated_Source\PSoC5/LFOutADC_AMux.c **** #else
  45:Generated_Source\PSoC5/LFOutADC_AMux.c ****         LFOutADC_AMux_CYAMUXSIDE_A_Unset(chan);
  46:Generated_Source\PSoC5/LFOutADC_AMux.c ****         LFOutADC_AMux_CYAMUXSIDE_B_Unset(chan);
  47:Generated_Source\PSoC5/LFOutADC_AMux.c **** #endif
  48:Generated_Source\PSoC5/LFOutADC_AMux.c ****     }
  49:Generated_Source\PSoC5/LFOutADC_AMux.c **** 
  50:Generated_Source\PSoC5/LFOutADC_AMux.c ****     LFOutADC_AMux_lastChannel = LFOutADC_AMux_NULL_CHANNEL;
  44              		.loc 1 50 0
  45 000e 024B     		ldr	r3, .L2
  46 0010 FF22     		movs	r2, #255
  47 0012 1A70     		strb	r2, [r3]
  48 0014 08BD     		pop	{r3, pc}
  49              	.L3:
  50 0016 00BF     		.align	2
  51              	.L2:
  52 0018 00000000 		.word	.LANCHOR0
  53              		.cfi_endproc
  54              	.LFE0:
  55              		.size	LFOutADC_AMux_Start, .-LFOutADC_AMux_Start
  56              		.section	.text.LFOutADC_AMux_Select,"ax",%progbits
  57              		.align	1
  58              		.global	LFOutADC_AMux_Select
  59              		.thumb
  60              		.thumb_func
  61              		.type	LFOutADC_AMux_Select, %function
  62              	LFOutADC_AMux_Select:
  63              	.LFB1:
  51:Generated_Source\PSoC5/LFOutADC_AMux.c **** }
ARM GAS  C:\Users\THOMPS~1\AppData\Local\Temp\ccNeT8Rd.s 			page 3


  52:Generated_Source\PSoC5/LFOutADC_AMux.c **** 
  53:Generated_Source\PSoC5/LFOutADC_AMux.c **** 
  54:Generated_Source\PSoC5/LFOutADC_AMux.c **** #if (!LFOutADC_AMux_ATMOSTONE)
  55:Generated_Source\PSoC5/LFOutADC_AMux.c **** /*******************************************************************************
  56:Generated_Source\PSoC5/LFOutADC_AMux.c **** * Function Name: LFOutADC_AMux_Select
  57:Generated_Source\PSoC5/LFOutADC_AMux.c **** ********************************************************************************
  58:Generated_Source\PSoC5/LFOutADC_AMux.c **** * Summary:
  59:Generated_Source\PSoC5/LFOutADC_AMux.c **** *  This functions first disconnects all channels then connects the given
  60:Generated_Source\PSoC5/LFOutADC_AMux.c **** *  channel.
  61:Generated_Source\PSoC5/LFOutADC_AMux.c **** *
  62:Generated_Source\PSoC5/LFOutADC_AMux.c **** * Parameters:
  63:Generated_Source\PSoC5/LFOutADC_AMux.c **** *  channel:  The channel to connect to the common terminal.
  64:Generated_Source\PSoC5/LFOutADC_AMux.c **** *
  65:Generated_Source\PSoC5/LFOutADC_AMux.c **** * Return:
  66:Generated_Source\PSoC5/LFOutADC_AMux.c **** *  void
  67:Generated_Source\PSoC5/LFOutADC_AMux.c **** *
  68:Generated_Source\PSoC5/LFOutADC_AMux.c **** *******************************************************************************/
  69:Generated_Source\PSoC5/LFOutADC_AMux.c **** void LFOutADC_AMux_Select(uint8 channel) 
  70:Generated_Source\PSoC5/LFOutADC_AMux.c **** {
  64              		.loc 1 70 0
  65              		.cfi_startproc
  66              		@ args = 0, pretend = 0, frame = 0
  67              		@ frame_needed = 0, uses_anonymous_args = 0
  68              	.LVL3:
  69 0000 10B5     		push	{r4, lr}
  70              		.cfi_def_cfa_offset 8
  71              		.cfi_offset 4, -8
  72              		.cfi_offset 14, -4
  73              		.loc 1 70 0
  74 0002 0446     		mov	r4, r0
  71:Generated_Source\PSoC5/LFOutADC_AMux.c ****     LFOutADC_AMux_DisconnectAll();        /* Disconnect all previous connections */
  75              		.loc 1 71 0
  76 0004 FFF7FEFF 		bl	LFOutADC_AMux_Start
  77              	.LVL4:
  72:Generated_Source\PSoC5/LFOutADC_AMux.c ****     LFOutADC_AMux_Connect(channel);       /* Make the given selection */
  78              		.loc 1 72 0
  79 0008 2046     		mov	r0, r4
  80 000a FFF7FEFF 		bl	LFOutADC_AMux_Set
  81              	.LVL5:
  73:Generated_Source\PSoC5/LFOutADC_AMux.c ****     LFOutADC_AMux_lastChannel = channel;  /* Update last channel */
  82              		.loc 1 73 0
  83 000e 014B     		ldr	r3, .L5
  84 0010 1C70     		strb	r4, [r3]
  85 0012 10BD     		pop	{r4, pc}
  86              	.L6:
  87              		.align	2
  88              	.L5:
  89 0014 00000000 		.word	.LANCHOR0
  90              		.cfi_endproc
  91              	.LFE1:
  92              		.size	LFOutADC_AMux_Select, .-LFOutADC_AMux_Select
  93              		.section	.text.LFOutADC_AMux_FastSelect,"ax",%progbits
  94              		.align	1
  95              		.global	LFOutADC_AMux_FastSelect
  96              		.thumb
  97              		.thumb_func
  98              		.type	LFOutADC_AMux_FastSelect, %function
ARM GAS  C:\Users\THOMPS~1\AppData\Local\Temp\ccNeT8Rd.s 			page 4


  99              	LFOutADC_AMux_FastSelect:
 100              	.LFB2:
  74:Generated_Source\PSoC5/LFOutADC_AMux.c **** }
  75:Generated_Source\PSoC5/LFOutADC_AMux.c **** #endif
  76:Generated_Source\PSoC5/LFOutADC_AMux.c **** 
  77:Generated_Source\PSoC5/LFOutADC_AMux.c **** 
  78:Generated_Source\PSoC5/LFOutADC_AMux.c **** /*******************************************************************************
  79:Generated_Source\PSoC5/LFOutADC_AMux.c **** * Function Name: LFOutADC_AMux_FastSelect
  80:Generated_Source\PSoC5/LFOutADC_AMux.c **** ********************************************************************************
  81:Generated_Source\PSoC5/LFOutADC_AMux.c **** * Summary:
  82:Generated_Source\PSoC5/LFOutADC_AMux.c **** *  This function first disconnects the last connection made with FastSelect or
  83:Generated_Source\PSoC5/LFOutADC_AMux.c **** *  Select, then connects the given channel. The FastSelect function is similar
  84:Generated_Source\PSoC5/LFOutADC_AMux.c **** *  to the Select function, except it is faster since it only disconnects the
  85:Generated_Source\PSoC5/LFOutADC_AMux.c **** *  last channel selected rather than all channels.
  86:Generated_Source\PSoC5/LFOutADC_AMux.c **** *
  87:Generated_Source\PSoC5/LFOutADC_AMux.c **** * Parameters:
  88:Generated_Source\PSoC5/LFOutADC_AMux.c **** *  channel:  The channel to connect to the common terminal.
  89:Generated_Source\PSoC5/LFOutADC_AMux.c **** *
  90:Generated_Source\PSoC5/LFOutADC_AMux.c **** * Return:
  91:Generated_Source\PSoC5/LFOutADC_AMux.c **** *  void
  92:Generated_Source\PSoC5/LFOutADC_AMux.c **** *
  93:Generated_Source\PSoC5/LFOutADC_AMux.c **** *******************************************************************************/
  94:Generated_Source\PSoC5/LFOutADC_AMux.c **** void LFOutADC_AMux_FastSelect(uint8 channel) 
  95:Generated_Source\PSoC5/LFOutADC_AMux.c **** {
 101              		.loc 1 95 0
 102              		.cfi_startproc
 103              		@ args = 0, pretend = 0, frame = 0
 104              		@ frame_needed = 0, uses_anonymous_args = 0
 105              	.LVL6:
 106 0000 38B5     		push	{r3, r4, r5, lr}
 107              		.cfi_def_cfa_offset 16
 108              		.cfi_offset 3, -16
 109              		.cfi_offset 4, -12
 110              		.cfi_offset 5, -8
 111              		.cfi_offset 14, -4
  96:Generated_Source\PSoC5/LFOutADC_AMux.c ****     /* Disconnect the last valid channel */
  97:Generated_Source\PSoC5/LFOutADC_AMux.c ****     if( LFOutADC_AMux_lastChannel != LFOutADC_AMux_NULL_CHANNEL)
 112              		.loc 1 97 0
 113 0002 064B     		ldr	r3, .L13
  95:Generated_Source\PSoC5/LFOutADC_AMux.c ****     /* Disconnect the last valid channel */
 114              		.loc 1 95 0
 115 0004 0546     		mov	r5, r0
 116              		.loc 1 97 0
 117 0006 1878     		ldrb	r0, [r3]	@ zero_extendqisi2
 118              	.LVL7:
 119 0008 1C46     		mov	r4, r3
 120 000a FF28     		cmp	r0, #255
 121 000c 01D0     		beq	.L8
  98:Generated_Source\PSoC5/LFOutADC_AMux.c ****     {
  99:Generated_Source\PSoC5/LFOutADC_AMux.c ****         LFOutADC_AMux_Disconnect(LFOutADC_AMux_lastChannel);
 122              		.loc 1 99 0
 123 000e FFF7FEFF 		bl	LFOutADC_AMux_Unset
 124              	.LVL8:
 125              	.L8:
 100:Generated_Source\PSoC5/LFOutADC_AMux.c ****     }
 101:Generated_Source\PSoC5/LFOutADC_AMux.c **** 
 102:Generated_Source\PSoC5/LFOutADC_AMux.c ****     /* Make the new channel connection */
ARM GAS  C:\Users\THOMPS~1\AppData\Local\Temp\ccNeT8Rd.s 			page 5


 103:Generated_Source\PSoC5/LFOutADC_AMux.c **** #if (LFOutADC_AMux_MUXTYPE == LFOutADC_AMux_MUX_SINGLE)
 104:Generated_Source\PSoC5/LFOutADC_AMux.c ****     LFOutADC_AMux_Set(channel);
 126              		.loc 1 104 0
 127 0012 2846     		mov	r0, r5
 128 0014 FFF7FEFF 		bl	LFOutADC_AMux_Set
 129              	.LVL9:
 105:Generated_Source\PSoC5/LFOutADC_AMux.c **** #else
 106:Generated_Source\PSoC5/LFOutADC_AMux.c ****     LFOutADC_AMux_CYAMUXSIDE_A_Set(channel);
 107:Generated_Source\PSoC5/LFOutADC_AMux.c ****     LFOutADC_AMux_CYAMUXSIDE_B_Set(channel);
 108:Generated_Source\PSoC5/LFOutADC_AMux.c **** #endif
 109:Generated_Source\PSoC5/LFOutADC_AMux.c **** 
 110:Generated_Source\PSoC5/LFOutADC_AMux.c **** 
 111:Generated_Source\PSoC5/LFOutADC_AMux.c ****     LFOutADC_AMux_lastChannel = channel;   /* Update last channel */
 130              		.loc 1 111 0
 131 0018 2570     		strb	r5, [r4]
 132 001a 38BD     		pop	{r3, r4, r5, pc}
 133              	.L14:
 134              		.align	2
 135              	.L13:
 136 001c 00000000 		.word	.LANCHOR0
 137              		.cfi_endproc
 138              	.LFE2:
 139              		.size	LFOutADC_AMux_FastSelect, .-LFOutADC_AMux_FastSelect
 140              		.data
 141              		.set	.LANCHOR0,. + 0
 142              		.type	LFOutADC_AMux_lastChannel, %object
 143              		.size	LFOutADC_AMux_lastChannel, 1
 144              	LFOutADC_AMux_lastChannel:
 145 0000 FF       		.byte	-1
 146              		.text
 147              	.Letext0:
 148              		.file 2 "Generated_Source\\PSoC5\\cyfitter_cfg.h"
 149              		.file 3 "Generated_Source\\PSoC5\\cytypes.h"