ARM GAS  C:\Users\THOMPS~1\AppData\Local\Temp\cci8NtKl.s 			page 1


   1              		.syntax unified
   2              		.cpu cortex-m3
   3              		.fpu softvfp
   4              		.eabi_attribute 20, 1
   5              		.eabi_attribute 21, 1
   6              		.eabi_attribute 23, 3
   7              		.eabi_attribute 24, 1
   8              		.eabi_attribute 25, 1
   9              		.eabi_attribute 26, 1
  10              		.eabi_attribute 30, 4
  11              		.eabi_attribute 34, 1
  12              		.eabi_attribute 18, 4
  13              		.thumb
  14              		.syntax unified
  15              		.file	"main.c"
  16              		.text
  17              	.Ltext0:
  18              		.cfi_sections	.debug_frame
  19              		.global	__aeabi_f2d
  20              		.global	__aeabi_dadd
  21              		.global	__aeabi_d2f
  22              		.global	__aeabi_dsub
  23              		.section	.text.startup.main,"ax",%progbits
  24              		.align	1
  25              		.global	main
  26              		.thumb
  27              		.thumb_func
  28              		.type	main, %function
  29              	main:
  30              	.LFB64:
  31              		.file 1 "main.c"
   1:main.c        **** /* ================================================================
   2:main.c        **** Automated Laser Frequency Relocking Procedure
   3:main.c        **** Original Programmer: Denton Wu
   4:main.c        **** Last modified: Sept 2018
   5:main.c        **** Notes:
   6:main.c        **** 
   7:main.c        **** Greetings relocker user or improver. This is the main relocker algorithm.
   8:main.c        **** There are two parts to the code: the setup and the relocking procedure. 
   9:main.c        **** 
  10:main.c        **** If float voltages will not display, PSoC Creator has updated and you need
  11:main.c        **** to reset the gcc compiler options to handle floats (see manual).
  12:main.c        **** ==================================================================*/
  13:main.c        **** 
  14:main.c        **** #include "project.h"
  15:main.c        **** #include "utility.h"
  16:main.c        **** #include <stdbool.h>
  17:main.c        **** #include <stdio.h>
  18:main.c        **** 
  19:main.c        **** 
  20:main.c        **** int main(void) {
  32              		.loc 1 20 0
  33              		.cfi_startproc
  34              		@ args = 0, pretend = 0, frame = 848
  35              		@ frame_needed = 0, uses_anonymous_args = 0
  36 0000 2DE9F04F 		push	{r4, r5, r6, r7, r8, r9, r10, fp, lr}
  37              		.cfi_def_cfa_offset 36
ARM GAS  C:\Users\THOMPS~1\AppData\Local\Temp\cci8NtKl.s 			page 2


  38              		.cfi_offset 4, -36
  39              		.cfi_offset 5, -32
  40              		.cfi_offset 6, -28
  41              		.cfi_offset 7, -24
  42              		.cfi_offset 8, -20
  43              		.cfi_offset 9, -16
  44              		.cfi_offset 10, -12
  45              		.cfi_offset 11, -8
  46              		.cfi_offset 14, -4
  47 0004 ADF55D7D 		sub	sp, sp, #884
  48              		.cfi_def_cfa_offset 920
  21:main.c        ****   CyGlobalIntEnable                // enable global interrupts...
  49              		.loc 1 21 0
  50              		.syntax unified
  51              	@ 21 "main.c" 1
  52 0008 62B6     		CPSIE   i
  53              	@ 0 "" 2
  54              	.LVL0:
  22:main.c        ****   int MAX_FAILS_BEFORE_LED = 20;   // consecutive relock attempts before red LED turns on
  23:main.c        ****   int SWEEP_DELAY_US = 1;          // software delay in microseconds/step to slow sweep
  24:main.c        ****   bool TEST_VOLTAGE_MODE = false;  // loop an input/output voltage test sequence
  25:main.c        ****   
  26:main.c        ****   int16 logErrMon[255] = {};     // Do not change without taking care of overflow in code below!
  55              		.loc 1 26 0
  56              		.thumb
  57              		.syntax unified
  58 000a 4FF4FF72 		mov	r2, #510
  59 000e 0021     		movs	r1, #0
  60 0010 5CA8     		add	r0, sp, #368
  61 0012 FFF7FEFF 		bl	memset
  62              	.LVL1:
  27:main.c        ****                                  // Should be upperDACSweepLevel-lowerDACSweepLevel (4673 for 0.5V 
  28:main.c        ****                                  // but this takes too long to send over serial so we will store 51
  29:main.c        ****   bool boolLogErrMon = true;     // 
  30:main.c        ****   int16 logErrMonCounter = 0;    // current array index
  31:main.c        ****     
  32:main.c        ****   char8 serialBuffer[255];       // allocate space for serial messages
  33:main.c        ****   int32 lockedLFLevel;           // stores calibrated in-lock LF voltage
  34:main.c        ****   int32 upperLockedLFLevel = 0;  // in-lock LF voltage plus 150mV
  35:main.c        ****   int32 lowerLockedLFLevel = 0;  // in-lock LF voltage minus 150mV
  36:main.c        ****   int32 upperDACSweepLevel = 0;  // DAC sweep upper level
  37:main.c        ****   int32 lowerDACSweepLevel = 0;  // DAC sweep lower level
  38:main.c        ****   float lockedLFV, aboveLFV = 0, belowLFV = 0;
  39:main.c        ****   int32 LFOutputMeas;            // stores a LF voltage measurement during sweep
  40:main.c        ****   int16 errMonMaximum = 0;       // stores unlocked error monitor's maximum voltage
  41:main.c        ****   int16 errMonMinimum;           // stores unlocked error monitor's minimum voltage
  42:main.c        ****   int16 errMonThreshold;         // stores unlocked error monitor's threshold at half the maximum
  43:main.c        ****   int16 errMonThreshold1;         // stores unlocked error monitor's threshold at half the maximum
  44:main.c        ****   int16 errMonThreshold2;         // stores unlocked error monitor's threshold at half the maximum
  45:main.c        ****   int16 errMonMeasurement;       // stores last error monitor voltage measurement
  46:main.c        ****   int lockFails = 0;             // number of consecutive relock failures
  47:main.c        ****   int32 counterLED = 0;          // number of consecutive relock failures
  48:main.c        ****   int blinkLED = 0;              // boolean for blinking diagnostic LEDs
  49:main.c        ****   int LFRange;         // LF range should be 8, 22, or 28 (volts) depending on loop filter model
  50:main.c        ****   int DAC150mVLevel;   // corresponds to 150mV when 2^16 is (LFRange [Volts])
  51:main.c        ****   int DACOffset; // converts 2^15 DAC counts to 0V actual output (calibrating the op amp circuits)
  52:main.c        ****   float DACRange; // calibrating the full voltage output would give slightly better DAC conversion
ARM GAS  C:\Users\THOMPS~1\AppData\Local\Temp\cci8NtKl.s 			page 3


  53:main.c        **** 
  54:main.c        ****   //tempTrigger_Write(0); // temporary
  55:main.c        ****   
  56:main.c        ****   bool debugJustCalibrated = false;
  57:main.c        ****   bool debugFirstLFSample = true;
  58:main.c        ****   bool debugFirstErrMonSample = true;
  59:main.c        ****   bool debugDropDetected = false;
  60:main.c        ****   
  61:main.c        ****   switches_Write(0); // writes to all pins attached to 'switches': aPin, bPin; box is inactive
  63              		.loc 1 61 0
  64 0016 0020     		movs	r0, #0
  65 0018 FFF7FEFF 		bl	switches_Write
  66              	.LVL2:
  62:main.c        ****   greenLight_Write(1); CyDelay(100);   // LED test
  67              		.loc 1 62 0
  68 001c 0120     		movs	r0, #1
  69 001e FFF7FEFF 		bl	greenLight_Write
  70              	.LVL3:
  71 0022 6420     		movs	r0, #100
  72 0024 FFF7FEFF 		bl	CyDelay
  73              	.LVL4:
  63:main.c        ****   yellowLight_Write(1); CyDelay(100); 
  74              		.loc 1 63 0
  75 0028 0120     		movs	r0, #1
  76 002a FFF7FEFF 		bl	yellowLight_Write
  77              	.LVL5:
  78 002e 6420     		movs	r0, #100
  79 0030 FFF7FEFF 		bl	CyDelay
  80              	.LVL6:
  64:main.c        ****   redLight_Write(1); CyDelay(100); 
  81              		.loc 1 64 0
  82 0034 0120     		movs	r0, #1
  83 0036 FFF7FEFF 		bl	redLight_Write
  84              	.LVL7:
  85 003a 6420     		movs	r0, #100
  86 003c FFF7FEFF 		bl	CyDelay
  87              	.LVL8:
  65:main.c        ****   orangeLight_Write(1); CyDelay(100);
  88              		.loc 1 65 0
  89 0040 0120     		movs	r0, #1
  90 0042 FFF7FEFF 		bl	orangeLight_Write
  91              	.LVL9:
  92 0046 6420     		movs	r0, #100
  93 0048 FFF7FEFF 		bl	CyDelay
  94              	.LVL10:
  66:main.c        ****   greenLight_Write(0); CyDelay(100);
  95              		.loc 1 66 0
  96 004c 0020     		movs	r0, #0
  97 004e FFF7FEFF 		bl	greenLight_Write
  98              	.LVL11:
  99 0052 6420     		movs	r0, #100
 100 0054 FFF7FEFF 		bl	CyDelay
 101              	.LVL12:
  67:main.c        ****   yellowLight_Write(0); CyDelay(100);
 102              		.loc 1 67 0
 103 0058 0020     		movs	r0, #0
 104 005a FFF7FEFF 		bl	yellowLight_Write
ARM GAS  C:\Users\THOMPS~1\AppData\Local\Temp\cci8NtKl.s 			page 4


 105              	.LVL13:
 106 005e 6420     		movs	r0, #100
 107 0060 FFF7FEFF 		bl	CyDelay
 108              	.LVL14:
  68:main.c        ****   redLight_Write(0); CyDelay(100);
 109              		.loc 1 68 0
 110 0064 0020     		movs	r0, #0
 111 0066 FFF7FEFF 		bl	redLight_Write
 112              	.LVL15:
 113 006a 6420     		movs	r0, #100
 114 006c FFF7FEFF 		bl	CyDelay
 115              	.LVL16:
  69:main.c        ****   orangeLight_Write(0); CyDelay(100);
 116              		.loc 1 69 0
 117 0070 0020     		movs	r0, #0
 118 0072 FFF7FEFF 		bl	orangeLight_Write
 119              	.LVL17:
 120 0076 6420     		movs	r0, #100
 121 0078 FFF7FEFF 		bl	CyDelay
 122              	.LVL18:
  70:main.c        ****   CyDelay(200);
 123              		.loc 1 70 0
 124 007c C820     		movs	r0, #200
 125 007e FFF7FEFF 		bl	CyDelay
 126              	.LVL19:
  71:main.c        ****   greenLight_Write(1); yellowLight_Write(1); orangeLight_Write(1); redLight_Write(1);
 127              		.loc 1 71 0
 128 0082 0120     		movs	r0, #1
 129 0084 FFF7FEFF 		bl	greenLight_Write
 130              	.LVL20:
 131 0088 0120     		movs	r0, #1
 132 008a FFF7FEFF 		bl	yellowLight_Write
 133              	.LVL21:
 134 008e 0120     		movs	r0, #1
 135 0090 FFF7FEFF 		bl	orangeLight_Write
 136              	.LVL22:
 137 0094 0120     		movs	r0, #1
 138 0096 FFF7FEFF 		bl	redLight_Write
 139              	.LVL23:
  72:main.c        ****   
  73:main.c        ****   CyDelay(200);
 140              		.loc 1 73 0
 141 009a C820     		movs	r0, #200
 142 009c FFF7FEFF 		bl	CyDelay
 143              	.LVL24:
  74:main.c        ****   greenLight_Write(0); yellowLight_Write(0); orangeLight_Write(0); redLight_Write(0);
 144              		.loc 1 74 0
 145 00a0 0020     		movs	r0, #0
 146 00a2 FFF7FEFF 		bl	greenLight_Write
 147              	.LVL25:
 148 00a6 0020     		movs	r0, #0
 149 00a8 FFF7FEFF 		bl	yellowLight_Write
 150              	.LVL26:
 151 00ac 0020     		movs	r0, #0
 152 00ae FFF7FEFF 		bl	orangeLight_Write
 153              	.LVL27:
 154 00b2 0020     		movs	r0, #0
ARM GAS  C:\Users\THOMPS~1\AppData\Local\Temp\cci8NtKl.s 			page 5


 155 00b4 FFF7FEFF 		bl	redLight_Write
 156              	.LVL28:
  75:main.c        **** 
  76:main.c        ****   errMonADC_Start();        // power on ADC
 157              		.loc 1 76 0
 158 00b8 FFF7FEFF 		bl	errMonADC_Start
 159              	.LVL29:
  77:main.c        ****   errMonADC_StartConvert(); // begin monitoring error signal monitor ADC
 160              		.loc 1 77 0
 161 00bc FFF7FEFF 		bl	errMonADC_StartConvert
 162              	.LVL30:
  78:main.c        ****   LFOutADC_Start();         // begin monitoring LF output ADC
 163              		.loc 1 78 0
 164 00c0 FFF7FEFF 		bl	LFOutADC_Start
 165              	.LVL31:
  79:main.c        ****   LFOutADC_StartConvert();  // begin monitoring error signal monitor ADC
 166              		.loc 1 79 0
 167 00c4 FFF7FEFF 		bl	LFOutADC_StartConvert
 168              	.LVL32:
  80:main.c        ****   coarseDAC_Start();
 169              		.loc 1 80 0
 170 00c8 FFF7FEFF 		bl	coarseDAC_Start
 171              	.LVL33:
  81:main.c        ****   fineDAC_Start();
 172              		.loc 1 81 0
 173 00cc FFF7FEFF 		bl	fineDAC_Start
 174              	.LVL34:
  82:main.c        ****   
  83:main.c        ****   SW_Tx_UART_1_Start();     // begin USB Serial communications  
 175              		.loc 1 83 0
 176 00d0 FFF7FEFF 		bl	SW_Tx_UART_1_Start
 177              	.LVL35:
  84:main.c        ****   Serial("SKYNET: Triggered Relocker v1.0. I am awake!");
 178              		.loc 1 84 0
 179 00d4 AE48     		ldr	r0, .L50+8
 180 00d6 FFF7FEFF 		bl	Serial
 181              	.LVL36:
  85:main.c        ****   sprintf(serialBuffer, "Compiled at %s on %s.", __TIME__, __DATE__); 
 182              		.loc 1 85 0
 183 00da AE4B     		ldr	r3, .L50+12
 184 00dc AE4A     		ldr	r2, .L50+16
 185 00de AF49     		ldr	r1, .L50+20
 186 00e0 1CA8     		add	r0, sp, #112
 187 00e2 FFF7FEFF 		bl	sprintf
 188              	.LVL37:
  86:main.c        ****   Serial(serialBuffer);
 189              		.loc 1 86 0
 190 00e6 1CA8     		add	r0, sp, #112
 191 00e8 FFF7FEFF 		bl	Serial
 192              	.LVL38:
  87:main.c        ****   
  88:main.c        **** //  while(1) {
  89:main.c        **** //    int16 testint[512] = {};
  90:main.c        **** //    testint[1] = 100;
  91:main.c        **** //    testint[3] = 5050;
  92:main.c        **** //    SendDataArray(logErrMon, sizeof(logErrMon) / sizeof(logErrMon[0]), logErrMonCounter);
  93:main.c        **** //  }
ARM GAS  C:\Users\THOMPS~1\AppData\Local\Temp\cci8NtKl.s 			page 6


  94:main.c        ****   
  95:main.c        ****   // Check LF range setting and appropriately sets input/output voltage calibration scales
  96:main.c        ****   setupFreeSoc(TEST_VOLTAGE_MODE, &LFRange, &DAC150mVLevel, &DACOffset, &DACRange);
 193              		.loc 1 96 0
 194 00ec 1BAB     		add	r3, sp, #108
 195 00ee 0093     		str	r3, [sp]
 196 00f0 19AA     		add	r2, sp, #100
 197 00f2 1AAB     		add	r3, sp, #104
 198 00f4 18A9     		add	r1, sp, #96
 199 00f6 0020     		movs	r0, #0
 200 00f8 FFF7FEFF 		bl	setupFreeSoc
 201              	.LVL39:
  97:main.c        ****   
  98:main.c        ****   // Loop until user sets switch to "Calibrate". Make sure you have set the LF Range first!
  99:main.c        ****   if (calibratePin_Read() == 0) {
 202              		.loc 1 99 0
 203 00fc FFF7FEFF 		bl	calibratePin_Read
 204              	.LVL40:
 205 0100 0446     		mov	r4, r0
 206 0102 90B9     		cbnz	r0, .L30
 100:main.c        ****     Serial("Awaiting calibration. Set Switch 4 to 'Choose'.");
 207              		.loc 1 100 0
 208 0104 A648     		ldr	r0, .L50+24
 209 0106 FFF7FEFF 		bl	Serial
 210              	.LVL41:
  48:main.c        ****   int LFRange;         // LF range should be 8, 22, or 28 (volts) depending on loop filter model
 211              		.loc 1 48 0
 212 010a 0A94     		str	r4, [sp, #40]
 213              	.LVL42:
 214              	.L3:
 101:main.c        ****     while (calibratePin_Read() == 0) {
 215              		.loc 1 101 0
 216 010c FFF7FEFF 		bl	calibratePin_Read
 217              	.LVL43:
 218 0110 68B9     		cbnz	r0, .L2
 102:main.c        ****       CyDelay(250);
 219              		.loc 1 102 0
 220 0112 FA20     		movs	r0, #250
 221 0114 FFF7FEFF 		bl	CyDelay
 222              	.LVL44:
 103:main.c        ****       blinkLED = 1 - blinkLED;
 223              		.loc 1 103 0
 224 0118 0A9B     		ldr	r3, [sp, #40]
 225 011a C3F10103 		rsb	r3, r3, #1
 226 011e 0A93     		str	r3, [sp, #40]
 227              	.LVL45:
 104:main.c        ****       yellowLight_Write(blinkLED);
 228              		.loc 1 104 0
 229 0120 9DF82800 		ldrb	r0, [sp, #40]	@ zero_extendqisi2
 230 0124 FFF7FEFF 		bl	yellowLight_Write
 231              	.LVL46:
 232 0128 F0E7     		b	.L3
 233              	.LVL47:
 234              	.L30:
  48:main.c        ****   int LFRange;         // LF range should be 8, 22, or 28 (volts) depending on loop filter model
 235              		.loc 1 48 0
 236 012a 0023     		movs	r3, #0
ARM GAS  C:\Users\THOMPS~1\AppData\Local\Temp\cci8NtKl.s 			page 7


 237 012c 0A93     		str	r3, [sp, #40]
 238              	.LVL48:
 239              	.L2:
  47:main.c        ****   int blinkLED = 0;              // boolean for blinking diagnostic LEDs
 240              		.loc 1 47 0
 241 012e 4FF0000B 		mov	fp, #0
  30:main.c        ****     
 242              		.loc 1 30 0
 243 0132 DA46     		mov	r10, fp
 105:main.c        ****     }
 106:main.c        ****   }
 107:main.c        ****   
 108:main.c        ****   Serial("Beginning main sequence (calibrating, then attempting to relock).");
 244              		.loc 1 108 0
 245 0134 9B48     		ldr	r0, .L50+28
 246 0136 FFF7FEFF 		bl	Serial
 247              	.LVL49:
 109:main.c        ****   Serial("Switch to Lock to engage relocker or sample the error signal range.");
 248              		.loc 1 109 0
 249 013a 9B48     		ldr	r0, .L50+32
 250 013c FFF7FEFF 		bl	Serial
 251              	.LVL50:
  58:main.c        ****   bool debugDropDetected = false;
 252              		.loc 1 58 0
 253 0140 0123     		movs	r3, #1
 254 0142 1093     		str	r3, [sp, #64]
  57:main.c        ****   bool debugFirstErrMonSample = true;
 255              		.loc 1 57 0
 256 0144 1F46     		mov	r7, r3
  38:main.c        ****   int32 LFOutputMeas;            // stores a LF voltage measurement during sweep
 257              		.loc 1 38 0
 258 0146 0023     		movs	r3, #0
 259 0148 0E93     		str	r3, [sp, #56]	@ float
 260 014a 0D93     		str	r3, [sp, #52]	@ float
  37:main.c        ****   float lockedLFV, aboveLFV = 0, belowLFV = 0;
 261              		.loc 1 37 0
 262 014c CDF844B0 		str	fp, [sp, #68]
  36:main.c        ****   int32 lowerDACSweepLevel = 0;  // DAC sweep lower level
 263              		.loc 1 36 0
 264 0150 CDF824B0 		str	fp, [sp, #36]
  35:main.c        ****   int32 upperDACSweepLevel = 0;  // DAC sweep upper level
 265              		.loc 1 35 0
 266 0154 CDF830B0 		str	fp, [sp, #48]
  34:main.c        ****   int32 lowerLockedLFLevel = 0;  // in-lock LF voltage minus 150mV
 267              		.loc 1 34 0
 268 0158 CDF82CB0 		str	fp, [sp, #44]
 269              	.LVL51:
 270              	.L5:
 110:main.c        ****   for(;;) {
 111:main.c        ****     errMonMinimum = 0;     // initialize these to ridiculous values
 112:main.c        ****     errMonMaximum = 32767;
 113:main.c        ****     
 114:main.c        ****     while(calibratePin_Read() == 1) {
 271              		.loc 1 114 0
 272 015c 4FF00008 		mov	r8, #0
 111:main.c        ****     errMonMaximum = 32767;
 273              		.loc 1 111 0
ARM GAS  C:\Users\THOMPS~1\AppData\Local\Temp\cci8NtKl.s 			page 8


 274 0160 4546     		mov	r5, r8
 112:main.c        ****     
 275              		.loc 1 112 0
 276 0162 47F6FF74 		movw	r4, #32767
 277              	.LVL52:
 278              	.L6:
 279              		.loc 1 114 0
 280 0166 FFF7FEFF 		bl	calibratePin_Read
 281              	.LVL53:
 282 016a 0128     		cmp	r0, #1
 283 016c 0646     		mov	r6, r0
 284 016e 6ED1     		bne	.L48
 115:main.c        ****       // Enter calibration procedure (set or reset LF average and/or error monitor maximum)
 116:main.c        ****       greenLight_Write(0);
 285              		.loc 1 116 0
 286 0170 0020     		movs	r0, #0
 287 0172 FFF7FEFF 		bl	greenLight_Write
 288              	.LVL54:
 117:main.c        ****       yellowLight_Write(1);
 289              		.loc 1 117 0
 290 0176 3046     		mov	r0, r6
 291 0178 FFF7FEFF 		bl	yellowLight_Write
 292              	.LVL55:
 118:main.c        **** 
 119:main.c        ****       if(sampleErrorMonitor_Read() == 1) { // send message so it is clear what we are sampling.
 293              		.loc 1 119 0
 294 017c FFF7FEFF 		bl	sampleErrorMonitor_Read
 295              	.LVL56:
 296 0180 0128     		cmp	r0, #1
 297 0182 8046     		mov	r8, r0
 298 0184 28D1     		bne	.L7
 120:main.c        ****         if (debugFirstErrMonSample) {
 299              		.loc 1 120 0
 300 0186 109B     		ldr	r3, [sp, #64]
 301 0188 8BB1     		cbz	r3, .L9
 121:main.c        ****           Serial("Now sampling out-of-lock maximum error signal voltage.");
 302              		.loc 1 121 0
 303 018a 8848     		ldr	r0, .L50+36
 304 018c FFF7FEFF 		bl	Serial
 305              	.LVL57:
 122:main.c        ****           debugFirstErrMonSample = false; 
 123:main.c        ****           debugFirstLFSample = true;
 306              		.loc 1 123 0
 307 0190 4746     		mov	r7, r8
 308 0192 0CE0     		b	.L9
 309              	.LVL58:
 310              	.L11:
 124:main.c        ****         }
 125:main.c        ****         while(sampleErrorMonitor_Read() == 1) {
 126:main.c        ****           (void)errMonADC_IsEndConversion(errMonADC_WAIT_FOR_RESULT); // docs say: always check
 311              		.loc 1 126 0
 312 0194 0020     		movs	r0, #0
 313 0196 FFF7FEFF 		bl	errMonADC_IsEndConversion
 314              	.LVL59:
 127:main.c        ****           errMonMeasurement = errMonADC_GetResult16();
 315              		.loc 1 127 0
 316 019a FFF7FEFF 		bl	errMonADC_GetResult16
ARM GAS  C:\Users\THOMPS~1\AppData\Local\Temp\cci8NtKl.s 			page 9


 317              	.LVL60:
 128:main.c        ****           if (errMonMeasurement < errMonMaximum) { // found new maximum voltage (op amp inverted)
 318              		.loc 1 128 0
 319 019e 8442     		cmp	r4, r0
 320 01a0 04DC     		bgt	.L10
 321 01a2 8542     		cmp	r5, r0
 322 01a4 B8BF     		it	lt
 323 01a6 0546     		movlt	r5, r0
 324              	.LVL61:
 325 01a8 2046     		mov	r0, r4
 326              	.LVL62:
 327 01aa 2DB2     		sxth	r5, r5
 328              	.L10:
 329 01ac 0446     		mov	r4, r0
 330              	.LVL63:
 331              	.L9:
 125:main.c        ****           (void)errMonADC_IsEndConversion(errMonADC_WAIT_FOR_RESULT); // docs say: always check
 332              		.loc 1 125 0
 333 01ae FFF7FEFF 		bl	sampleErrorMonitor_Read
 334              	.LVL64:
 335 01b2 0128     		cmp	r0, #1
 336 01b4 EED0     		beq	.L11
 337              	.LVL65:
 129:main.c        ****             errMonMaximum = errMonMeasurement;
 130:main.c        ****           } else if (errMonMeasurement > errMonMinimum) {
 131:main.c        ****             errMonMinimum = errMonMeasurement;
 132:main.c        ****           }
 133:main.c        ****         }
 134:main.c        ****         
 135:main.c        ****         /* here are the initial thresholds */
 136:main.c        ****         // changing /4 to /6... test
 137:main.c        ****         errMonThreshold = (3*errMonMaximum + errMonMinimum)/4; // for slope: thresh above avg
 138:main.c        ****         errMonThreshold1 = errMonThreshold; // for slope: thresh above avg
 139:main.c        ****         errMonThreshold2 = (errMonMaximum + 3*errMonMinimum)/4; // other slope: thresh below avg
 140:main.c        ****         
 141:main.c        ****         errMonThreshold = errMonMaximum + (( errMonMinimum - errMonMaximum ) / 20); // for slope: t
 338              		.loc 1 141 0
 339 01b6 2B1B     		subs	r3, r5, r4
 340 01b8 1422     		movs	r2, #20
 341 01ba 93FBF2F2 		sdiv	r2, r3, r2
 342 01be 2244     		add	r2, r2, r4
 343 01c0 12B2     		sxth	r2, r2
 344 01c2 0F92     		str	r2, [sp, #60]
 345              	.LVL66:
 142:main.c        ****         errMonThreshold1 = errMonThreshold; // for slope: thresh above avg
 143:main.c        ****         errMonThreshold2 = errMonMinimum - ((errMonMinimum - errMonMaximum ) / 20); // other slope:
 346              		.loc 1 143 0
 347 01c4 6FF01302 		mvn	r2, #19
 348              	.LVL67:
 349 01c8 93FBF2F3 		sdiv	r3, r3, r2
 350 01cc 2B44     		add	r3, r3, r5
 351 01ce 1BB2     		sxth	r3, r3
 352 01d0 1493     		str	r3, [sp, #80]
 353              	.LVL68:
 354 01d2 0023     		movs	r3, #0
 355              	.LVL69:
 356 01d4 1093     		str	r3, [sp, #64]
ARM GAS  C:\Users\THOMPS~1\AppData\Local\Temp\cci8NtKl.s 			page 10


 357 01d6 37E0     		b	.L12
 358              	.LVL70:
 359              	.L7:
 144:main.c        ****         /* here we are assuming a symmetric error signal. */
 145:main.c        ****         
 146:main.c        ****       } else {
 147:main.c        ****         if (debugFirstLFSample) { // send message so it is clear we are calibrating.
 360              		.loc 1 147 0
 361 01d8 1FB1     		cbz	r7, .L13
 148:main.c        ****           Serial("Sampling average in-lock LF output.");
 362              		.loc 1 148 0
 363 01da 7548     		ldr	r0, .L50+40
 364 01dc FFF7FEFF 		bl	Serial
 365              	.LVL71:
 149:main.c        ****           debugFirstErrMonSample = true;
 366              		.loc 1 149 0
 367 01e0 1096     		str	r6, [sp, #64]
 368              	.LVL72:
 369              	.L13:
 150:main.c        ****           debugFirstLFSample = false; 
 151:main.c        ****         }
 152:main.c        ****         // Now measure in-lock loop filter output voltage. Take the last measurement, no averaging
 153:main.c        ****         (void)LFOutADC_IsEndConversion(LFOutADC_WAIT_FOR_RESULT);
 370              		.loc 1 153 0
 371 01e2 0020     		movs	r0, #0
 372 01e4 FFF7FEFF 		bl	LFOutADC_IsEndConversion
 373              	.LVL73:
 154:main.c        ****         lockedLFLevel = LFOutADC_GetResult32(); // Measure LF out voltage.
 374              		.loc 1 154 0
 375 01e8 FFF7FEFF 		bl	LFOutADC_GetResult32
 376              	.LVL74:
 155:main.c        ****         
 156:main.c        ****         lockedLFV = LFOutADC_CountsTo_Volts(lockedLFLevel);
 377              		.loc 1 156 0
 378 01ec FFF7FEFF 		bl	LFOutADC_CountsTo_Volts
 379              	.LVL75:
 380 01f0 1590     		str	r0, [sp, #84]	@ float
 381              	.LVL76:
 157:main.c        ****         // Set bounds 200mV above/below the in-lock output voltage.
 158:main.c        ****         // test: 300 mV?
 159:main.c        ****         aboveLFV = lockedLFV + 0.300;
 382              		.loc 1 159 0
 383 01f2 FFF7FEFF 		bl	__aeabi_f2d
 384              	.LVL77:
 385 01f6 64A3     		adr	r3, .L50
 386 01f8 D3E90023 		ldrd	r2, [r3]
 387 01fc 0F46     		mov	r7, r1
 388 01fe 0646     		mov	r6, r0
 389 0200 FFF7FEFF 		bl	__aeabi_dadd
 390              	.LVL78:
 391 0204 FFF7FEFF 		bl	__aeabi_d2f
 392              	.LVL79:
 160:main.c        ****         belowLFV = lockedLFV - 0.300;
 393              		.loc 1 160 0
 394 0208 5FA3     		adr	r3, .L50
 395 020a D3E90023 		ldrd	r2, [r3]
 159:main.c        ****         belowLFV = lockedLFV - 0.300;
ARM GAS  C:\Users\THOMPS~1\AppData\Local\Temp\cci8NtKl.s 			page 11


 396              		.loc 1 159 0
 397 020e 0D90     		str	r0, [sp, #52]	@ float
 398              	.LVL80:
 399              		.loc 1 160 0
 400 0210 3946     		mov	r1, r7
 401 0212 3046     		mov	r0, r6
 402              	.LVL81:
 403 0214 FFF7FEFF 		bl	__aeabi_dsub
 404              	.LVL82:
 405 0218 FFF7FEFF 		bl	__aeabi_d2f
 406              	.LVL83:
 407 021c 0E90     		str	r0, [sp, #56]	@ float
 408              	.LVL84:
 161:main.c        ****         // upperLockedLFLevel = lockedLFLevel + DAC150mVLevel;
 162:main.c        ****         // lowerLockedLFLevel = lockedLFLevel - DAC150mVLevel;
 163:main.c        ****         upperLockedLFLevel = LFOutADC_VoltsTo_Counts(aboveLFV);
 409              		.loc 1 163 0
 410 021e 0D98     		ldr	r0, [sp, #52]	@ float
 411              	.LVL85:
 412 0220 FFF7FEFF 		bl	LFOutADC_VoltsTo_Counts
 413              	.LVL86:
 414 0224 0B90     		str	r0, [sp, #44]
 415              	.LVL87:
 164:main.c        ****         lowerLockedLFLevel = LFOutADC_VoltsTo_Counts(belowLFV);
 416              		.loc 1 164 0
 417 0226 0E98     		ldr	r0, [sp, #56]	@ float
 418              	.LVL88:
 419 0228 FFF7FEFF 		bl	LFOutADC_VoltsTo_Counts
 420              	.LVL89:
 165:main.c        ****         upperDACSweepLevel = DAC_VoltsTo_Counts(aboveLFV, DACRange, DACOffset);
 421              		.loc 1 165 0
 422 022c 1A9A     		ldr	r2, [sp, #104]
 164:main.c        ****         lowerLockedLFLevel = LFOutADC_VoltsTo_Counts(belowLFV);
 423              		.loc 1 164 0
 424 022e 0C90     		str	r0, [sp, #48]
 425              	.LVL90:
 426              		.loc 1 165 0
 427 0230 1B99     		ldr	r1, [sp, #108]	@ float
 428 0232 0D98     		ldr	r0, [sp, #52]	@ float
 429              	.LVL91:
 430 0234 FFF7FEFF 		bl	DAC_VoltsTo_Counts
 431              	.LVL92:
 166:main.c        ****         lowerDACSweepLevel = DAC_VoltsTo_Counts(belowLFV, DACRange, DACOffset);
 432              		.loc 1 166 0
 433 0238 1A9A     		ldr	r2, [sp, #104]
 165:main.c        ****         upperDACSweepLevel = DAC_VoltsTo_Counts(aboveLFV, DACRange, DACOffset);
 434              		.loc 1 165 0
 435 023a 0990     		str	r0, [sp, #36]
 436              	.LVL93:
 437              		.loc 1 166 0
 438 023c 1B99     		ldr	r1, [sp, #108]	@ float
 439 023e 0E98     		ldr	r0, [sp, #56]	@ float
 440              	.LVL94:
 441 0240 FFF7FEFF 		bl	DAC_VoltsTo_Counts
 442              	.LVL95:
 443 0244 0027     		movs	r7, #0
 444 0246 1190     		str	r0, [sp, #68]
ARM GAS  C:\Users\THOMPS~1\AppData\Local\Temp\cci8NtKl.s 			page 12


 445              	.LVL96:
 446              	.L12:
 447 0248 4FF00108 		mov	r8, #1
 448 024c 8BE7     		b	.L6
 449              	.LVL97:
 450              	.L48:
 167:main.c        ****       }
 168:main.c        ****       
 169:main.c        ****       debugJustCalibrated = true;
 170:main.c        ****     }
 171:main.c        ****     
 172:main.c        ****     if (debugJustCalibrated) { // diagnostics
 451              		.loc 1 172 0
 452 024e B8F1000F 		cmp	r8, #0
 453 0252 5FD0     		beq	.L15
 454              	.LBB2:
 173:main.c        ****       float V1 = errMonADC_CountsTo_Volts(errMonMinimum);
 455              		.loc 1 173 0
 456 0254 2846     		mov	r0, r5
 457 0256 FFF7FEFF 		bl	errMonADC_CountsTo_Volts
 458              	.LVL98:
 459 025a 8046     		mov	r8, r0
 460              	.LVL99:
 174:main.c        ****       float V2 = errMonADC_CountsTo_Volts(errMonMaximum);
 461              		.loc 1 174 0
 462 025c 2046     		mov	r0, r4
 463              	.LVL100:
 464 025e FFF7FEFF 		bl	errMonADC_CountsTo_Volts
 465              	.LVL101:
 466 0262 8146     		mov	r9, r0
 467              	.LVL102:
 175:main.c        ****       float V3 = errMonADC_CountsTo_Volts(errMonThreshold1);
 468              		.loc 1 175 0
 469 0264 0F98     		ldr	r0, [sp, #60]
 470              	.LVL103:
 471 0266 FFF7FEFF 		bl	errMonADC_CountsTo_Volts
 472              	.LVL104:
 473 026a 1690     		str	r0, [sp, #88]	@ float
 474              	.LVL105:
 176:main.c        ****       float V4 = errMonADC_CountsTo_Volts(errMonThreshold2);
 475              		.loc 1 176 0
 476 026c 1498     		ldr	r0, [sp, #80]
 477              	.LVL106:
 478 026e FFF7FEFF 		bl	errMonADC_CountsTo_Volts
 479              	.LVL107:
 480 0272 1790     		str	r0, [sp, #92]	@ float
 481              	.LVL108:
 177:main.c        ****        Serial("Calibration complete.");
 482              		.loc 1 177 0
 483 0274 4F48     		ldr	r0, .L50+44
 484              	.LVL109:
 485 0276 FFF7FEFF 		bl	Serial
 486              	.LVL110:
 178:main.c        ****       sprintf(serialBuffer, "--> LF avg: %.3fV, sets bounds at [%ld, %ld]=[%.3fV, %.3fV]",
 487              		.loc 1 178 0
 488 027a 0E98     		ldr	r0, [sp, #56]	@ float
 489 027c FFF7FEFF 		bl	__aeabi_f2d
ARM GAS  C:\Users\THOMPS~1\AppData\Local\Temp\cci8NtKl.s 			page 13


 490              	.LVL111:
 491 0280 CDE91201 		strd	r0, [sp, #72]
 492 0284 0D98     		ldr	r0, [sp, #52]	@ float
 493 0286 FFF7FEFF 		bl	__aeabi_f2d
 494              	.LVL112:
 495 028a 0646     		mov	r6, r0
 496 028c 1598     		ldr	r0, [sp, #84]	@ float
 497 028e 0F46     		mov	r7, r1
 498              	.LVL113:
 499 0290 FFF7FEFF 		bl	__aeabi_f2d
 500              	.LVL114:
 501 0294 DDE91223 		ldrd	r2, [sp, #72]
 502 0298 CDE90223 		strd	r2, [sp, #8]
 503 029c 0B9B     		ldr	r3, [sp, #44]
 504 029e 0246     		mov	r2, r0
 505 02a0 0193     		str	r3, [sp, #4]
 506 02a2 0C9B     		ldr	r3, [sp, #48]
 507 02a4 CDE90467 		strd	r6, [sp, #16]
 508 02a8 0093     		str	r3, [sp]
 509 02aa 1CA8     		add	r0, sp, #112
 510 02ac 0B46     		mov	r3, r1
 511 02ae 4249     		ldr	r1, .L50+48
 512 02b0 FFF7FEFF 		bl	sprintf
 513              	.LVL115:
 179:main.c        ****         lockedLFV, lowerLockedLFLevel, upperLockedLFLevel, belowLFV, aboveLFV); 
 180:main.c        ****       Serial(serialBuffer);
 514              		.loc 1 180 0
 515 02b4 1CA8     		add	r0, sp, #112
 516 02b6 FFF7FEFF 		bl	Serial
 517              	.LVL116:
 181:main.c        ****       sprintf(serialBuffer, "--> DAC sweep range: [%ld, %ld]=[lownum, highnum]=[%.3fV, %.3fV]",
 518              		.loc 1 181 0
 519 02ba DDE91223 		ldrd	r2, [sp, #72]
 520 02be 3F49     		ldr	r1, .L50+52
 521 02c0 CDE90223 		strd	r2, [sp, #8]
 522 02c4 CDE90067 		strd	r6, [sp]
 523 02c8 119B     		ldr	r3, [sp, #68]
 524 02ca 099A     		ldr	r2, [sp, #36]
 525 02cc 1CA8     		add	r0, sp, #112
 526 02ce FFF7FEFF 		bl	sprintf
 527              	.LVL117:
 182:main.c        ****         upperDACSweepLevel, lowerDACSweepLevel, aboveLFV, belowLFV); 
 183:main.c        ****       Serial(serialBuffer);
 528              		.loc 1 183 0
 529 02d2 1CA8     		add	r0, sp, #112
 530 02d4 FFF7FEFF 		bl	Serial
 531              	.LVL118:
 184:main.c        ****       sprintf(serialBuffer, "--> Err monitor: [%d, %d]=[%.3fV, %.3fV]; threshold %.3f %.3f",
 532              		.loc 1 184 0
 533 02d8 1798     		ldr	r0, [sp, #92]	@ float
 534 02da FFF7FEFF 		bl	__aeabi_f2d
 535              	.LVL119:
 536 02de CDE90601 		strd	r0, [sp, #24]
 537 02e2 1698     		ldr	r0, [sp, #88]	@ float
 538 02e4 FFF7FEFF 		bl	__aeabi_f2d
 539              	.LVL120:
 540 02e8 CDE90401 		strd	r0, [sp, #16]
ARM GAS  C:\Users\THOMPS~1\AppData\Local\Temp\cci8NtKl.s 			page 14


 541 02ec 4846     		mov	r0, r9
 542 02ee FFF7FEFF 		bl	__aeabi_f2d
 543              	.LVL121:
 544 02f2 CDE90201 		strd	r0, [sp, #8]
 545 02f6 4046     		mov	r0, r8
 546 02f8 FFF7FEFF 		bl	__aeabi_f2d
 547              	.LVL122:
 548 02fc 2346     		mov	r3, r4
 549 02fe CDE90001 		strd	r0, [sp]
 550 0302 2A46     		mov	r2, r5
 551 0304 2E49     		ldr	r1, .L50+56
 552 0306 1CA8     		add	r0, sp, #112
 553 0308 FFF7FEFF 		bl	sprintf
 554              	.LVL123:
 185:main.c        ****         errMonMinimum, errMonMaximum, V1, V2, V3, V4); 
 186:main.c        ****       Serial(serialBuffer);
 555              		.loc 1 186 0
 556 030c 1CA8     		add	r0, sp, #112
 557 030e FFF7FEFF 		bl	Serial
 558              	.LVL124:
 187:main.c        ****       debugJustCalibrated = false;
 188:main.c        ****       debugFirstLFSample = true;
 559              		.loc 1 188 0
 560 0312 0127     		movs	r7, #1
 561              	.LVL125:
 562              	.L15:
 563              	.LBE2:
 189:main.c        ****     }
 190:main.c        **** 
 191:main.c        ****     // Relocker is now watching for a drop!
 192:main.c        ****     greenLight_Write(1);
 564              		.loc 1 192 0
 565 0314 0120     		movs	r0, #1
 566 0316 FFF7FEFF 		bl	greenLight_Write
 567              	.LVL126:
 193:main.c        ****     yellowLight_Write(0);
 568              		.loc 1 193 0
 569 031a 0020     		movs	r0, #0
 570 031c FFF7FEFF 		bl	yellowLight_Write
 571              	.LVL127:
 194:main.c        ****     (void)LFOutADC_IsEndConversion(LFOutADC_WAIT_FOR_RESULT);
 572              		.loc 1 194 0
 573 0320 0020     		movs	r0, #0
 574 0322 FFF7FEFF 		bl	LFOutADC_IsEndConversion
 575              	.LVL128:
 195:main.c        ****     LFOutputMeas = LFOutADC_GetResult32(); // Measure LF output, check if it is unlocked
 576              		.loc 1 195 0
 577 0326 FFF7FEFF 		bl	LFOutADC_GetResult32
 578              	.LVL129:
 196:main.c        ****     
 197:main.c        ****     if ((LFOutputMeas < upperLockedLFLevel) || (LFOutputMeas > lowerLockedLFLevel)) {
 579              		.loc 1 197 0
 580 032a 0B9B     		ldr	r3, [sp, #44]
 195:main.c        ****     LFOutputMeas = LFOutADC_GetResult32(); // Measure LF output, check if it is unlocked
 581              		.loc 1 195 0
 582 032c 0446     		mov	r4, r0
 583              	.LVL130:
ARM GAS  C:\Users\THOMPS~1\AppData\Local\Temp\cci8NtKl.s 			page 15


 584              		.loc 1 197 0
 585 032e 8342     		cmp	r3, r0
 586 0330 03DC     		bgt	.L16
 587              		.loc 1 197 0 is_stmt 0 discriminator 1
 588 0332 0C9B     		ldr	r3, [sp, #48]
 589 0334 8342     		cmp	r3, r0
 590 0336 BFF611AF 		bge	.L5
 591              	.L16:
 198:main.c        ****       if(blockLockPin_Read() == 1) { // loop here until blockLock TTL is low
 592              		.loc 1 198 0 is_stmt 1
 593 033a FFF7FEFF 		bl	blockLockPin_Read
 594              	.LVL131:
 595 033e 0128     		cmp	r0, #1
 199:main.c        ****         sprintf(serialBuffer, "Detected dropped lock (%.3fV). Waiting for Block Lock TTL low before
 200:main.c        ****           LFOutADC_CountsTo_Volts(LFOutputMeas)); 
 596              		.loc 1 200 0
 597 0340 2046     		mov	r0, r4
 198:main.c        ****       if(blockLockPin_Read() == 1) { // loop here until blockLock TTL is low
 598              		.loc 1 198 0
 599 0342 43D1     		bne	.L18
 600              	.LVL132:
 601              		.loc 1 200 0
 602 0344 FFF7FEFF 		bl	LFOutADC_CountsTo_Volts
 603              	.LVL133:
 199:main.c        ****         sprintf(serialBuffer, "Detected dropped lock (%.3fV). Waiting for Block Lock TTL low before
 604              		.loc 1 199 0
 605 0348 FFF7FEFF 		bl	__aeabi_f2d
 606              	.LVL134:
 607 034c 0246     		mov	r2, r0
 608 034e 0B46     		mov	r3, r1
 609 0350 1CA8     		add	r0, sp, #112
 610 0352 1C49     		ldr	r1, .L50+60
 611 0354 FFF7FEFF 		bl	sprintf
 612              	.LVL135:
 201:main.c        ****           Serial(serialBuffer);
 613              		.loc 1 201 0
 614 0358 1CA8     		add	r0, sp, #112
 615 035a FFF7FEFF 		bl	Serial
 616              	.LVL136:
 202:main.c        ****         while(blockLockPin_Read() == 1) {
 203:main.c        ****           if(counterLED >= 300000) { // nice counter trick to make about 2Hz blinking
 617              		.loc 1 203 0
 618 035e 1A4D     		ldr	r5, .L50+64
 619              	.LVL137:
 620              	.L19:
 202:main.c        ****         while(blockLockPin_Read() == 1) {
 621              		.loc 1 202 0
 622 0360 FFF7FEFF 		bl	blockLockPin_Read
 623              	.LVL138:
 624 0364 0128     		cmp	r0, #1
 625 0366 3ED1     		bne	.L22
 626              		.loc 1 203 0
 627 0368 AB45     		cmp	fp, r5
 628 036a 09DD     		ble	.L20
 629              	.LVL139:
 204:main.c        ****             counterLED = 0;
 205:main.c        ****             orangeLight_Write(blinkLED = 1 - blinkLED);
ARM GAS  C:\Users\THOMPS~1\AppData\Local\Temp\cci8NtKl.s 			page 16


 630              		.loc 1 205 0
 631 036c 0A9B     		ldr	r3, [sp, #40]
 204:main.c        ****             counterLED = 0;
 632              		.loc 1 204 0
 633 036e 4FF0000B 		mov	fp, #0
 634              		.loc 1 205 0
 635 0372 C3F10103 		rsb	r3, r3, #1
 636 0376 0A93     		str	r3, [sp, #40]
 637              	.LVL140:
 638 0378 9DF82800 		ldrb	r0, [sp, #40]	@ zero_extendqisi2
 639 037c FFF7FEFF 		bl	orangeLight_Write
 640              	.LVL141:
 641              	.L20:
 206:main.c        ****           }
 207:main.c        ****           counterLED++;
 642              		.loc 1 207 0
 643 0380 0BF1010B 		add	fp, fp, #1
 644              	.LVL142:
 645 0384 ECE7     		b	.L19
 646              	.L51:
 647 0386 00BF     		.align	3
 648              	.L50:
 649 0388 33333333 		.word	858993459
 650 038c 3333D33F 		.word	1070805811
 651 0390 00000000 		.word	.LC0
 652 0394 2D000000 		.word	.LC1
 653 0398 39000000 		.word	.LC2
 654 039c 42000000 		.word	.LC3
 655 03a0 58000000 		.word	.LC4
 656 03a4 88000000 		.word	.LC5
 657 03a8 CA000000 		.word	.LC6
 658 03ac 0E010000 		.word	.LC7
 659 03b0 45010000 		.word	.LC8
 660 03b4 69010000 		.word	.LC9
 661 03b8 7F010000 		.word	.LC10
 662 03bc BB010000 		.word	.LC11
 663 03c0 FC010000 		.word	.LC12
 664 03c4 3A020000 		.word	.LC13
 665 03c8 DF930400 		.word	299999
 666              	.LVL143:
 667              	.L18:
 208:main.c        ****         }
 209:main.c        ****       } else {
 210:main.c        ****         sprintf(serialBuffer, "Detected dropped lock (%.3fV). Block Lock TTL is low so I'm relockin
 211:main.c        ****           LFOutADC_CountsTo_Volts(LFOutputMeas)); 
 668              		.loc 1 211 0
 669 03cc FFF7FEFF 		bl	LFOutADC_CountsTo_Volts
 670              	.LVL144:
 210:main.c        ****           LFOutADC_CountsTo_Volts(LFOutputMeas)); 
 671              		.loc 1 210 0
 672 03d0 FFF7FEFF 		bl	__aeabi_f2d
 673              	.LVL145:
 674 03d4 0246     		mov	r2, r0
 675 03d6 0B46     		mov	r3, r1
 676 03d8 1CA8     		add	r0, sp, #112
 677 03da 5449     		ldr	r1, .L52
 678 03dc FFF7FEFF 		bl	sprintf
ARM GAS  C:\Users\THOMPS~1\AppData\Local\Temp\cci8NtKl.s 			page 17


 679              	.LVL146:
 212:main.c        ****         Serial(serialBuffer);
 680              		.loc 1 212 0
 681 03e0 1CA8     		add	r0, sp, #112
 682 03e2 FFF7FEFF 		bl	Serial
 683              	.LVL147:
 684              	.L22:
 213:main.c        ****       }
 214:main.c        ****       
 215:main.c        ****       greenLight_Write(0);
 685              		.loc 1 215 0
 686 03e6 0020     		movs	r0, #0
 687 03e8 FFF7FEFF 		bl	greenLight_Write
 688              	.LVL148:
 216:main.c        ****       orangeLight_Write(1);
 689              		.loc 1 216 0
 690 03ec 0120     		movs	r0, #1
 691 03ee FFF7FEFF 		bl	orangeLight_Write
 692              	.LVL149:
 693              	.LBB3:
 217:main.c        ****       lockFails = 0;       // count sweep fails
 218:main.c        ****       debugDropDetected = true;
 219:main.c        ****     }
 220:main.c        ****     
 221:main.c        ****     
 222:main.c        ****     while ((LFOutputMeas < upperLockedLFLevel) || (LFOutputMeas > lowerLockedLFLevel)) {
 223:main.c        ****       switches_Write(1);   // control loop filter with microprocessor
 224:main.c        ****       //tempTrigger_Write(0); // temporary
 225:main.c        ****       bool sweptPastThresh = false;     // error monitor has crossed threshold once
 226:main.c        ****       bool errorMonitorInRange = false; // error monitor has crossed back into range
 227:main.c        ****       int32 sweepV = upperDACSweepLevel;
 228:main.c        ****       logErrMonCounter = 0;
 229:main.c        ****       
 230:main.c        ****       coarseDAC_SetValue((0xff00 & sweepV) >> 8); // set coarseDAC sweep voltage
 694              		.loc 1 230 0
 695 03f2 099B     		ldr	r3, [sp, #36]
 696              	.LBE3:
 217:main.c        ****       lockFails = 0;       // count sweep fails
 697              		.loc 1 217 0
 698 03f4 0025     		movs	r5, #0
 699              	.LBB6:
 700              		.loc 1 230 0
 701 03f6 C3F30726 		ubfx	r6, r3, #8, #8
 702              	.LVL150:
 703              	.L23:
 704              	.LBE6:
 222:main.c        ****       switches_Write(1);   // control loop filter with microprocessor
 705              		.loc 1 222 0
 706 03fa 0B9B     		ldr	r3, [sp, #44]
 707 03fc A342     		cmp	r3, r4
 708 03fe 71DD     		ble	.L49
 709              	.L29:
 710              	.LBB7:
 225:main.c        ****       bool errorMonitorInRange = false; // error monitor has crossed back into range
 711              		.loc 1 225 0
 712 0400 4FF00008 		mov	r8, #0
 228:main.c        ****       
ARM GAS  C:\Users\THOMPS~1\AppData\Local\Temp\cci8NtKl.s 			page 18


 713              		.loc 1 228 0
 714 0404 C246     		mov	r10, r8
 223:main.c        ****       //tempTrigger_Write(0); // temporary
 715              		.loc 1 223 0
 716 0406 0120     		movs	r0, #1
 717 0408 FFF7FEFF 		bl	switches_Write
 718              	.LVL151:
 719              		.loc 1 230 0
 720 040c 3046     		mov	r0, r6
 721 040e FFF7FEFF 		bl	coarseDAC_SetValue
 722              	.LVL152:
 231:main.c        ****       fineDAC_SetValue(0x00ff & sweepV);          // add in fineDAC voltage with circuitry
 723              		.loc 1 231 0
 724 0412 9DF82440 		ldrb	r4, [sp, #36]	@ zero_extendqisi2
 725              	.LVL153:
 726 0416 2046     		mov	r0, r4
 727 0418 FFF7FEFF 		bl	fineDAC_SetValue
 728              	.LVL154:
 232:main.c        ****       
 233:main.c        ****       while(!errorMonitorInRange) {
 729              		.loc 1 233 0
 730 041c DDF82490 		ldr	r9, [sp, #36]
 731              	.LVL155:
 732              	.L24:
 733              	.LBB4:
 234:main.c        ****         coarseDAC_SetValue((0xff00 & sweepV) >> 8); // set coarseDAC sweep voltage
 734              		.loc 1 234 0
 735 0420 C9F30720 		ubfx	r0, r9, #8, #8
 736 0424 FFF7FEFF 		bl	coarseDAC_SetValue
 737              	.LVL156:
 235:main.c        ****         fineDAC_SetValue(0x00ff & sweepV);          // add in fineDAC voltage with circuitry
 738              		.loc 1 235 0
 739 0428 5FFA89F0 		uxtb	r0, r9
 740 042c FFF7FEFF 		bl	fineDAC_SetValue
 741              	.LVL157:
 236:main.c        ****           
 237:main.c        ****         (void)errMonADC_IsEndConversion(errMonADC_WAIT_FOR_RESULT);
 742              		.loc 1 237 0
 743 0430 0020     		movs	r0, #0
 744 0432 FFF7FEFF 		bl	errMonADC_IsEndConversion
 745              	.LVL158:
 238:main.c        ****         int16 errorMonitorADC = errMonADC_GetResult16();
 746              		.loc 1 238 0
 747 0436 FFF7FEFF 		bl	errMonADC_GetResult16
 748              	.LVL159:
 239:main.c        ****         
 240:main.c        ****         logErrMon[logErrMonCounter] = errorMonitorADC;
 749              		.loc 1 240 0
 750 043a 5CAB     		add	r3, sp, #368
 751 043c 23F81A00 		strh	r0, [r3, r10, lsl #1]	@ movhi
 241:main.c        ****         
 242:main.c        ****        // for current sweep direction, only need to know about threshold 1...
 243:main.c        ****        // if ((errorMonitorADC < errMonThreshold1) || (errorMonitorADC > errMonThreshold2)) {
 244:main.c        ****         if (errorMonitorADC < errMonThreshold1) {
 752              		.loc 1 244 0
 753 0440 0F9B     		ldr	r3, [sp, #60]
 754 0442 8342     		cmp	r3, r0
ARM GAS  C:\Users\THOMPS~1\AppData\Local\Temp\cci8NtKl.s 			page 19


 755 0444 21DC     		bgt	.L33
 245:main.c        ****           sweptPastThresh = true; // record if error signal has crossed threshold once
 246:main.c        ****        // } else if (sweptPastThresh && (errorMonitorADC > errMonThreshold1) && (errorMonitorADC < 
 247:main.c        ****         } else if (sweptPastThresh && (errorMonitorADC > errMonThreshold1)) {
 756              		.loc 1 247 0
 757 0446 B8F1000F 		cmp	r8, #0
 758 044a 20D0     		beq	.L25
 759              		.loc 1 247 0 is_stmt 0 discriminator 1
 760 044c 0F9B     		ldr	r3, [sp, #60]
 761 044e 8342     		cmp	r3, r0
 762 0450 1DDA     		bge	.L25
 248:main.c        ****           switches_Write(0); // this is where we actually 'relock'
 763              		.loc 1 248 0 is_stmt 1
 764 0452 0020     		movs	r0, #0
 765              	.LVL160:
 766 0454 FFF7FEFF 		bl	switches_Write
 767              	.LVL161:
 768              	.LBE4:
 249:main.c        ****           // errorMonitorInRange = true; // error signal has entered back into the linear region
 250:main.c        ****           //tempTrigger_Write(1); // temporary
 251:main.c        ****           
 252:main.c        ****           break; // attempt a relock!
 253:main.c        ****         }
 254:main.c        ****         
 255:main.c        ****         if (sweepV == lowerDACSweepLevel) { // end of sweep, retry sweep
 256:main.c        ****           
 257:main.c        ****         // (void)errMonADC_IsEndConversion(errMonADC_WAIT_FOR_RESULT);
 258:main.c        ****         // int16 err1 = errMonADC_GetResult16();
 259:main.c        ****         // float V1 = errMonADC_CountsTo_Volts(err1);
 260:main.c        ****         // sprintf(serialBuffer, "--> Err monitor: [%d]=[%.3fV];", err1, V1); 
 261:main.c        ****         // Serial(serialBuffer);
 262:main.c        ****         // (void)LFOutADC_IsEndConversion(LFOutADC_WAIT_FOR_RESULT);
 263:main.c        ****         // int32 err2 = LFOutADC_GetResult32(); // re-measure LF output
 264:main.c        ****         // float V2 = LFOutADC_CountsTo_Volts(err2);
 265:main.c        ****         // sprintf(serialBuffer, "--> LF monitor: [%ld]=[%.3fV];", err2, V2); 
 266:main.c        ****         // Serial(serialBuffer);
 267:main.c        ****         
 268:main.c        ****           logErrMonCounter = 0;
 269:main.c        ****           sweepV = upperDACSweepLevel;
 270:main.c        ****           coarseDAC_SetValue((0xff00 & sweepV) >> 8); // set coarseDAC sweep voltage
 271:main.c        ****           fineDAC_SetValue(0x00ff & sweepV);          // add in fineDAC voltage with circuitry
 272:main.c        ****           sweptPastThresh = false;
 273:main.c        ****           lockFails++;
 274:main.c        ****           if (lockFails == MAX_FAILS_BEFORE_LED) {
 275:main.c        ****             redLight_Write(1); // Roxanne, put on the red light
 276:main.c        ****             sprintf(serialBuffer, "Failed to relock %d times (MAX_FAILS_BEFORE_LED).",
 277:main.c        ****               MAX_FAILS_BEFORE_LED); 
 278:main.c        ****             Serial(serialBuffer);
 279:main.c        ****           }
 280:main.c        ****         }
 281:main.c        ****         
 282:main.c        ****         CyDelayUs(SWEEP_DELAY_US); // slow down sweep slightly (see plot in manual)
 283:main.c        ****         logErrMonCounter++;
 284:main.c        ****         if (logErrMonCounter > 255) {
 285:main.c        ****           logErrMonCounter = 0;
 286:main.c        ****         }
 287:main.c        ****         sweepV++; // increase or decrease sweep voltage and try again
ARM GAS  C:\Users\THOMPS~1\AppData\Local\Temp\cci8NtKl.s 			page 20


 288:main.c        ****       }
 289:main.c        ****       
 290:main.c        ****       (void)LFOutADC_IsEndConversion(LFOutADC_WAIT_FOR_RESULT);
 769              		.loc 1 290 0
 770 0458 0020     		movs	r0, #0
 771 045a FFF7FEFF 		bl	LFOutADC_IsEndConversion
 772              	.LVL162:
 291:main.c        ****       LFOutputMeas = LFOutADC_GetResult32(); // re-measure LF output
 773              		.loc 1 291 0
 774 045e FFF7FEFF 		bl	LFOutADC_GetResult32
 775              	.LVL163:
 776 0462 0446     		mov	r4, r0
 777              	.LVL164:
 292:main.c        ****       sprintf(serialBuffer, "Broke free! %ld=%0.3f is in range of [%ld, %ld]?", LFOutputMeas,
 293:main.c        ****         LFOutADC_CountsTo_Volts(LFOutputMeas), lowerLockedLFLevel, upperLockedLFLevel); 
 778              		.loc 1 293 0
 779 0464 FFF7FEFF 		bl	LFOutADC_CountsTo_Volts
 780              	.LVL165:
 292:main.c        ****       sprintf(serialBuffer, "Broke free! %ld=%0.3f is in range of [%ld, %ld]?", LFOutputMeas,
 781              		.loc 1 292 0
 782 0468 0B9B     		ldr	r3, [sp, #44]
 783 046a 0393     		str	r3, [sp, #12]
 784 046c 0C9B     		ldr	r3, [sp, #48]
 785 046e 0293     		str	r3, [sp, #8]
 786 0470 FFF7FEFF 		bl	__aeabi_f2d
 787              	.LVL166:
 788 0474 2246     		mov	r2, r4
 789 0476 CDE90001 		strd	r0, [sp]
 790 047a 2D49     		ldr	r1, .L52+4
 791 047c 1CA8     		add	r0, sp, #112
 792 047e FFF7FEFF 		bl	sprintf
 793              	.LVL167:
 294:main.c        ****       Serial(serialBuffer);
 794              		.loc 1 294 0
 795 0482 1CA8     		add	r0, sp, #112
 796 0484 FFF7FEFF 		bl	Serial
 797              	.LVL168:
 798 0488 B7E7     		b	.L23
 799              	.LVL169:
 800              	.L33:
 801              	.LBB5:
 802 048a 4FF00108 		mov	r8, #1
 803              	.LVL170:
 804              	.L25:
 255:main.c        ****           
 805              		.loc 1 255 0
 806 048e 119B     		ldr	r3, [sp, #68]
 807 0490 4B45     		cmp	r3, r9
 808 0492 18D1     		bne	.L26
 809              	.LVL171:
 270:main.c        ****           fineDAC_SetValue(0x00ff & sweepV);          // add in fineDAC voltage with circuitry
 810              		.loc 1 270 0
 811 0494 3046     		mov	r0, r6
 812              	.LVL172:
 813 0496 FFF7FEFF 		bl	coarseDAC_SetValue
 814              	.LVL173:
 273:main.c        ****           if (lockFails == MAX_FAILS_BEFORE_LED) {
ARM GAS  C:\Users\THOMPS~1\AppData\Local\Temp\cci8NtKl.s 			page 21


 815              		.loc 1 273 0
 816 049a 0135     		adds	r5, r5, #1
 817              	.LVL174:
 271:main.c        ****           sweptPastThresh = false;
 818              		.loc 1 271 0
 819 049c 2046     		mov	r0, r4
 820 049e FFF7FEFF 		bl	fineDAC_SetValue
 821              	.LVL175:
 274:main.c        ****             redLight_Write(1); // Roxanne, put on the red light
 822              		.loc 1 274 0
 823 04a2 142D     		cmp	r5, #20
 824 04a4 0AD1     		bne	.L31
 275:main.c        ****             sprintf(serialBuffer, "Failed to relock %d times (MAX_FAILS_BEFORE_LED).",
 825              		.loc 1 275 0
 826 04a6 0120     		movs	r0, #1
 827 04a8 FFF7FEFF 		bl	redLight_Write
 828              	.LVL176:
 276:main.c        ****               MAX_FAILS_BEFORE_LED); 
 829              		.loc 1 276 0
 830 04ac 2A46     		mov	r2, r5
 831 04ae 2149     		ldr	r1, .L52+8
 832 04b0 1CA8     		add	r0, sp, #112
 833 04b2 FFF7FEFF 		bl	sprintf
 834              	.LVL177:
 278:main.c        ****           }
 835              		.loc 1 278 0
 836 04b6 1CA8     		add	r0, sp, #112
 837 04b8 FFF7FEFF 		bl	Serial
 838              	.LVL178:
 839              	.L31:
 272:main.c        ****           lockFails++;
 840              		.loc 1 272 0
 841 04bc 4FF00008 		mov	r8, #0
 268:main.c        ****           sweepV = upperDACSweepLevel;
 842              		.loc 1 268 0
 843 04c0 C246     		mov	r10, r8
 844 04c2 DDF82490 		ldr	r9, [sp, #36]
 845              	.LVL179:
 846              	.L26:
 282:main.c        ****         logErrMonCounter++;
 847              		.loc 1 282 0
 848 04c6 0120     		movs	r0, #1
 849 04c8 FFF7FEFF 		bl	CyDelayUs
 850              	.LVL180:
 283:main.c        ****         if (logErrMonCounter > 255) {
 851              		.loc 1 283 0
 852 04cc 0AF10103 		add	r3, r10, #1
 853 04d0 9BB2     		uxth	r3, r3
 854              	.LVL181:
 284:main.c        ****           logErrMonCounter = 0;
 855              		.loc 1 284 0
 856 04d2 FF2B     		cmp	r3, #255
 283:main.c        ****         if (logErrMonCounter > 255) {
 857              		.loc 1 283 0
 858 04d4 94BF     		ite	ls
 859 04d6 0FFA83FA 		sxthls	r10, r3
 285:main.c        ****         }
ARM GAS  C:\Users\THOMPS~1\AppData\Local\Temp\cci8NtKl.s 			page 22


 860              		.loc 1 285 0
 861 04da 4FF0000A 		movhi	r10, #0
 862              	.LVL182:
 287:main.c        ****       }
 863              		.loc 1 287 0
 864 04de 09F10109 		add	r9, r9, #1
 865              	.LVL183:
 866 04e2 9DE7     		b	.L24
 867              	.LVL184:
 868              	.L49:
 869              	.LBE5:
 870              	.LBE7:
 222:main.c        ****       switches_Write(1);   // control loop filter with microprocessor
 871              		.loc 1 222 0 discriminator 1
 872 04e4 0C9B     		ldr	r3, [sp, #48]
 873 04e6 A342     		cmp	r3, r4
 874 04e8 8ADB     		blt	.L29
 875              	.LVL185:
 295:main.c        ****     }
 296:main.c        ****   
 297:main.c        ****     if (debugDropDetected) {
 298:main.c        ****       // Loop filter has returned to central region; switch back into conventional mode now
 299:main.c        ****       debugDropDetected = false;
 300:main.c        ****       sprintf(serialBuffer, "Relock successful! LF Output at %0.3f V.", LFOutADC_CountsTo_Volts(LFO
 876              		.loc 1 300 0
 877 04ea 2046     		mov	r0, r4
 878 04ec FFF7FEFF 		bl	LFOutADC_CountsTo_Volts
 879              	.LVL186:
 880 04f0 FFF7FEFF 		bl	__aeabi_f2d
 881              	.LVL187:
 882 04f4 0246     		mov	r2, r0
 883 04f6 0B46     		mov	r3, r1
 884 04f8 1CA8     		add	r0, sp, #112
 885 04fa 0F49     		ldr	r1, .L52+12
 886 04fc FFF7FEFF 		bl	sprintf
 887              	.LVL188:
 301:main.c        ****       Serial(serialBuffer);
 888              		.loc 1 301 0
 889 0500 1CA8     		add	r0, sp, #112
 890 0502 FFF7FEFF 		bl	Serial
 891              	.LVL189:
 302:main.c        ****       SendDataArray(logErrMon, sizeof(logErrMon) / sizeof(logErrMon[0]), logErrMonCounter, errMonTh
 892              		.loc 1 302 0
 893 0506 149B     		ldr	r3, [sp, #80]
 894 0508 5246     		mov	r2, r10
 895 050a FF21     		movs	r1, #255
 896 050c 0093     		str	r3, [sp]
 897 050e 5CA8     		add	r0, sp, #368
 898 0510 0F9B     		ldr	r3, [sp, #60]
 899 0512 FFF7FEFF 		bl	SendDataArray
 900              	.LVL190:
 303:main.c        ****       greenLight_Write(1);
 901              		.loc 1 303 0
 902 0516 0120     		movs	r0, #1
 903 0518 FFF7FEFF 		bl	greenLight_Write
 904              	.LVL191:
 304:main.c        ****       orangeLight_Write(0);
ARM GAS  C:\Users\THOMPS~1\AppData\Local\Temp\cci8NtKl.s 			page 23


 905              		.loc 1 304 0
 906 051c 0020     		movs	r0, #0
 907 051e FFF7FEFF 		bl	orangeLight_Write
 908              	.LVL192:
 305:main.c        ****       redLight_Write(0);
 909              		.loc 1 305 0
 910 0522 0020     		movs	r0, #0
 911 0524 FFF7FEFF 		bl	redLight_Write
 912              	.LVL193:
 913 0528 18E6     		b	.L5
 914              	.L53:
 915 052a 00BF     		.align	2
 916              	.L52:
 917 052c 8C020000 		.word	.LC14
 918 0530 D7020000 		.word	.LC15
 919 0534 08030000 		.word	.LC16
 920 0538 3A030000 		.word	.LC17
 921              		.cfi_endproc
 922              	.LFE64:
 923              		.size	main, .-main
 924              		.section	.rodata.str1.1,"aMS",%progbits,1
 925              	.LC0:
 926 0000 534B594E 		.ascii	"SKYNET: Triggered Relocker v1.0. I am awake!\000"
 926      45543A20 
 926      54726967 
 926      67657265 
 926      64205265 
 927              	.LC1:
 928 002d 41756720 		.ascii	"Aug 14 2019\000"
 928      31342032 
 928      30313900 
 929              	.LC2:
 930 0039 31363A35 		.ascii	"16:59:36\000"
 930      393A3336 
 930      00
 931              	.LC3:
 932 0042 436F6D70 		.ascii	"Compiled at %s on %s.\000"
 932      696C6564 
 932      20617420 
 932      2573206F 
 932      6E202573 
 933              	.LC4:
 934 0058 41776169 		.ascii	"Awaiting calibration. Set Switch 4 to 'Choose'.\000"
 934      74696E67 
 934      2063616C 
 934      69627261 
 934      74696F6E 
 935              	.LC5:
 936 0088 42656769 		.ascii	"Beginning main sequence (calibrating, then attempti"
 936      6E6E696E 
 936      67206D61 
 936      696E2073 
 936      65717565 
 937 00bb 6E672074 		.ascii	"ng to relock).\000"
 937      6F207265 
 937      6C6F636B 
 937      292E00
ARM GAS  C:\Users\THOMPS~1\AppData\Local\Temp\cci8NtKl.s 			page 24


 938              	.LC6:
 939 00ca 53776974 		.ascii	"Switch to Lock to engage relocker or sample the err"
 939      63682074 
 939      6F204C6F 
 939      636B2074 
 939      6F20656E 
 940 00fd 6F722073 		.ascii	"or signal range.\000"
 940      69676E61 
 940      6C207261 
 940      6E67652E 
 940      00
 941              	.LC7:
 942 010e 4E6F7720 		.ascii	"Now sampling out-of-lock maximum error signal volta"
 942      73616D70 
 942      6C696E67 
 942      206F7574 
 942      2D6F662D 
 943 0141 67652E00 		.ascii	"ge.\000"
 944              	.LC8:
 945 0145 53616D70 		.ascii	"Sampling average in-lock LF output.\000"
 945      6C696E67 
 945      20617665 
 945      72616765 
 945      20696E2D 
 946              	.LC9:
 947 0169 43616C69 		.ascii	"Calibration complete.\000"
 947      62726174 
 947      696F6E20 
 947      636F6D70 
 947      6C657465 
 948              	.LC10:
 949 017f 2D2D3E20 		.ascii	"--> LF avg: %.3fV, sets bounds at [%ld, %ld]=[%.3fV"
 949      4C462061 
 949      76673A20 
 949      252E3366 
 949      562C2073 
 950 01b2 2C20252E 		.ascii	", %.3fV]\000"
 950      3366565D 
 950      00
 951              	.LC11:
 952 01bb 2D2D3E20 		.ascii	"--> DAC sweep range: [%ld, %ld]=[lownum, highnum]=["
 952      44414320 
 952      73776565 
 952      70207261 
 952      6E67653A 
 953 01ee 252E3366 		.ascii	"%.3fV, %.3fV]\000"
 953      562C2025 
 953      2E336656 
 953      5D00
 954              	.LC12:
 955 01fc 2D2D3E20 		.ascii	"--> Err monitor: [%d, %d]=[%.3fV, %.3fV]; threshold"
 955      45727220 
 955      6D6F6E69 
 955      746F723A 
 955      205B2564 
 956 022f 20252E33 		.ascii	" %.3f %.3f\000"
 956      6620252E 
ARM GAS  C:\Users\THOMPS~1\AppData\Local\Temp\cci8NtKl.s 			page 25


 956      336600
 957              	.LC13:
 958 023a 44657465 		.ascii	"Detected dropped lock (%.3fV). Waiting for Block Lo"
 958      63746564 
 958      2064726F 
 958      70706564 
 958      206C6F63 
 959 026d 636B2054 		.ascii	"ck TTL low before relocking...\000"
 959      544C206C 
 959      6F772062 
 959      65666F72 
 959      65207265 
 960              	.LC14:
 961 028c 44657465 		.ascii	"Detected dropped lock (%.3fV). Block Lock TTL is lo"
 961      63746564 
 961      2064726F 
 961      70706564 
 961      206C6F63 
 962 02bf 7720736F 		.ascii	"w so I'm relocking now.\000"
 962      2049276D 
 962      2072656C 
 962      6F636B69 
 962      6E67206E 
 963              	.LC15:
 964 02d7 42726F6B 		.ascii	"Broke free! %ld=%0.3f is in range of [%ld, %ld]?\000"
 964      65206672 
 964      65652120 
 964      256C643D 
 964      25302E33 
 965              	.LC16:
 966 0308 4661696C 		.ascii	"Failed to relock %d times (MAX_FAILS_BEFORE_LED).\000"
 966      65642074 
 966      6F207265 
 966      6C6F636B 
 966      20256420 
 967              	.LC17:
 968 033a 52656C6F 		.ascii	"Relock successful! LF Output at %0.3f V.\000"
 968      636B2073 
 968      75636365 
 968      73736675 
 968      6C21204C 
 969              		.text
 970              	.Letext0:
 971              		.file 2 "c:\\program files (x86)\\cypress\\psoc creator\\4.2\\psoc creator\\import\\gnu\\arm\\5.4.
 972              		.file 3 "c:\\program files (x86)\\cypress\\psoc creator\\4.2\\psoc creator\\import\\gnu\\arm\\5.4.
 973              		.file 4 "Generated_Source\\PSoC5/cytypes.h"
 974              		.file 5 "Generated_Source\\PSoC5/errMonADC.h"
 975              		.file 6 "utility.h"
 976              		.file 7 "c:\\program files (x86)\\cypress\\psoc creator\\4.2\\psoc creator\\import\\gnu\\arm\\5.4.
 977              		.file 8 "Generated_Source\\PSoC5/coarseDAC.h"
 978              		.file 9 "Generated_Source\\PSoC5/fineDAC.h"
 979              		.file 10 "Generated_Source\\PSoC5/switches.h"
 980              		.file 11 "Generated_Source\\PSoC5/redLight.h"
 981              		.file 12 "Generated_Source\\PSoC5/CyLib.h"
 982              		.file 13 "Generated_Source\\PSoC5/LFOutADC.h"
 983              		.file 14 "Generated_Source\\PSoC5/greenLight.h"
 984              		.file 15 "Generated_Source\\PSoC5/yellowLight.h"
ARM GAS  C:\Users\THOMPS~1\AppData\Local\Temp\cci8NtKl.s 			page 26


 985              		.file 16 "Generated_Source\\PSoC5/orangeLight.h"
 986              		.file 17 "Generated_Source\\PSoC5/SW_Tx_UART_1.h"
 987              		.file 18 "Generated_Source\\PSoC5/calibratePin.h"
 988              		.file 19 "Generated_Source\\PSoC5/sampleErrorMonitor.h"
 989              		.file 20 "Generated_Source\\PSoC5/blockLockPin.h"
 990              		.file 21 "Generated_Source\\PSoC5/core_cm3.h"