ARM GAS  C:\Users\THOMPS~1\AppData\Local\Temp\ccWfg3GM.s 			page 1


   1              		.syntax unified
   2              		.cpu cortex-m3
   3              		.fpu softvfp
   4              		.eabi_attribute 20, 1
   5              		.eabi_attribute 21, 1
   6              		.eabi_attribute 23, 3
   7              		.eabi_attribute 24, 1
   8              		.eabi_attribute 25, 1
   9              		.eabi_attribute 26, 1
  10              		.eabi_attribute 30, 4
  11              		.eabi_attribute 34, 1
  12              		.eabi_attribute 18, 4
  13              		.thumb
  14              		.syntax unified
  15              		.file	"SW_Tx_UART_1.c"
  16              		.text
  17              	.Ltext0:
  18              		.cfi_sections	.debug_frame
  19              		.section	.text.SW_Tx_UART_1_Start,"ax",%progbits
  20              		.align	1
  21              		.global	SW_Tx_UART_1_Start
  22              		.thumb
  23              		.thumb_func
  24              		.type	SW_Tx_UART_1_Start, %function
  25              	SW_Tx_UART_1_Start:
  26              	.LFB8:
  27              		.cfi_startproc
  28              		@ args = 0, pretend = 0, frame = 0
  29              		@ frame_needed = 0, uses_anonymous_args = 0
  30              		@ link register save eliminated.
  31 0000 7047     		bx	lr
  32              		.cfi_endproc
  33              	.LFE8:
  34              		.size	SW_Tx_UART_1_Start, .-SW_Tx_UART_1_Start
  35              		.section	.text.SW_Tx_UART_1_Stop,"ax",%progbits
  36              		.align	1
  37              		.global	SW_Tx_UART_1_Stop
  38              		.thumb
  39              		.thumb_func
  40              		.type	SW_Tx_UART_1_Stop, %function
  41              	SW_Tx_UART_1_Stop:
  42              	.LFB1:
  43              		.file 1 "Generated_Source\\PSoC5\\SW_Tx_UART_1.c"
   1:Generated_Source\PSoC5/SW_Tx_UART_1.c **** /*******************************************************************************
   2:Generated_Source\PSoC5/SW_Tx_UART_1.c **** * File Name: SW_Tx_UART_1.c
   3:Generated_Source\PSoC5/SW_Tx_UART_1.c **** * Version 1.50
   4:Generated_Source\PSoC5/SW_Tx_UART_1.c **** *
   5:Generated_Source\PSoC5/SW_Tx_UART_1.c **** * Description:
   6:Generated_Source\PSoC5/SW_Tx_UART_1.c **** *  This file provides the source code to the API for the Software Transmit UART.
   7:Generated_Source\PSoC5/SW_Tx_UART_1.c **** *
   8:Generated_Source\PSoC5/SW_Tx_UART_1.c **** ********************************************************************************
   9:Generated_Source\PSoC5/SW_Tx_UART_1.c **** * Copyright 2013-2015, Cypress Semiconductor Corporation.  All rights reserved.
  10:Generated_Source\PSoC5/SW_Tx_UART_1.c **** * You may use this file only in accordance with the license, terms, conditions,
  11:Generated_Source\PSoC5/SW_Tx_UART_1.c **** * disclaimers, and limitations in the end user license agreement accompanying
  12:Generated_Source\PSoC5/SW_Tx_UART_1.c **** * the software package with which this file was provided.
  13:Generated_Source\PSoC5/SW_Tx_UART_1.c **** *******************************************************************************/
  14:Generated_Source\PSoC5/SW_Tx_UART_1.c **** 
ARM GAS  C:\Users\THOMPS~1\AppData\Local\Temp\ccWfg3GM.s 			page 2


  15:Generated_Source\PSoC5/SW_Tx_UART_1.c **** #include "SW_Tx_UART_1_PVT.h"
  16:Generated_Source\PSoC5/SW_Tx_UART_1.c **** 
  17:Generated_Source\PSoC5/SW_Tx_UART_1.c **** #if(SW_Tx_UART_1_PIN_STATIC_MODE == 1u)
  18:Generated_Source\PSoC5/SW_Tx_UART_1.c ****     uint32 SW_Tx_UART_1_pinNumber = SW_Tx_UART_1_PIN_NUMBER;
  19:Generated_Source\PSoC5/SW_Tx_UART_1.c ****     uint32 SW_Tx_UART_1_pinPortNumber = SW_Tx_UART_1_PIN_PORT_NUMBER;
  20:Generated_Source\PSoC5/SW_Tx_UART_1.c ****     #if(CY_PSOC3)
  21:Generated_Source\PSoC5/SW_Tx_UART_1.c ****         uint32 pdata SW_Tx_UART_1_pinDrAdress = SW_Tx_UART_1_PIN_DR;
  22:Generated_Source\PSoC5/SW_Tx_UART_1.c ****     #else
  23:Generated_Source\PSoC5/SW_Tx_UART_1.c ****         uint32 SW_Tx_UART_1_pinDrAdress = SW_Tx_UART_1_PIN_DR;
  24:Generated_Source\PSoC5/SW_Tx_UART_1.c ****     #endif /* (CY_PSOC3) */
  25:Generated_Source\PSoC5/SW_Tx_UART_1.c **** #else
  26:Generated_Source\PSoC5/SW_Tx_UART_1.c ****     uint32 SW_Tx_UART_1_pinNumber;
  27:Generated_Source\PSoC5/SW_Tx_UART_1.c ****     uint32 SW_Tx_UART_1_pinPortNumber;
  28:Generated_Source\PSoC5/SW_Tx_UART_1.c ****     #if(CY_PSOC3)
  29:Generated_Source\PSoC5/SW_Tx_UART_1.c ****         uint32 pdata SW_Tx_UART_1_pinDrAdress;
  30:Generated_Source\PSoC5/SW_Tx_UART_1.c ****     #else
  31:Generated_Source\PSoC5/SW_Tx_UART_1.c ****         uint32 SW_Tx_UART_1_pinDrAdress;
  32:Generated_Source\PSoC5/SW_Tx_UART_1.c ****     #endif /* (CY_PSOC3) */
  33:Generated_Source\PSoC5/SW_Tx_UART_1.c **** #endif /* (SW_Tx_UART_1_PIN_STATIC_MODE == 1u) */
  34:Generated_Source\PSoC5/SW_Tx_UART_1.c **** 
  35:Generated_Source\PSoC5/SW_Tx_UART_1.c **** 
  36:Generated_Source\PSoC5/SW_Tx_UART_1.c **** #if(SW_Tx_UART_1_PIN_STATIC_MODE == 1u)
  37:Generated_Source\PSoC5/SW_Tx_UART_1.c ****     /*******************************************************************************
  38:Generated_Source\PSoC5/SW_Tx_UART_1.c ****     * Function Name: SW_Tx_UART_1_Start
  39:Generated_Source\PSoC5/SW_Tx_UART_1.c ****     ********************************************************************************
  40:Generated_Source\PSoC5/SW_Tx_UART_1.c ****     *
  41:Generated_Source\PSoC5/SW_Tx_UART_1.c ****     * Summary:
  42:Generated_Source\PSoC5/SW_Tx_UART_1.c ****     *  Empty function. Included for consistency with other
  43:Generated_Source\PSoC5/SW_Tx_UART_1.c ****     *  components. This API is not available when PinAssignmentMethod
  44:Generated_Source\PSoC5/SW_Tx_UART_1.c ****     *  is set to Dynamic.
  45:Generated_Source\PSoC5/SW_Tx_UART_1.c ****     *
  46:Generated_Source\PSoC5/SW_Tx_UART_1.c ****     * Parameters:
  47:Generated_Source\PSoC5/SW_Tx_UART_1.c ****     *  None
  48:Generated_Source\PSoC5/SW_Tx_UART_1.c ****     *
  49:Generated_Source\PSoC5/SW_Tx_UART_1.c ****     * Return:
  50:Generated_Source\PSoC5/SW_Tx_UART_1.c ****     *  None
  51:Generated_Source\PSoC5/SW_Tx_UART_1.c ****     *
  52:Generated_Source\PSoC5/SW_Tx_UART_1.c ****     *******************************************************************************/
  53:Generated_Source\PSoC5/SW_Tx_UART_1.c ****     void SW_Tx_UART_1_Start(void) 
  54:Generated_Source\PSoC5/SW_Tx_UART_1.c ****     {
  55:Generated_Source\PSoC5/SW_Tx_UART_1.c **** 
  56:Generated_Source\PSoC5/SW_Tx_UART_1.c ****     }
  57:Generated_Source\PSoC5/SW_Tx_UART_1.c **** #else
  58:Generated_Source\PSoC5/SW_Tx_UART_1.c ****     /*******************************************************************************
  59:Generated_Source\PSoC5/SW_Tx_UART_1.c ****     * Function Name: SW_Tx_UART_1_StartEx
  60:Generated_Source\PSoC5/SW_Tx_UART_1.c ****     ********************************************************************************
  61:Generated_Source\PSoC5/SW_Tx_UART_1.c ****     *
  62:Generated_Source\PSoC5/SW_Tx_UART_1.c ****     * Summary:
  63:Generated_Source\PSoC5/SW_Tx_UART_1.c ****     *  Configures the SW Tx UART to use the pin specified
  64:Generated_Source\PSoC5/SW_Tx_UART_1.c ****     *  by the parameters. This API is only available when
  65:Generated_Source\PSoC5/SW_Tx_UART_1.c ****     *  PinAssignmentMethod is set to Dynamic.
  66:Generated_Source\PSoC5/SW_Tx_UART_1.c ****     *
  67:Generated_Source\PSoC5/SW_Tx_UART_1.c ****     * Parameters:
  68:Generated_Source\PSoC5/SW_Tx_UART_1.c ****     *  port:  Port number for dynamic pin assignment
  69:Generated_Source\PSoC5/SW_Tx_UART_1.c ****     *  pin:   Pin number for dynamic pin assignment
  70:Generated_Source\PSoC5/SW_Tx_UART_1.c ****     *
  71:Generated_Source\PSoC5/SW_Tx_UART_1.c ****     * Return:
ARM GAS  C:\Users\THOMPS~1\AppData\Local\Temp\ccWfg3GM.s 			page 3


  72:Generated_Source\PSoC5/SW_Tx_UART_1.c ****     *  None
  73:Generated_Source\PSoC5/SW_Tx_UART_1.c ****     *
  74:Generated_Source\PSoC5/SW_Tx_UART_1.c ****     *******************************************************************************/
  75:Generated_Source\PSoC5/SW_Tx_UART_1.c ****     void SW_Tx_UART_1_StartEx(uint8 port, uint8 pin) 
  76:Generated_Source\PSoC5/SW_Tx_UART_1.c ****     {
  77:Generated_Source\PSoC5/SW_Tx_UART_1.c ****         uint32 portConfigAddr;
  78:Generated_Source\PSoC5/SW_Tx_UART_1.c **** 
  79:Generated_Source\PSoC5/SW_Tx_UART_1.c ****         #if (CY_PSOC4)
  80:Generated_Source\PSoC5/SW_Tx_UART_1.c ****             uint32 portDataRegAddr;
  81:Generated_Source\PSoC5/SW_Tx_UART_1.c ****         #endif /* (CY_PSOC4) */
  82:Generated_Source\PSoC5/SW_Tx_UART_1.c **** 
  83:Generated_Source\PSoC5/SW_Tx_UART_1.c ****         if ((pin <= SW_Tx_UART_1_MAX_PIN_NUMBER) && (port <= SW_Tx_UART_1_MAX_PORT_NUMBER))
  84:Generated_Source\PSoC5/SW_Tx_UART_1.c ****         {
  85:Generated_Source\PSoC5/SW_Tx_UART_1.c ****             #if (!CY_PSOC4)
  86:Generated_Source\PSoC5/SW_Tx_UART_1.c ****                 portConfigAddr = SW_Tx_UART_1_PORT_CNF_BASE;
  87:Generated_Source\PSoC5/SW_Tx_UART_1.c ****                 portConfigAddr += ((uint32)port * (SW_Tx_UART_1_MAX_PIN_NUMBER + 1u)) + pin;
  88:Generated_Source\PSoC5/SW_Tx_UART_1.c ****                 CyPins_SetPinDriveMode(portConfigAddr, CY_PINS_DM_STRONG);
  89:Generated_Source\PSoC5/SW_Tx_UART_1.c ****                 CyPins_SetPin(portConfigAddr);
  90:Generated_Source\PSoC5/SW_Tx_UART_1.c ****                 SW_Tx_UART_1_pinDrAdress = portConfigAddr;
  91:Generated_Source\PSoC5/SW_Tx_UART_1.c ****             #else
  92:Generated_Source\PSoC5/SW_Tx_UART_1.c ****                 portConfigAddr = SW_Tx_UART_1_PORT_CNF_BASE + (SW_Tx_UART_1_PORT_CNF_SIZE * port) +
  93:Generated_Source\PSoC5/SW_Tx_UART_1.c ****                                                                                 SW_Tx_UART_1_PORT_C
  94:Generated_Source\PSoC5/SW_Tx_UART_1.c ****                 CY_SYS_PINS_SET_DRIVE_MODE(portConfigAddr, pin, CY_SYS_PINS_DM_STRONG);
  95:Generated_Source\PSoC5/SW_Tx_UART_1.c ****                 portDataRegAddr = SW_Tx_UART_1_PORT_CNF_BASE + (SW_Tx_UART_1_PORT_CNF_SIZE * port) 
  96:Generated_Source\PSoC5/SW_Tx_UART_1.c ****                                                                                 SW_Tx_UART_1_PORT_C
  97:Generated_Source\PSoC5/SW_Tx_UART_1.c ****                 CY_SYS_PINS_SET_PIN(portDataRegAddr, pin);
  98:Generated_Source\PSoC5/SW_Tx_UART_1.c ****                 SW_Tx_UART_1_pinDrAdress = portDataRegAddr;
  99:Generated_Source\PSoC5/SW_Tx_UART_1.c ****             #endif /* (!CY_PSOC4) */
 100:Generated_Source\PSoC5/SW_Tx_UART_1.c ****             SW_Tx_UART_1_pinNumber = pin;
 101:Generated_Source\PSoC5/SW_Tx_UART_1.c ****             SW_Tx_UART_1_pinPortNumber = port;
 102:Generated_Source\PSoC5/SW_Tx_UART_1.c ****         }
 103:Generated_Source\PSoC5/SW_Tx_UART_1.c ****     }
 104:Generated_Source\PSoC5/SW_Tx_UART_1.c **** #endif /* (SW_Tx_UART_1_PIN_STATIC_MODE == 1u) */
 105:Generated_Source\PSoC5/SW_Tx_UART_1.c **** 
 106:Generated_Source\PSoC5/SW_Tx_UART_1.c **** 
 107:Generated_Source\PSoC5/SW_Tx_UART_1.c **** /*******************************************************************************
 108:Generated_Source\PSoC5/SW_Tx_UART_1.c **** * Function Name: SW_Tx_UART_1_Stop
 109:Generated_Source\PSoC5/SW_Tx_UART_1.c **** ********************************************************************************
 110:Generated_Source\PSoC5/SW_Tx_UART_1.c **** *
 111:Generated_Source\PSoC5/SW_Tx_UART_1.c **** * Summary:
 112:Generated_Source\PSoC5/SW_Tx_UART_1.c **** *  Empty function. Included for consistency with other components.
 113:Generated_Source\PSoC5/SW_Tx_UART_1.c **** *
 114:Generated_Source\PSoC5/SW_Tx_UART_1.c **** * Parameters:
 115:Generated_Source\PSoC5/SW_Tx_UART_1.c **** *  None
 116:Generated_Source\PSoC5/SW_Tx_UART_1.c **** *
 117:Generated_Source\PSoC5/SW_Tx_UART_1.c **** * Return:
 118:Generated_Source\PSoC5/SW_Tx_UART_1.c **** *  None
 119:Generated_Source\PSoC5/SW_Tx_UART_1.c **** *
 120:Generated_Source\PSoC5/SW_Tx_UART_1.c **** *******************************************************************************/
 121:Generated_Source\PSoC5/SW_Tx_UART_1.c **** void SW_Tx_UART_1_Stop(void) 
 122:Generated_Source\PSoC5/SW_Tx_UART_1.c **** {
  44              		.loc 1 122 0
  45              		.cfi_startproc
  46              		@ args = 0, pretend = 0, frame = 0
  47              		@ frame_needed = 0, uses_anonymous_args = 0
  48              		@ link register save eliminated.
  49 0000 7047     		bx	lr
ARM GAS  C:\Users\THOMPS~1\AppData\Local\Temp\ccWfg3GM.s 			page 4


  50              		.cfi_endproc
  51              	.LFE1:
  52              		.size	SW_Tx_UART_1_Stop, .-SW_Tx_UART_1_Stop
  53              		.section	.text.SW_Tx_UART_1_PutString,"ax",%progbits
  54              		.align	1
  55              		.global	SW_Tx_UART_1_PutString
  56              		.thumb
  57              		.thumb_func
  58              		.type	SW_Tx_UART_1_PutString, %function
  59              	SW_Tx_UART_1_PutString:
  60              	.LFB2:
 123:Generated_Source\PSoC5/SW_Tx_UART_1.c **** 
 124:Generated_Source\PSoC5/SW_Tx_UART_1.c **** }
 125:Generated_Source\PSoC5/SW_Tx_UART_1.c **** 
 126:Generated_Source\PSoC5/SW_Tx_UART_1.c **** 
 127:Generated_Source\PSoC5/SW_Tx_UART_1.c **** /*******************************************************************************
 128:Generated_Source\PSoC5/SW_Tx_UART_1.c **** * Function Name: SW_Tx_UART_1_PutString
 129:Generated_Source\PSoC5/SW_Tx_UART_1.c **** ********************************************************************************
 130:Generated_Source\PSoC5/SW_Tx_UART_1.c **** *
 131:Generated_Source\PSoC5/SW_Tx_UART_1.c **** * Summary:
 132:Generated_Source\PSoC5/SW_Tx_UART_1.c **** *  Sends a NULL terminated string via the Tx pin.
 133:Generated_Source\PSoC5/SW_Tx_UART_1.c **** *
 134:Generated_Source\PSoC5/SW_Tx_UART_1.c **** * Parameters:
 135:Generated_Source\PSoC5/SW_Tx_UART_1.c **** *  string: Pointer to the null terminated string to send
 136:Generated_Source\PSoC5/SW_Tx_UART_1.c **** *
 137:Generated_Source\PSoC5/SW_Tx_UART_1.c **** * Return:
 138:Generated_Source\PSoC5/SW_Tx_UART_1.c **** *  None
 139:Generated_Source\PSoC5/SW_Tx_UART_1.c **** *
 140:Generated_Source\PSoC5/SW_Tx_UART_1.c **** *******************************************************************************/
 141:Generated_Source\PSoC5/SW_Tx_UART_1.c **** void SW_Tx_UART_1_PutString(const char8 string[]) 
 142:Generated_Source\PSoC5/SW_Tx_UART_1.c **** {
  61              		.loc 1 142 0
  62              		.cfi_startproc
  63              		@ args = 0, pretend = 0, frame = 0
  64              		@ frame_needed = 0, uses_anonymous_args = 0
  65              	.LVL0:
  66              		.loc 1 142 0
  67 0000 38B5     		push	{r3, r4, r5, lr}
  68              		.cfi_def_cfa_offset 16
  69              		.cfi_offset 3, -16
  70              		.cfi_offset 4, -12
  71              		.cfi_offset 5, -8
  72              		.cfi_offset 14, -4
  73              		.loc 1 142 0
  74 0002 0546     		mov	r5, r0
 143:Generated_Source\PSoC5/SW_Tx_UART_1.c ****     uint8 stringIndex = 1u;
 144:Generated_Source\PSoC5/SW_Tx_UART_1.c ****     char8 current = *string;
  75              		.loc 1 144 0
  76 0004 0078     		ldrb	r0, [r0]	@ zero_extendqisi2
  77              	.LVL1:
 143:Generated_Source\PSoC5/SW_Tx_UART_1.c ****     uint8 stringIndex = 1u;
  78              		.loc 1 143 0
  79 0006 0124     		movs	r4, #1
  80              	.LVL2:
  81              	.L4:
 145:Generated_Source\PSoC5/SW_Tx_UART_1.c **** 
 146:Generated_Source\PSoC5/SW_Tx_UART_1.c ****     /* Until null is reached, print next character */
ARM GAS  C:\Users\THOMPS~1\AppData\Local\Temp\ccWfg3GM.s 			page 5


 147:Generated_Source\PSoC5/SW_Tx_UART_1.c ****     while((char8) '\0' != current)
  82              		.loc 1 147 0
  83 0008 28B1     		cbz	r0, .L7
 148:Generated_Source\PSoC5/SW_Tx_UART_1.c ****     {
 149:Generated_Source\PSoC5/SW_Tx_UART_1.c ****         SW_Tx_UART_1_PutChar((uint8)current);
  84              		.loc 1 149 0
  85 000a FFF7FEFF 		bl	SW_Tx_UART_1_PutChar
  86              	.LVL3:
 150:Generated_Source\PSoC5/SW_Tx_UART_1.c ****         current = string[stringIndex];
  87              		.loc 1 150 0
  88 000e 285D     		ldrb	r0, [r5, r4]	@ zero_extendqisi2
  89              	.LVL4:
 151:Generated_Source\PSoC5/SW_Tx_UART_1.c ****         stringIndex++;
  90              		.loc 1 151 0
  91 0010 0134     		adds	r4, r4, #1
  92              	.LVL5:
  93 0012 E4B2     		uxtb	r4, r4
  94              	.LVL6:
  95 0014 F8E7     		b	.L4
  96              	.L7:
 152:Generated_Source\PSoC5/SW_Tx_UART_1.c ****     }
 153:Generated_Source\PSoC5/SW_Tx_UART_1.c **** }
  97              		.loc 1 153 0
  98 0016 38BD     		pop	{r3, r4, r5, pc}
  99              		.cfi_endproc
 100              	.LFE2:
 101              		.size	SW_Tx_UART_1_PutString, .-SW_Tx_UART_1_PutString
 102              		.section	.text.SW_Tx_UART_1_PutArray,"ax",%progbits
 103              		.align	1
 104              		.global	SW_Tx_UART_1_PutArray
 105              		.thumb
 106              		.thumb_func
 107              		.type	SW_Tx_UART_1_PutArray, %function
 108              	SW_Tx_UART_1_PutArray:
 109              	.LFB3:
 154:Generated_Source\PSoC5/SW_Tx_UART_1.c **** 
 155:Generated_Source\PSoC5/SW_Tx_UART_1.c **** 
 156:Generated_Source\PSoC5/SW_Tx_UART_1.c **** /*******************************************************************************
 157:Generated_Source\PSoC5/SW_Tx_UART_1.c **** * Function Name: SW_Tx_UART_1_PutArray
 158:Generated_Source\PSoC5/SW_Tx_UART_1.c **** ********************************************************************************
 159:Generated_Source\PSoC5/SW_Tx_UART_1.c **** *
 160:Generated_Source\PSoC5/SW_Tx_UART_1.c **** * Summary:
 161:Generated_Source\PSoC5/SW_Tx_UART_1.c **** *  Sends byteCount bytes from a memory array via the Tx pin.
 162:Generated_Source\PSoC5/SW_Tx_UART_1.c **** *
 163:Generated_Source\PSoC5/SW_Tx_UART_1.c **** * Parameters:
 164:Generated_Source\PSoC5/SW_Tx_UART_1.c **** *  data: Pointer to the memory array
 165:Generated_Source\PSoC5/SW_Tx_UART_1.c **** *  byteCount: Number of bytes to be transmitted
 166:Generated_Source\PSoC5/SW_Tx_UART_1.c **** *
 167:Generated_Source\PSoC5/SW_Tx_UART_1.c **** * Return:
 168:Generated_Source\PSoC5/SW_Tx_UART_1.c **** *  None
 169:Generated_Source\PSoC5/SW_Tx_UART_1.c **** *
 170:Generated_Source\PSoC5/SW_Tx_UART_1.c **** *******************************************************************************/
 171:Generated_Source\PSoC5/SW_Tx_UART_1.c **** void SW_Tx_UART_1_PutArray(const uint8 array[], uint32 byteCount) 
 172:Generated_Source\PSoC5/SW_Tx_UART_1.c **** {
 110              		.loc 1 172 0
 111              		.cfi_startproc
 112              		@ args = 0, pretend = 0, frame = 0
ARM GAS  C:\Users\THOMPS~1\AppData\Local\Temp\ccWfg3GM.s 			page 6


 113              		@ frame_needed = 0, uses_anonymous_args = 0
 114              	.LVL7:
 115 0000 38B5     		push	{r3, r4, r5, lr}
 116              		.cfi_def_cfa_offset 16
 117              		.cfi_offset 3, -16
 118              		.cfi_offset 4, -12
 119              		.cfi_offset 5, -8
 120              		.cfi_offset 14, -4
 121 0002 0446     		mov	r4, r0
 122 0004 4518     		adds	r5, r0, r1
 123              	.LVL8:
 124              	.L9:
 173:Generated_Source\PSoC5/SW_Tx_UART_1.c ****     uint32 arrayIndex;
 174:Generated_Source\PSoC5/SW_Tx_UART_1.c **** 
 175:Generated_Source\PSoC5/SW_Tx_UART_1.c ****     for (arrayIndex = 0u; arrayIndex < byteCount; arrayIndex++)
 125              		.loc 1 175 0 discriminator 1
 126 0006 AC42     		cmp	r4, r5
 127 0008 04D0     		beq	.L11
 176:Generated_Source\PSoC5/SW_Tx_UART_1.c ****     {
 177:Generated_Source\PSoC5/SW_Tx_UART_1.c ****         SW_Tx_UART_1_PutChar(array[arrayIndex]);
 128              		.loc 1 177 0 discriminator 3
 129 000a 14F8010B 		ldrb	r0, [r4], #1	@ zero_extendqisi2
 130              	.LVL9:
 131 000e FFF7FEFF 		bl	SW_Tx_UART_1_PutChar
 132              	.LVL10:
 133 0012 F8E7     		b	.L9
 134              	.L11:
 178:Generated_Source\PSoC5/SW_Tx_UART_1.c ****     }
 179:Generated_Source\PSoC5/SW_Tx_UART_1.c **** }
 135              		.loc 1 179 0
 136 0014 38BD     		pop	{r3, r4, r5, pc}
 137              		.cfi_endproc
 138              	.LFE3:
 139              		.size	SW_Tx_UART_1_PutArray, .-SW_Tx_UART_1_PutArray
 140              		.section	.text.SW_Tx_UART_1_PutHexByte,"ax",%progbits
 141              		.align	1
 142              		.global	SW_Tx_UART_1_PutHexByte
 143              		.thumb
 144              		.thumb_func
 145              		.type	SW_Tx_UART_1_PutHexByte, %function
 146              	SW_Tx_UART_1_PutHexByte:
 147              	.LFB4:
 180:Generated_Source\PSoC5/SW_Tx_UART_1.c **** 
 181:Generated_Source\PSoC5/SW_Tx_UART_1.c **** 
 182:Generated_Source\PSoC5/SW_Tx_UART_1.c **** /*******************************************************************************
 183:Generated_Source\PSoC5/SW_Tx_UART_1.c **** * Function Name: SW_Tx_UART_1_PutHexByte
 184:Generated_Source\PSoC5/SW_Tx_UART_1.c **** ********************************************************************************
 185:Generated_Source\PSoC5/SW_Tx_UART_1.c **** *
 186:Generated_Source\PSoC5/SW_Tx_UART_1.c **** * Summary:
 187:Generated_Source\PSoC5/SW_Tx_UART_1.c **** *  Sends a byte in Hex representation (two characters, uppercase for A-F) via
 188:Generated_Source\PSoC5/SW_Tx_UART_1.c **** *  the Tx pin.
 189:Generated_Source\PSoC5/SW_Tx_UART_1.c **** *
 190:Generated_Source\PSoC5/SW_Tx_UART_1.c **** * Parameters:
 191:Generated_Source\PSoC5/SW_Tx_UART_1.c **** *  TxHexByte: The byte to be converted to ASCII characters and
 192:Generated_Source\PSoC5/SW_Tx_UART_1.c **** *             sent via the Tx pin.
 193:Generated_Source\PSoC5/SW_Tx_UART_1.c **** *
 194:Generated_Source\PSoC5/SW_Tx_UART_1.c **** * Return:
ARM GAS  C:\Users\THOMPS~1\AppData\Local\Temp\ccWfg3GM.s 			page 7


 195:Generated_Source\PSoC5/SW_Tx_UART_1.c **** *  None
 196:Generated_Source\PSoC5/SW_Tx_UART_1.c **** *
 197:Generated_Source\PSoC5/SW_Tx_UART_1.c **** *******************************************************************************/
 198:Generated_Source\PSoC5/SW_Tx_UART_1.c **** void SW_Tx_UART_1_PutHexByte(uint8 txHexByte) 
 199:Generated_Source\PSoC5/SW_Tx_UART_1.c **** {
 148              		.loc 1 199 0
 149              		.cfi_startproc
 150              		@ args = 0, pretend = 0, frame = 0
 151              		@ frame_needed = 0, uses_anonymous_args = 0
 152              	.LVL11:
 153 0000 38B5     		push	{r3, r4, r5, lr}
 154              		.cfi_def_cfa_offset 16
 155              		.cfi_offset 3, -16
 156              		.cfi_offset 4, -12
 157              		.cfi_offset 5, -8
 158              		.cfi_offset 14, -4
 159              		.loc 1 199 0
 160 0002 0446     		mov	r4, r0
 200:Generated_Source\PSoC5/SW_Tx_UART_1.c ****     static char8 const CYCODE SW_Tx_UART_1_hex[] = "0123456789ABCDEF";
 201:Generated_Source\PSoC5/SW_Tx_UART_1.c **** 
 202:Generated_Source\PSoC5/SW_Tx_UART_1.c ****     SW_Tx_UART_1_PutChar((uint8) SW_Tx_UART_1_hex[txHexByte >> SW_Tx_UART_1_BYTE_UPPER_NIBBLE_SHIFT
 161              		.loc 1 202 0
 162 0004 054D     		ldr	r5, .L13
 163 0006 0309     		lsrs	r3, r0, #4
 164 0008 E85C     		ldrb	r0, [r5, r3]	@ zero_extendqisi2
 165              	.LVL12:
 203:Generated_Source\PSoC5/SW_Tx_UART_1.c ****     SW_Tx_UART_1_PutChar((uint8) SW_Tx_UART_1_hex[txHexByte & SW_Tx_UART_1_BYTE_LOWER_NIBBLE_MASK])
 166              		.loc 1 203 0
 167 000a 04F00F04 		and	r4, r4, #15
 202:Generated_Source\PSoC5/SW_Tx_UART_1.c ****     SW_Tx_UART_1_PutChar((uint8) SW_Tx_UART_1_hex[txHexByte & SW_Tx_UART_1_BYTE_LOWER_NIBBLE_MASK])
 168              		.loc 1 202 0
 169 000e FFF7FEFF 		bl	SW_Tx_UART_1_PutChar
 170              	.LVL13:
 171              		.loc 1 203 0
 172 0012 285D     		ldrb	r0, [r5, r4]	@ zero_extendqisi2
 204:Generated_Source\PSoC5/SW_Tx_UART_1.c **** }
 173              		.loc 1 204 0
 174 0014 BDE83840 		pop	{r3, r4, r5, lr}
 175              		.cfi_restore 14
 176              		.cfi_restore 5
 177              		.cfi_restore 4
 178              		.cfi_restore 3
 179              		.cfi_def_cfa_offset 0
 203:Generated_Source\PSoC5/SW_Tx_UART_1.c ****     SW_Tx_UART_1_PutChar((uint8) SW_Tx_UART_1_hex[txHexByte & SW_Tx_UART_1_BYTE_LOWER_NIBBLE_MASK])
 180              		.loc 1 203 0
 181 0018 FFF7FEBF 		b	SW_Tx_UART_1_PutChar
 182              	.LVL14:
 183              	.L14:
 184              		.align	2
 185              	.L13:
 186 001c 00000000 		.word	.LANCHOR0
 187              		.cfi_endproc
 188              	.LFE4:
 189              		.size	SW_Tx_UART_1_PutHexByte, .-SW_Tx_UART_1_PutHexByte
 190              		.section	.text.SW_Tx_UART_1_PutHexInt,"ax",%progbits
 191              		.align	1
 192              		.global	SW_Tx_UART_1_PutHexInt
ARM GAS  C:\Users\THOMPS~1\AppData\Local\Temp\ccWfg3GM.s 			page 8


 193              		.thumb
 194              		.thumb_func
 195              		.type	SW_Tx_UART_1_PutHexInt, %function
 196              	SW_Tx_UART_1_PutHexInt:
 197              	.LFB5:
 205:Generated_Source\PSoC5/SW_Tx_UART_1.c **** 
 206:Generated_Source\PSoC5/SW_Tx_UART_1.c **** 
 207:Generated_Source\PSoC5/SW_Tx_UART_1.c **** /*******************************************************************************
 208:Generated_Source\PSoC5/SW_Tx_UART_1.c **** * Function Name: SW_Tx_UART_1_PutHexInt
 209:Generated_Source\PSoC5/SW_Tx_UART_1.c **** ********************************************************************************
 210:Generated_Source\PSoC5/SW_Tx_UART_1.c **** *
 211:Generated_Source\PSoC5/SW_Tx_UART_1.c **** * Summary:
 212:Generated_Source\PSoC5/SW_Tx_UART_1.c **** *  Sends a 16-bit unsigned integer in Hex representation (four characters,
 213:Generated_Source\PSoC5/SW_Tx_UART_1.c **** *  uppercase for A-F) via the Tx pin.
 214:Generated_Source\PSoC5/SW_Tx_UART_1.c **** *
 215:Generated_Source\PSoC5/SW_Tx_UART_1.c **** * Parameters:
 216:Generated_Source\PSoC5/SW_Tx_UART_1.c **** *  TxHexInt: The uint16 to be converted to ASCII characters and sent via
 217:Generated_Source\PSoC5/SW_Tx_UART_1.c **** *            the Tx pin.
 218:Generated_Source\PSoC5/SW_Tx_UART_1.c **** *
 219:Generated_Source\PSoC5/SW_Tx_UART_1.c **** * Return:
 220:Generated_Source\PSoC5/SW_Tx_UART_1.c **** *  None
 221:Generated_Source\PSoC5/SW_Tx_UART_1.c **** *
 222:Generated_Source\PSoC5/SW_Tx_UART_1.c **** *******************************************************************************/
 223:Generated_Source\PSoC5/SW_Tx_UART_1.c **** void SW_Tx_UART_1_PutHexInt(uint16 txHexInt) 
 224:Generated_Source\PSoC5/SW_Tx_UART_1.c **** {
 198              		.loc 1 224 0
 199              		.cfi_startproc
 200              		@ args = 0, pretend = 0, frame = 0
 201              		@ frame_needed = 0, uses_anonymous_args = 0
 202              	.LVL15:
 203 0000 10B5     		push	{r4, lr}
 204              		.cfi_def_cfa_offset 8
 205              		.cfi_offset 4, -8
 206              		.cfi_offset 14, -4
 207              		.loc 1 224 0
 208 0002 0446     		mov	r4, r0
 225:Generated_Source\PSoC5/SW_Tx_UART_1.c ****     SW_Tx_UART_1_PutHexByte((uint8)(txHexInt >> SW_Tx_UART_1_U16_UPPER_BYTE_SHIFT));
 209              		.loc 1 225 0
 210 0004 000A     		lsrs	r0, r0, #8
 211              	.LVL16:
 212 0006 FFF7FEFF 		bl	SW_Tx_UART_1_PutHexByte
 213              	.LVL17:
 226:Generated_Source\PSoC5/SW_Tx_UART_1.c ****     SW_Tx_UART_1_PutHexByte((uint8)(txHexInt & SW_Tx_UART_1_U16_LOWER_BYTE_MASK));
 214              		.loc 1 226 0
 215 000a E0B2     		uxtb	r0, r4
 227:Generated_Source\PSoC5/SW_Tx_UART_1.c **** }
 216              		.loc 1 227 0
 217 000c BDE81040 		pop	{r4, lr}
 218              		.cfi_restore 14
 219              		.cfi_restore 4
 220              		.cfi_def_cfa_offset 0
 226:Generated_Source\PSoC5/SW_Tx_UART_1.c ****     SW_Tx_UART_1_PutHexByte((uint8)(txHexInt & SW_Tx_UART_1_U16_LOWER_BYTE_MASK));
 221              		.loc 1 226 0
 222 0010 FFF7FEBF 		b	SW_Tx_UART_1_PutHexByte
 223              	.LVL18:
 224              		.cfi_endproc
 225              	.LFE5:
ARM GAS  C:\Users\THOMPS~1\AppData\Local\Temp\ccWfg3GM.s 			page 9


 226              		.size	SW_Tx_UART_1_PutHexInt, .-SW_Tx_UART_1_PutHexInt
 227              		.section	.text.SW_Tx_UART_1_PutCRLF,"ax",%progbits
 228              		.align	1
 229              		.global	SW_Tx_UART_1_PutCRLF
 230              		.thumb
 231              		.thumb_func
 232              		.type	SW_Tx_UART_1_PutCRLF, %function
 233              	SW_Tx_UART_1_PutCRLF:
 234              	.LFB6:
 228:Generated_Source\PSoC5/SW_Tx_UART_1.c **** 
 229:Generated_Source\PSoC5/SW_Tx_UART_1.c **** 
 230:Generated_Source\PSoC5/SW_Tx_UART_1.c **** /*******************************************************************************
 231:Generated_Source\PSoC5/SW_Tx_UART_1.c **** * Function Name: SW_Tx_UART_1_PutCRLF
 232:Generated_Source\PSoC5/SW_Tx_UART_1.c **** ********************************************************************************
 233:Generated_Source\PSoC5/SW_Tx_UART_1.c **** *
 234:Generated_Source\PSoC5/SW_Tx_UART_1.c **** * Summary:
 235:Generated_Source\PSoC5/SW_Tx_UART_1.c **** *  Sends a carriage return (0x0D) and a line feed (0x0A) via the Tx pin.
 236:Generated_Source\PSoC5/SW_Tx_UART_1.c **** *
 237:Generated_Source\PSoC5/SW_Tx_UART_1.c **** * Parameters:
 238:Generated_Source\PSoC5/SW_Tx_UART_1.c **** *  None
 239:Generated_Source\PSoC5/SW_Tx_UART_1.c **** *
 240:Generated_Source\PSoC5/SW_Tx_UART_1.c **** * Return:
 241:Generated_Source\PSoC5/SW_Tx_UART_1.c **** *  None
 242:Generated_Source\PSoC5/SW_Tx_UART_1.c **** *
 243:Generated_Source\PSoC5/SW_Tx_UART_1.c **** *******************************************************************************/
 244:Generated_Source\PSoC5/SW_Tx_UART_1.c **** void SW_Tx_UART_1_PutCRLF(void) 
 245:Generated_Source\PSoC5/SW_Tx_UART_1.c **** {
 235              		.loc 1 245 0
 236              		.cfi_startproc
 237              		@ args = 0, pretend = 0, frame = 0
 238              		@ frame_needed = 0, uses_anonymous_args = 0
 239 0000 08B5     		push	{r3, lr}
 240              		.cfi_def_cfa_offset 8
 241              		.cfi_offset 3, -8
 242              		.cfi_offset 14, -4
 246:Generated_Source\PSoC5/SW_Tx_UART_1.c ****     SW_Tx_UART_1_PutChar(0x0Du);
 243              		.loc 1 246 0
 244 0002 0D20     		movs	r0, #13
 245 0004 FFF7FEFF 		bl	SW_Tx_UART_1_PutChar
 246              	.LVL19:
 247:Generated_Source\PSoC5/SW_Tx_UART_1.c ****     SW_Tx_UART_1_PutChar(0x0Au);
 248:Generated_Source\PSoC5/SW_Tx_UART_1.c **** }
 247              		.loc 1 248 0
 248 0008 BDE80840 		pop	{r3, lr}
 249              		.cfi_restore 14
 250              		.cfi_restore 3
 251              		.cfi_def_cfa_offset 0
 247:Generated_Source\PSoC5/SW_Tx_UART_1.c ****     SW_Tx_UART_1_PutChar(0x0Au);
 252              		.loc 1 247 0
 253 000c 0A20     		movs	r0, #10
 254 000e FFF7FEBF 		b	SW_Tx_UART_1_PutChar
 255              	.LVL20:
 256              		.cfi_endproc
 257              	.LFE6:
 258              		.size	SW_Tx_UART_1_PutCRLF, .-SW_Tx_UART_1_PutCRLF
 259              		.global	SW_Tx_UART_1_pinDrAdress
 260              		.global	SW_Tx_UART_1_pinPortNumber
ARM GAS  C:\Users\THOMPS~1\AppData\Local\Temp\ccWfg3GM.s 			page 10


 261              		.global	SW_Tx_UART_1_pinNumber
 262              		.section	.rodata
 263              		.set	.LANCHOR0,. + 0
 264              		.type	SW_Tx_UART_1_hex.4274, %object
 265              		.size	SW_Tx_UART_1_hex.4274, 17
 266              	SW_Tx_UART_1_hex.4274:
 267 0000 30313233 		.ascii	"0123456789ABCDEF\000"
 267      34353637 
 267      38394142 
 267      43444546 
 267      00
 268              		.data
 269              		.align	2
 270              		.type	SW_Tx_UART_1_pinDrAdress, %object
 271              		.size	SW_Tx_UART_1_pinDrAdress, 4
 272              	SW_Tx_UART_1_pinDrAdress:
 273 0000 11500040 		.word	1073762321
 274              		.type	SW_Tx_UART_1_pinPortNumber, %object
 275              		.size	SW_Tx_UART_1_pinPortNumber, 4
 276              	SW_Tx_UART_1_pinPortNumber:
 277 0004 02000000 		.word	2
 278              		.type	SW_Tx_UART_1_pinNumber, %object
 279              		.size	SW_Tx_UART_1_pinNumber, 4
 280              	SW_Tx_UART_1_pinNumber:
 281 0008 01000000 		.word	1
 282              		.text
 283              	.Letext0:
 284              		.file 2 "Generated_Source\\PSoC5\\cytypes.h"
 285              		.file 3 "Generated_Source\\PSoC5\\SW_Tx_UART_1.h"