ARM GAS  C:\Users\THOMPS~1\AppData\Local\Temp\cc8CdyPm.s 			page 1


   1              		.syntax unified
   2              		.cpu cortex-m3
   3              		.fpu softvfp
   4              		.eabi_attribute 20, 1
   5              		.eabi_attribute 21, 1
   6              		.eabi_attribute 23, 3
   7              		.eabi_attribute 24, 1
   8              		.eabi_attribute 25, 1
   9              		.eabi_attribute 26, 1
  10              		.eabi_attribute 30, 4
  11              		.eabi_attribute 34, 1
  12              		.eabi_attribute 18, 4
  13              		.thumb
  14              		.syntax unified
  15              		.file	"switches_PM.c"
  16              		.text
  17              	.Ltext0:
  18              		.cfi_sections	.debug_frame
  19              		.section	.text.switches_SaveConfig,"ax",%progbits
  20              		.align	1
  21              		.global	switches_SaveConfig
  22              		.thumb
  23              		.thumb_func
  24              		.type	switches_SaveConfig, %function
  25              	switches_SaveConfig:
  26              	.LFB0:
  27              		.file 1 "Generated_Source\\PSoC5\\switches_PM.c"
   1:Generated_Source\PSoC5/switches_PM.c **** /*******************************************************************************
   2:Generated_Source\PSoC5/switches_PM.c **** * File Name: switches_PM.c
   3:Generated_Source\PSoC5/switches_PM.c **** * Version 1.80
   4:Generated_Source\PSoC5/switches_PM.c **** *
   5:Generated_Source\PSoC5/switches_PM.c **** * Description:
   6:Generated_Source\PSoC5/switches_PM.c **** *  This file contains the setup, control, and status commands to support 
   7:Generated_Source\PSoC5/switches_PM.c **** *  the component operation in the low power mode. 
   8:Generated_Source\PSoC5/switches_PM.c **** *
   9:Generated_Source\PSoC5/switches_PM.c **** * Note:
  10:Generated_Source\PSoC5/switches_PM.c **** *
  11:Generated_Source\PSoC5/switches_PM.c **** ********************************************************************************
  12:Generated_Source\PSoC5/switches_PM.c **** * Copyright 2015, Cypress Semiconductor Corporation.  All rights reserved.
  13:Generated_Source\PSoC5/switches_PM.c **** * You may use this file only in accordance with the license, terms, conditions, 
  14:Generated_Source\PSoC5/switches_PM.c **** * disclaimers, and limitations in the end user license agreement accompanying 
  15:Generated_Source\PSoC5/switches_PM.c **** * the software package with which this file was provided.
  16:Generated_Source\PSoC5/switches_PM.c **** *******************************************************************************/
  17:Generated_Source\PSoC5/switches_PM.c **** 
  18:Generated_Source\PSoC5/switches_PM.c **** #include "switches.h"
  19:Generated_Source\PSoC5/switches_PM.c **** 
  20:Generated_Source\PSoC5/switches_PM.c **** /* Check for removal by optimization */
  21:Generated_Source\PSoC5/switches_PM.c **** #if !defined(switches_Sync_ctrl_reg__REMOVED)
  22:Generated_Source\PSoC5/switches_PM.c **** 
  23:Generated_Source\PSoC5/switches_PM.c **** static switches_BACKUP_STRUCT  switches_backup = {0u};
  24:Generated_Source\PSoC5/switches_PM.c **** 
  25:Generated_Source\PSoC5/switches_PM.c ****     
  26:Generated_Source\PSoC5/switches_PM.c **** /*******************************************************************************
  27:Generated_Source\PSoC5/switches_PM.c **** * Function Name: switches_SaveConfig
  28:Generated_Source\PSoC5/switches_PM.c **** ********************************************************************************
  29:Generated_Source\PSoC5/switches_PM.c **** *
  30:Generated_Source\PSoC5/switches_PM.c **** * Summary:
ARM GAS  C:\Users\THOMPS~1\AppData\Local\Temp\cc8CdyPm.s 			page 2


  31:Generated_Source\PSoC5/switches_PM.c **** *  Saves the control register value.
  32:Generated_Source\PSoC5/switches_PM.c **** *
  33:Generated_Source\PSoC5/switches_PM.c **** * Parameters:
  34:Generated_Source\PSoC5/switches_PM.c **** *  None
  35:Generated_Source\PSoC5/switches_PM.c **** *
  36:Generated_Source\PSoC5/switches_PM.c **** * Return:
  37:Generated_Source\PSoC5/switches_PM.c **** *  None
  38:Generated_Source\PSoC5/switches_PM.c **** *
  39:Generated_Source\PSoC5/switches_PM.c **** *******************************************************************************/
  40:Generated_Source\PSoC5/switches_PM.c **** void switches_SaveConfig(void) 
  41:Generated_Source\PSoC5/switches_PM.c **** {
  28              		.loc 1 41 0
  29              		.cfi_startproc
  30              		@ args = 0, pretend = 0, frame = 0
  31              		@ frame_needed = 0, uses_anonymous_args = 0
  32              		@ link register save eliminated.
  42:Generated_Source\PSoC5/switches_PM.c ****     switches_backup.controlState = switches_Control;
  33              		.loc 1 42 0
  34 0000 024B     		ldr	r3, .L2
  35 0002 1A78     		ldrb	r2, [r3]	@ zero_extendqisi2
  36 0004 024B     		ldr	r3, .L2+4
  37 0006 1A70     		strb	r2, [r3]
  38 0008 7047     		bx	lr
  39              	.L3:
  40 000a 00BF     		.align	2
  41              	.L2:
  42 000c 72640040 		.word	1073767538
  43 0010 00000000 		.word	.LANCHOR0
  44              		.cfi_endproc
  45              	.LFE0:
  46              		.size	switches_SaveConfig, .-switches_SaveConfig
  47              		.section	.text.switches_RestoreConfig,"ax",%progbits
  48              		.align	1
  49              		.global	switches_RestoreConfig
  50              		.thumb
  51              		.thumb_func
  52              		.type	switches_RestoreConfig, %function
  53              	switches_RestoreConfig:
  54              	.LFB1:
  43:Generated_Source\PSoC5/switches_PM.c **** }
  44:Generated_Source\PSoC5/switches_PM.c **** 
  45:Generated_Source\PSoC5/switches_PM.c **** 
  46:Generated_Source\PSoC5/switches_PM.c **** /*******************************************************************************
  47:Generated_Source\PSoC5/switches_PM.c **** * Function Name: switches_RestoreConfig
  48:Generated_Source\PSoC5/switches_PM.c **** ********************************************************************************
  49:Generated_Source\PSoC5/switches_PM.c **** *
  50:Generated_Source\PSoC5/switches_PM.c **** * Summary:
  51:Generated_Source\PSoC5/switches_PM.c **** *  Restores the control register value.
  52:Generated_Source\PSoC5/switches_PM.c **** *
  53:Generated_Source\PSoC5/switches_PM.c **** * Parameters:
  54:Generated_Source\PSoC5/switches_PM.c **** *  None
  55:Generated_Source\PSoC5/switches_PM.c **** *
  56:Generated_Source\PSoC5/switches_PM.c **** * Return:
  57:Generated_Source\PSoC5/switches_PM.c **** *  None
  58:Generated_Source\PSoC5/switches_PM.c **** *
  59:Generated_Source\PSoC5/switches_PM.c **** *
  60:Generated_Source\PSoC5/switches_PM.c **** *******************************************************************************/
ARM GAS  C:\Users\THOMPS~1\AppData\Local\Temp\cc8CdyPm.s 			page 3


  61:Generated_Source\PSoC5/switches_PM.c **** void switches_RestoreConfig(void) 
  62:Generated_Source\PSoC5/switches_PM.c **** {
  55              		.loc 1 62 0
  56              		.cfi_startproc
  57              		@ args = 0, pretend = 0, frame = 0
  58              		@ frame_needed = 0, uses_anonymous_args = 0
  59              		@ link register save eliminated.
  63:Generated_Source\PSoC5/switches_PM.c ****      switches_Control = switches_backup.controlState;
  60              		.loc 1 63 0
  61 0000 024B     		ldr	r3, .L5
  62 0002 1A78     		ldrb	r2, [r3]	@ zero_extendqisi2
  63 0004 024B     		ldr	r3, .L5+4
  64 0006 1A70     		strb	r2, [r3]
  65 0008 7047     		bx	lr
  66              	.L6:
  67 000a 00BF     		.align	2
  68              	.L5:
  69 000c 00000000 		.word	.LANCHOR0
  70 0010 72640040 		.word	1073767538
  71              		.cfi_endproc
  72              	.LFE1:
  73              		.size	switches_RestoreConfig, .-switches_RestoreConfig
  74              		.section	.text.switches_Sleep,"ax",%progbits
  75              		.align	1
  76              		.global	switches_Sleep
  77              		.thumb
  78              		.thumb_func
  79              		.type	switches_Sleep, %function
  80              	switches_Sleep:
  81              	.LFB2:
  64:Generated_Source\PSoC5/switches_PM.c **** }
  65:Generated_Source\PSoC5/switches_PM.c **** 
  66:Generated_Source\PSoC5/switches_PM.c **** 
  67:Generated_Source\PSoC5/switches_PM.c **** /*******************************************************************************
  68:Generated_Source\PSoC5/switches_PM.c **** * Function Name: switches_Sleep
  69:Generated_Source\PSoC5/switches_PM.c **** ********************************************************************************
  70:Generated_Source\PSoC5/switches_PM.c **** *
  71:Generated_Source\PSoC5/switches_PM.c **** * Summary:
  72:Generated_Source\PSoC5/switches_PM.c **** *  Prepares the component for entering the low power mode.
  73:Generated_Source\PSoC5/switches_PM.c **** *
  74:Generated_Source\PSoC5/switches_PM.c **** * Parameters:
  75:Generated_Source\PSoC5/switches_PM.c **** *  None
  76:Generated_Source\PSoC5/switches_PM.c **** *
  77:Generated_Source\PSoC5/switches_PM.c **** * Return:
  78:Generated_Source\PSoC5/switches_PM.c **** *  None
  79:Generated_Source\PSoC5/switches_PM.c **** *
  80:Generated_Source\PSoC5/switches_PM.c **** *******************************************************************************/
  81:Generated_Source\PSoC5/switches_PM.c **** void switches_Sleep(void) 
  82:Generated_Source\PSoC5/switches_PM.c **** {
  82              		.loc 1 82 0
  83              		.cfi_startproc
  84              		@ args = 0, pretend = 0, frame = 0
  85              		@ frame_needed = 0, uses_anonymous_args = 0
  86              		@ link register save eliminated.
  83:Generated_Source\PSoC5/switches_PM.c ****     switches_SaveConfig();
  87              		.loc 1 83 0
  88 0000 FFF7FEBF 		b	switches_SaveConfig
ARM GAS  C:\Users\THOMPS~1\AppData\Local\Temp\cc8CdyPm.s 			page 4


  89              	.LVL0:
  90              		.cfi_endproc
  91              	.LFE2:
  92              		.size	switches_Sleep, .-switches_Sleep
  93              		.section	.text.switches_Wakeup,"ax",%progbits
  94              		.align	1
  95              		.global	switches_Wakeup
  96              		.thumb
  97              		.thumb_func
  98              		.type	switches_Wakeup, %function
  99              	switches_Wakeup:
 100              	.LFB3:
  84:Generated_Source\PSoC5/switches_PM.c **** }
  85:Generated_Source\PSoC5/switches_PM.c **** 
  86:Generated_Source\PSoC5/switches_PM.c **** 
  87:Generated_Source\PSoC5/switches_PM.c **** /*******************************************************************************
  88:Generated_Source\PSoC5/switches_PM.c **** * Function Name: switches_Wakeup
  89:Generated_Source\PSoC5/switches_PM.c **** ********************************************************************************
  90:Generated_Source\PSoC5/switches_PM.c **** *
  91:Generated_Source\PSoC5/switches_PM.c **** * Summary:
  92:Generated_Source\PSoC5/switches_PM.c **** *  Restores the component after waking up from the low power mode.
  93:Generated_Source\PSoC5/switches_PM.c **** *
  94:Generated_Source\PSoC5/switches_PM.c **** * Parameters:
  95:Generated_Source\PSoC5/switches_PM.c **** *  None
  96:Generated_Source\PSoC5/switches_PM.c **** *
  97:Generated_Source\PSoC5/switches_PM.c **** * Return:
  98:Generated_Source\PSoC5/switches_PM.c **** *  None
  99:Generated_Source\PSoC5/switches_PM.c **** *
 100:Generated_Source\PSoC5/switches_PM.c **** *******************************************************************************/
 101:Generated_Source\PSoC5/switches_PM.c **** void switches_Wakeup(void)  
 102:Generated_Source\PSoC5/switches_PM.c **** {
 101              		.loc 1 102 0
 102              		.cfi_startproc
 103              		@ args = 0, pretend = 0, frame = 0
 104              		@ frame_needed = 0, uses_anonymous_args = 0
 105              		@ link register save eliminated.
 103:Generated_Source\PSoC5/switches_PM.c ****     switches_RestoreConfig();
 106              		.loc 1 103 0
 107 0000 FFF7FEBF 		b	switches_RestoreConfig
 108              	.LVL1:
 109              		.cfi_endproc
 110              	.LFE3:
 111              		.size	switches_Wakeup, .-switches_Wakeup
 112              		.bss
 113              		.set	.LANCHOR0,. + 0
 114              		.type	switches_backup, %object
 115              		.size	switches_backup, 1
 116              	switches_backup:
 117 0000 00       		.space	1
 118              		.text
 119              	.Letext0:
 120              		.file 2 "Generated_Source\\PSoC5\\cytypes.h"
 121              		.file 3 "Generated_Source\\PSoC5\\switches.h"