ARM GAS  C:\Users\THOMPS~1\AppData\Local\Temp\ccfH9zX7.s 			page 1


   1              		.syntax unified
   2              		.cpu cortex-m3
   3              		.fpu softvfp
   4              		.eabi_attribute 20, 1
   5              		.eabi_attribute 21, 1
   6              		.eabi_attribute 23, 3
   7              		.eabi_attribute 24, 1
   8              		.eabi_attribute 25, 1
   9              		.eabi_attribute 26, 1
  10              		.eabi_attribute 30, 1
  11              		.eabi_attribute 34, 1
  12              		.eabi_attribute 18, 4
  13              		.thumb
  14              		.file	"cyfitter_cfg.c"
  15              		.text
  16              	.Ltext0:
  17              		.cfi_sections	.debug_frame
  18              		.section	.text.CyClockStartupError,"ax",%progbits
  19              		.align	2
  20              		.thumb
  21              		.thumb_func
  22              		.type	CyClockStartupError, %function
  23              	CyClockStartupError:
  24              	.LFB3:
  25              		.file 1 "Generated_Source\\PSoC5\\cyfitter_cfg.c"
   1:Generated_Source\PSoC5/cyfitter_cfg.c **** /*******************************************************************************
   2:Generated_Source\PSoC5/cyfitter_cfg.c **** * File Name: cyfitter_cfg.c
   3:Generated_Source\PSoC5/cyfitter_cfg.c **** * 
   4:Generated_Source\PSoC5/cyfitter_cfg.c **** * PSoC Creator  4.0 Update 1
   5:Generated_Source\PSoC5/cyfitter_cfg.c **** *
   6:Generated_Source\PSoC5/cyfitter_cfg.c **** * Description:
   7:Generated_Source\PSoC5/cyfitter_cfg.c **** * This file contains device initialization code.
   8:Generated_Source\PSoC5/cyfitter_cfg.c **** * Except for the user defined sections in CyClockStartupError(), this file should not be modified.
   9:Generated_Source\PSoC5/cyfitter_cfg.c **** * This file is automatically generated by PSoC Creator.
  10:Generated_Source\PSoC5/cyfitter_cfg.c **** *
  11:Generated_Source\PSoC5/cyfitter_cfg.c **** ********************************************************************************
  12:Generated_Source\PSoC5/cyfitter_cfg.c **** * Copyright (c) 2007-2016 Cypress Semiconductor.  All rights reserved.
  13:Generated_Source\PSoC5/cyfitter_cfg.c **** * You may use this file only in accordance with the license, terms, conditions, 
  14:Generated_Source\PSoC5/cyfitter_cfg.c **** * disclaimers, and limitations in the end user license agreement accompanying 
  15:Generated_Source\PSoC5/cyfitter_cfg.c **** * the software package with which this file was provided.
  16:Generated_Source\PSoC5/cyfitter_cfg.c **** ********************************************************************************/
  17:Generated_Source\PSoC5/cyfitter_cfg.c **** 
  18:Generated_Source\PSoC5/cyfitter_cfg.c **** #include <string.h>
  19:Generated_Source\PSoC5/cyfitter_cfg.c **** #include "cytypes.h"
  20:Generated_Source\PSoC5/cyfitter_cfg.c **** #include "cydevice_trm.h"
  21:Generated_Source\PSoC5/cyfitter_cfg.c **** #include "cyfitter.h"
  22:Generated_Source\PSoC5/cyfitter_cfg.c **** #include "CyLib.h"
  23:Generated_Source\PSoC5/cyfitter_cfg.c **** #include "cyfitter_cfg.h"
  24:Generated_Source\PSoC5/cyfitter_cfg.c **** #include "cyapicallbacks.h"
  25:Generated_Source\PSoC5/cyfitter_cfg.c **** 
  26:Generated_Source\PSoC5/cyfitter_cfg.c **** #define CY_NEED_CYCLOCKSTARTUPERROR 1
  27:Generated_Source\PSoC5/cyfitter_cfg.c **** 
  28:Generated_Source\PSoC5/cyfitter_cfg.c **** 
  29:Generated_Source\PSoC5/cyfitter_cfg.c **** #if defined(__GNUC__) || defined(__ARMCC_VERSION)
  30:Generated_Source\PSoC5/cyfitter_cfg.c ****     #define CYPACKED 
  31:Generated_Source\PSoC5/cyfitter_cfg.c ****     #define CYPACKED_ATTR __attribute__ ((packed))
  32:Generated_Source\PSoC5/cyfitter_cfg.c ****     #define CYALIGNED __attribute__ ((aligned))
ARM GAS  C:\Users\THOMPS~1\AppData\Local\Temp\ccfH9zX7.s 			page 2


  33:Generated_Source\PSoC5/cyfitter_cfg.c ****     #define CY_CFG_UNUSED __attribute__ ((unused))
  34:Generated_Source\PSoC5/cyfitter_cfg.c ****     #ifndef CY_CFG_SECTION
  35:Generated_Source\PSoC5/cyfitter_cfg.c ****         #define CY_CFG_SECTION __attribute__ ((section(".psocinit")))
  36:Generated_Source\PSoC5/cyfitter_cfg.c ****     #endif
  37:Generated_Source\PSoC5/cyfitter_cfg.c ****     
  38:Generated_Source\PSoC5/cyfitter_cfg.c ****     #if defined(__ARMCC_VERSION)
  39:Generated_Source\PSoC5/cyfitter_cfg.c ****         #define CY_CFG_MEMORY_BARRIER() __memory_changed()
  40:Generated_Source\PSoC5/cyfitter_cfg.c ****     #else
  41:Generated_Source\PSoC5/cyfitter_cfg.c ****         #define CY_CFG_MEMORY_BARRIER() __sync_synchronize()
  42:Generated_Source\PSoC5/cyfitter_cfg.c ****     #endif
  43:Generated_Source\PSoC5/cyfitter_cfg.c ****     
  44:Generated_Source\PSoC5/cyfitter_cfg.c **** #elif defined(__ICCARM__)
  45:Generated_Source\PSoC5/cyfitter_cfg.c ****     #include <intrinsics.h>
  46:Generated_Source\PSoC5/cyfitter_cfg.c **** 
  47:Generated_Source\PSoC5/cyfitter_cfg.c ****     #define CYPACKED __packed
  48:Generated_Source\PSoC5/cyfitter_cfg.c ****     #define CYPACKED_ATTR 
  49:Generated_Source\PSoC5/cyfitter_cfg.c ****     #define CYALIGNED _Pragma("data_alignment=4")
  50:Generated_Source\PSoC5/cyfitter_cfg.c ****     #define CY_CFG_UNUSED _Pragma("diag_suppress=Pe177")
  51:Generated_Source\PSoC5/cyfitter_cfg.c ****     #define CY_CFG_SECTION _Pragma("location=\".psocinit\"")
  52:Generated_Source\PSoC5/cyfitter_cfg.c ****     
  53:Generated_Source\PSoC5/cyfitter_cfg.c ****     #define CY_CFG_MEMORY_BARRIER() __DMB()
  54:Generated_Source\PSoC5/cyfitter_cfg.c ****     
  55:Generated_Source\PSoC5/cyfitter_cfg.c **** #else
  56:Generated_Source\PSoC5/cyfitter_cfg.c ****     #error Unsupported toolchain
  57:Generated_Source\PSoC5/cyfitter_cfg.c **** #endif
  58:Generated_Source\PSoC5/cyfitter_cfg.c **** 
  59:Generated_Source\PSoC5/cyfitter_cfg.c **** 
  60:Generated_Source\PSoC5/cyfitter_cfg.c **** CY_CFG_UNUSED
  61:Generated_Source\PSoC5/cyfitter_cfg.c **** static void CYMEMZERO(void *s, size_t n);
  62:Generated_Source\PSoC5/cyfitter_cfg.c **** CY_CFG_UNUSED
  63:Generated_Source\PSoC5/cyfitter_cfg.c **** static void CYMEMZERO(void *s, size_t n)
  64:Generated_Source\PSoC5/cyfitter_cfg.c **** {
  65:Generated_Source\PSoC5/cyfitter_cfg.c **** 	(void)memset(s, 0, n);
  66:Generated_Source\PSoC5/cyfitter_cfg.c **** }
  67:Generated_Source\PSoC5/cyfitter_cfg.c **** CY_CFG_UNUSED
  68:Generated_Source\PSoC5/cyfitter_cfg.c **** static void CYCONFIGCPY(void *dest, const void *src, size_t n);
  69:Generated_Source\PSoC5/cyfitter_cfg.c **** CY_CFG_UNUSED
  70:Generated_Source\PSoC5/cyfitter_cfg.c **** static void CYCONFIGCPY(void *dest, const void *src, size_t n)
  71:Generated_Source\PSoC5/cyfitter_cfg.c **** {
  72:Generated_Source\PSoC5/cyfitter_cfg.c **** 	(void)memcpy(dest, src, n);
  73:Generated_Source\PSoC5/cyfitter_cfg.c **** }
  74:Generated_Source\PSoC5/cyfitter_cfg.c **** CY_CFG_UNUSED
  75:Generated_Source\PSoC5/cyfitter_cfg.c **** static void CYCONFIGCPYCODE(void *dest, const void *src, size_t n);
  76:Generated_Source\PSoC5/cyfitter_cfg.c **** CY_CFG_UNUSED
  77:Generated_Source\PSoC5/cyfitter_cfg.c **** static void CYCONFIGCPYCODE(void *dest, const void *src, size_t n)
  78:Generated_Source\PSoC5/cyfitter_cfg.c **** {
  79:Generated_Source\PSoC5/cyfitter_cfg.c **** 	(void)memcpy(dest, src, n);
  80:Generated_Source\PSoC5/cyfitter_cfg.c **** }
  81:Generated_Source\PSoC5/cyfitter_cfg.c **** 
  82:Generated_Source\PSoC5/cyfitter_cfg.c **** 
  83:Generated_Source\PSoC5/cyfitter_cfg.c **** 
  84:Generated_Source\PSoC5/cyfitter_cfg.c **** 
  85:Generated_Source\PSoC5/cyfitter_cfg.c **** /* Clock startup error codes                                                   */
  86:Generated_Source\PSoC5/cyfitter_cfg.c **** #define CYCLOCKSTART_NO_ERROR    0u
  87:Generated_Source\PSoC5/cyfitter_cfg.c **** #define CYCLOCKSTART_XTAL_ERROR  1u
  88:Generated_Source\PSoC5/cyfitter_cfg.c **** #define CYCLOCKSTART_32KHZ_ERROR 2u
  89:Generated_Source\PSoC5/cyfitter_cfg.c **** #define CYCLOCKSTART_PLL_ERROR   3u
ARM GAS  C:\Users\THOMPS~1\AppData\Local\Temp\ccfH9zX7.s 			page 3


  90:Generated_Source\PSoC5/cyfitter_cfg.c **** 
  91:Generated_Source\PSoC5/cyfitter_cfg.c **** 
  92:Generated_Source\PSoC5/cyfitter_cfg.c **** #ifdef CY_NEED_CYCLOCKSTARTUPERROR
  93:Generated_Source\PSoC5/cyfitter_cfg.c **** /*******************************************************************************
  94:Generated_Source\PSoC5/cyfitter_cfg.c **** * Function Name: CyClockStartupError
  95:Generated_Source\PSoC5/cyfitter_cfg.c **** ********************************************************************************
  96:Generated_Source\PSoC5/cyfitter_cfg.c **** * Summary:
  97:Generated_Source\PSoC5/cyfitter_cfg.c **** *  If an error is encountered during clock configuration (crystal startup error,
  98:Generated_Source\PSoC5/cyfitter_cfg.c **** *  PLL lock error, etc.), the system will end up here.  Unless reimplemented by
  99:Generated_Source\PSoC5/cyfitter_cfg.c **** *  the customer, this function will stop in an infinite loop.
 100:Generated_Source\PSoC5/cyfitter_cfg.c **** *
 101:Generated_Source\PSoC5/cyfitter_cfg.c **** * Parameters:
 102:Generated_Source\PSoC5/cyfitter_cfg.c **** *   void
 103:Generated_Source\PSoC5/cyfitter_cfg.c **** *
 104:Generated_Source\PSoC5/cyfitter_cfg.c **** * Return:
 105:Generated_Source\PSoC5/cyfitter_cfg.c **** *   void
 106:Generated_Source\PSoC5/cyfitter_cfg.c **** *
 107:Generated_Source\PSoC5/cyfitter_cfg.c **** *******************************************************************************/
 108:Generated_Source\PSoC5/cyfitter_cfg.c **** CY_CFG_UNUSED
 109:Generated_Source\PSoC5/cyfitter_cfg.c **** static void CyClockStartupError(uint8 errorCode);
 110:Generated_Source\PSoC5/cyfitter_cfg.c **** CY_CFG_UNUSED
 111:Generated_Source\PSoC5/cyfitter_cfg.c **** static void CyClockStartupError(uint8 errorCode)
 112:Generated_Source\PSoC5/cyfitter_cfg.c **** {
  26              		.loc 1 112 0
  27              		.cfi_startproc
  28              		@ Volatile: function does not return.
  29              		@ args = 0, pretend = 0, frame = 0
  30              		@ frame_needed = 0, uses_anonymous_args = 0
  31              		@ link register save eliminated.
  32              	.LVL0:
  33              	.L2:
 113:Generated_Source\PSoC5/cyfitter_cfg.c ****     /* To remove the compiler warning if errorCode not used.                */
 114:Generated_Source\PSoC5/cyfitter_cfg.c ****     errorCode = errorCode;
 115:Generated_Source\PSoC5/cyfitter_cfg.c **** 
 116:Generated_Source\PSoC5/cyfitter_cfg.c ****     /* If we have a clock startup error (bad MHz crystal, PLL lock, etc.),  */
 117:Generated_Source\PSoC5/cyfitter_cfg.c ****     /* we will end up here to allow the customer to implement something to  */
 118:Generated_Source\PSoC5/cyfitter_cfg.c ****     /* deal with the clock condition.                                       */
 119:Generated_Source\PSoC5/cyfitter_cfg.c **** 
 120:Generated_Source\PSoC5/cyfitter_cfg.c **** #ifdef CY_CFG_CLOCK_STARTUP_ERROR_CALLBACK
 121:Generated_Source\PSoC5/cyfitter_cfg.c **** 	CY_CFG_Clock_Startup_ErrorCallback();
 122:Generated_Source\PSoC5/cyfitter_cfg.c **** #else
 123:Generated_Source\PSoC5/cyfitter_cfg.c **** 	/*  If not using CY_CFG_CLOCK_STARTUP_ERROR_CALLBACK, place your clock startup code here. */
 124:Generated_Source\PSoC5/cyfitter_cfg.c ****     /* `#START CyClockStartupError` */
 125:Generated_Source\PSoC5/cyfitter_cfg.c **** 
 126:Generated_Source\PSoC5/cyfitter_cfg.c **** 
 127:Generated_Source\PSoC5/cyfitter_cfg.c **** 
 128:Generated_Source\PSoC5/cyfitter_cfg.c ****     /* `#END` */
 129:Generated_Source\PSoC5/cyfitter_cfg.c **** 
 130:Generated_Source\PSoC5/cyfitter_cfg.c ****     /* If nothing else, stop here since the clocks have not started         */
 131:Generated_Source\PSoC5/cyfitter_cfg.c ****     /* correctly.                                                           */
 132:Generated_Source\PSoC5/cyfitter_cfg.c ****     while(1) {}
  34              		.loc 1 132 0 discriminator 1
  35 0000 FEE7     		b	.L2
  36              		.cfi_endproc
  37              	.LFE3:
  38              		.size	CyClockStartupError, .-CyClockStartupError
  39 0002 00BF     		.section	.text.cfg_write_bytes32,"ax",%progbits
ARM GAS  C:\Users\THOMPS~1\AppData\Local\Temp\ccfH9zX7.s 			page 4


  40              		.align	2
  41              		.thumb
  42              		.thumb_func
  43              		.type	cfg_write_bytes32, %function
  44              	cfg_write_bytes32:
  45              	.LFB4:
 133:Generated_Source\PSoC5/cyfitter_cfg.c **** #endif /* CY_CFG_CLOCK_STARTUP_ERROR_CALLBACK */ 
 134:Generated_Source\PSoC5/cyfitter_cfg.c **** }
 135:Generated_Source\PSoC5/cyfitter_cfg.c **** #endif
 136:Generated_Source\PSoC5/cyfitter_cfg.c **** 
 137:Generated_Source\PSoC5/cyfitter_cfg.c **** #define CY_CFG_BASE_ADDR_COUNT 22u
 138:Generated_Source\PSoC5/cyfitter_cfg.c **** CYPACKED typedef struct
 139:Generated_Source\PSoC5/cyfitter_cfg.c **** {
 140:Generated_Source\PSoC5/cyfitter_cfg.c **** 	uint8 offset;
 141:Generated_Source\PSoC5/cyfitter_cfg.c **** 	uint8 value;
 142:Generated_Source\PSoC5/cyfitter_cfg.c **** } CYPACKED_ATTR cy_cfg_addrvalue_t;
 143:Generated_Source\PSoC5/cyfitter_cfg.c **** 
 144:Generated_Source\PSoC5/cyfitter_cfg.c **** #define cy_cfg_addr_table ((const uint32 CYFAR *)0x48000000u)
 145:Generated_Source\PSoC5/cyfitter_cfg.c **** #define cy_cfg_data_table ((const cy_cfg_addrvalue_t CYFAR *)0x48000058u)
 146:Generated_Source\PSoC5/cyfitter_cfg.c **** 
 147:Generated_Source\PSoC5/cyfitter_cfg.c **** /* IOPINS0_0 Address: CYREG_PRT0_DM0 Size (bytes): 8 */
 148:Generated_Source\PSoC5/cyfitter_cfg.c **** #define BS_IOPINS0_0_VAL ((const uint8 CYFAR *)0x480000D8u)
 149:Generated_Source\PSoC5/cyfitter_cfg.c **** 
 150:Generated_Source\PSoC5/cyfitter_cfg.c **** /* IOPINS0_7 Address: CYREG_PRT12_DM0 Size (bytes): 8 */
 151:Generated_Source\PSoC5/cyfitter_cfg.c **** #define BS_IOPINS0_7_VAL ((const uint8 CYFAR *)0x480000E0u)
 152:Generated_Source\PSoC5/cyfitter_cfg.c **** 
 153:Generated_Source\PSoC5/cyfitter_cfg.c **** /* IOPINS0_1 Address: CYREG_PRT1_DM0 Size (bytes): 8 */
 154:Generated_Source\PSoC5/cyfitter_cfg.c **** #define BS_IOPINS0_1_VAL ((const uint8 CYFAR *)0x480000E8u)
 155:Generated_Source\PSoC5/cyfitter_cfg.c **** 
 156:Generated_Source\PSoC5/cyfitter_cfg.c **** /* IOPINS0_2 Address: CYREG_PRT2_DM0 Size (bytes): 8 */
 157:Generated_Source\PSoC5/cyfitter_cfg.c **** #define BS_IOPINS0_2_VAL ((const uint8 CYFAR *)0x480000F0u)
 158:Generated_Source\PSoC5/cyfitter_cfg.c **** 
 159:Generated_Source\PSoC5/cyfitter_cfg.c **** /* IOPINS0_3 Address: CYREG_PRT3_DM0 Size (bytes): 8 */
 160:Generated_Source\PSoC5/cyfitter_cfg.c **** #define BS_IOPINS0_3_VAL ((const uint8 CYFAR *)0x480000F8u)
 161:Generated_Source\PSoC5/cyfitter_cfg.c **** 
 162:Generated_Source\PSoC5/cyfitter_cfg.c **** /* IOPINS0_4 Address: CYREG_PRT4_DM0 Size (bytes): 8 */
 163:Generated_Source\PSoC5/cyfitter_cfg.c **** #define BS_IOPINS0_4_VAL ((const uint8 CYFAR *)0x48000100u)
 164:Generated_Source\PSoC5/cyfitter_cfg.c **** 
 165:Generated_Source\PSoC5/cyfitter_cfg.c **** /* IOPINS0_5 Address: CYREG_PRT5_DM0 Size (bytes): 8 */
 166:Generated_Source\PSoC5/cyfitter_cfg.c **** #define BS_IOPINS0_5_VAL ((const uint8 CYFAR *)0x48000108u)
 167:Generated_Source\PSoC5/cyfitter_cfg.c **** 
 168:Generated_Source\PSoC5/cyfitter_cfg.c **** /* IOPINS0_6 Address: CYREG_PRT6_DM0 Size (bytes): 8 */
 169:Generated_Source\PSoC5/cyfitter_cfg.c **** #define BS_IOPINS0_6_VAL ((const uint8 CYFAR *)0x48000110u)
 170:Generated_Source\PSoC5/cyfitter_cfg.c **** 
 171:Generated_Source\PSoC5/cyfitter_cfg.c **** /* CYDEV_CLKDIST_ACFG0_CFG0 Address: CYREG_CLKDIST_ACFG0_CFG0 Size (bytes): 4 */
 172:Generated_Source\PSoC5/cyfitter_cfg.c **** #define BS_CYDEV_CLKDIST_ACFG0_CFG0_VAL ((const uint8 CYFAR *)0x48000118u)
 173:Generated_Source\PSoC5/cyfitter_cfg.c **** 
 174:Generated_Source\PSoC5/cyfitter_cfg.c **** 
 175:Generated_Source\PSoC5/cyfitter_cfg.c **** /*******************************************************************************
 176:Generated_Source\PSoC5/cyfitter_cfg.c **** * Function Name: cfg_write_bytes32
 177:Generated_Source\PSoC5/cyfitter_cfg.c **** ********************************************************************************
 178:Generated_Source\PSoC5/cyfitter_cfg.c **** * Summary:
 179:Generated_Source\PSoC5/cyfitter_cfg.c **** *  This function is used for setting up the chip configuration areas that
 180:Generated_Source\PSoC5/cyfitter_cfg.c **** *  contain relatively sparse data.
 181:Generated_Source\PSoC5/cyfitter_cfg.c **** *
 182:Generated_Source\PSoC5/cyfitter_cfg.c **** * Parameters:
 183:Generated_Source\PSoC5/cyfitter_cfg.c **** *   void
ARM GAS  C:\Users\THOMPS~1\AppData\Local\Temp\ccfH9zX7.s 			page 5


 184:Generated_Source\PSoC5/cyfitter_cfg.c **** *
 185:Generated_Source\PSoC5/cyfitter_cfg.c **** * Return:
 186:Generated_Source\PSoC5/cyfitter_cfg.c **** *   void
 187:Generated_Source\PSoC5/cyfitter_cfg.c **** *
 188:Generated_Source\PSoC5/cyfitter_cfg.c **** *******************************************************************************/
 189:Generated_Source\PSoC5/cyfitter_cfg.c **** static void cfg_write_bytes32(const uint32 addr_table[], const cy_cfg_addrvalue_t data_table[]);
 190:Generated_Source\PSoC5/cyfitter_cfg.c **** static void cfg_write_bytes32(const uint32 addr_table[], const cy_cfg_addrvalue_t data_table[])
 191:Generated_Source\PSoC5/cyfitter_cfg.c **** {
  46              		.loc 1 191 0
  47              		.cfi_startproc
  48              		@ args = 0, pretend = 0, frame = 0
  49              		@ frame_needed = 0, uses_anonymous_args = 0
  50              		@ link register save eliminated.
  51              	.LVL1:
  52 0000 F0B4     		push	{r4, r5, r6, r7}
  53              		.cfi_def_cfa_offset 16
  54              		.cfi_offset 4, -16
  55              		.cfi_offset 5, -12
  56              		.cfi_offset 6, -8
  57              		.cfi_offset 7, -4
  58              	.LVL2:
 192:Generated_Source\PSoC5/cyfitter_cfg.c **** 	/* For 32-bit little-endian architectures */
 193:Generated_Source\PSoC5/cyfitter_cfg.c **** 	uint32 i, j = 0u;
  59              		.loc 1 193 0
  60 0002 0022     		movs	r2, #0
 194:Generated_Source\PSoC5/cyfitter_cfg.c **** 	for (i = 0u; i < CY_CFG_BASE_ADDR_COUNT; i++)
  61              		.loc 1 194 0
  62 0004 1746     		mov	r7, r2
  63 0006 11E0     		b	.L4
  64              	.LVL3:
  65              	.L7:
  66              	.LBB2:
 195:Generated_Source\PSoC5/cyfitter_cfg.c **** 	{
 196:Generated_Source\PSoC5/cyfitter_cfg.c **** 		uint32 baseAddr = addr_table[i];
  67              		.loc 1 196 0
  68 0008 50F82760 		ldr	r6, [r0, r7, lsl #2]
  69              	.LVL4:
 197:Generated_Source\PSoC5/cyfitter_cfg.c **** 		uint8 count = (uint8)baseAddr;
  70              		.loc 1 197 0
  71 000c F3B2     		uxtb	r3, r6
  72              	.LVL5:
 198:Generated_Source\PSoC5/cyfitter_cfg.c **** 		baseAddr &= 0xFFFFFF00u;
  73              		.loc 1 198 0
  74 000e 26F0FF06 		bic	r6, r6, #255
  75              	.LVL6:
 199:Generated_Source\PSoC5/cyfitter_cfg.c **** 		while (count != 0u)
  76              		.loc 1 199 0
  77 0012 08E0     		b	.L5
  78              	.L6:
 200:Generated_Source\PSoC5/cyfitter_cfg.c **** 		{
 201:Generated_Source\PSoC5/cyfitter_cfg.c **** 			CY_SET_XTND_REG8((void CYFAR *)(baseAddr + data_table[j].offset), data_table[j].value);
  79              		.loc 1 201 0
  80 0014 01EB4205 		add	r5, r1, r2, lsl #1
  81 0018 11F81240 		ldrb	r4, [r1, r2, lsl #1]	@ zero_extendqisi2
  82 001c 6D78     		ldrb	r5, [r5, #1]	@ zero_extendqisi2
  83 001e A555     		strb	r5, [r4, r6]
 202:Generated_Source\PSoC5/cyfitter_cfg.c **** 			j++;
ARM GAS  C:\Users\THOMPS~1\AppData\Local\Temp\ccfH9zX7.s 			page 6


  84              		.loc 1 202 0
  85 0020 0132     		adds	r2, r2, #1
  86              	.LVL7:
 203:Generated_Source\PSoC5/cyfitter_cfg.c **** 			count--;
  87              		.loc 1 203 0
  88 0022 013B     		subs	r3, r3, #1
  89              	.LVL8:
  90 0024 DBB2     		uxtb	r3, r3
  91              	.LVL9:
  92              	.L5:
 199:Generated_Source\PSoC5/cyfitter_cfg.c **** 		{
  93              		.loc 1 199 0
  94 0026 002B     		cmp	r3, #0
  95 0028 F4D1     		bne	.L6
  96              	.LBE2:
 194:Generated_Source\PSoC5/cyfitter_cfg.c **** 	{
  97              		.loc 1 194 0 discriminator 2
  98 002a 0137     		adds	r7, r7, #1
  99              	.LVL10:
 100              	.L4:
 194:Generated_Source\PSoC5/cyfitter_cfg.c **** 	{
 101              		.loc 1 194 0 is_stmt 0 discriminator 1
 102 002c 152F     		cmp	r7, #21
 103 002e EBD9     		bls	.L7
 204:Generated_Source\PSoC5/cyfitter_cfg.c **** 		}
 205:Generated_Source\PSoC5/cyfitter_cfg.c **** 	}
 206:Generated_Source\PSoC5/cyfitter_cfg.c **** }
 104              		.loc 1 206 0 is_stmt 1
 105 0030 F0BC     		pop	{r4, r5, r6, r7}
 106              		.cfi_restore 7
 107              		.cfi_restore 6
 108              		.cfi_restore 5
 109              		.cfi_restore 4
 110              		.cfi_def_cfa_offset 0
 111              	.LVL11:
 112 0032 7047     		bx	lr
 113              		.cfi_endproc
 114              	.LFE4:
 115              		.size	cfg_write_bytes32, .-cfg_write_bytes32
 116              		.section	.text.CYMEMZERO,"ax",%progbits
 117              		.align	2
 118              		.thumb
 119              		.thumb_func
 120              		.type	CYMEMZERO, %function
 121              	CYMEMZERO:
 122              	.LFB0:
  64:Generated_Source\PSoC5/cyfitter_cfg.c **** 	(void)memset(s, 0, n);
 123              		.loc 1 64 0
 124              		.cfi_startproc
 125              		@ args = 0, pretend = 0, frame = 0
 126              		@ frame_needed = 0, uses_anonymous_args = 0
 127              	.LVL12:
 128 0000 08B5     		push	{r3, lr}
 129              		.cfi_def_cfa_offset 8
 130              		.cfi_offset 3, -8
 131              		.cfi_offset 14, -4
 132 0002 0A46     		mov	r2, r1
ARM GAS  C:\Users\THOMPS~1\AppData\Local\Temp\ccfH9zX7.s 			page 7


  65:Generated_Source\PSoC5/cyfitter_cfg.c **** }
 133              		.loc 1 65 0
 134 0004 0021     		movs	r1, #0
 135              	.LVL13:
 136 0006 FFF7FEFF 		bl	memset
 137              	.LVL14:
 138 000a 08BD     		pop	{r3, pc}
 139              		.cfi_endproc
 140              	.LFE0:
 141              		.size	CYMEMZERO, .-CYMEMZERO
 142              		.section	.text.AnalogSetDefault,"ax",%progbits
 143              		.align	2
 144              		.thumb
 145              		.thumb_func
 146              		.type	AnalogSetDefault, %function
 147              	AnalogSetDefault:
 148              	.LFB6:
 207:Generated_Source\PSoC5/cyfitter_cfg.c **** 
 208:Generated_Source\PSoC5/cyfitter_cfg.c **** /*******************************************************************************
 209:Generated_Source\PSoC5/cyfitter_cfg.c **** * Function Name: ClockSetup
 210:Generated_Source\PSoC5/cyfitter_cfg.c **** ********************************************************************************
 211:Generated_Source\PSoC5/cyfitter_cfg.c **** *
 212:Generated_Source\PSoC5/cyfitter_cfg.c **** * Summary:
 213:Generated_Source\PSoC5/cyfitter_cfg.c **** *  Performs the initialization of all of the clocks in the device based on the
 214:Generated_Source\PSoC5/cyfitter_cfg.c **** *  settings in the Clock tab of the DWR.  This includes enabling the requested
 215:Generated_Source\PSoC5/cyfitter_cfg.c **** *  clocks and setting the necessary dividers to produce the desired frequency. 
 216:Generated_Source\PSoC5/cyfitter_cfg.c **** *
 217:Generated_Source\PSoC5/cyfitter_cfg.c **** * Parameters:
 218:Generated_Source\PSoC5/cyfitter_cfg.c **** *  void
 219:Generated_Source\PSoC5/cyfitter_cfg.c **** *
 220:Generated_Source\PSoC5/cyfitter_cfg.c **** * Return:
 221:Generated_Source\PSoC5/cyfitter_cfg.c **** *  void
 222:Generated_Source\PSoC5/cyfitter_cfg.c **** *
 223:Generated_Source\PSoC5/cyfitter_cfg.c **** *******************************************************************************/
 224:Generated_Source\PSoC5/cyfitter_cfg.c **** static void ClockSetup(void);
 225:Generated_Source\PSoC5/cyfitter_cfg.c **** static void ClockSetup(void)
 226:Generated_Source\PSoC5/cyfitter_cfg.c **** {
 227:Generated_Source\PSoC5/cyfitter_cfg.c **** 	uint32 timeout;
 228:Generated_Source\PSoC5/cyfitter_cfg.c **** 	uint8 pllLock;
 229:Generated_Source\PSoC5/cyfitter_cfg.c **** 
 230:Generated_Source\PSoC5/cyfitter_cfg.c **** 
 231:Generated_Source\PSoC5/cyfitter_cfg.c **** 	/* Configure Digital Clocks based on settings from Clock DWR */
 232:Generated_Source\PSoC5/cyfitter_cfg.c **** 	CY_SET_XTND_REG16((void CYFAR *)(CYREG_CLKDIST_DCFG0_CFG0), 0x0000u);
 233:Generated_Source\PSoC5/cyfitter_cfg.c **** 	CY_SET_XTND_REG8((void CYFAR *)(CYREG_CLKDIST_DCFG0_CFG0 + 0x2u), 0x50u);
 234:Generated_Source\PSoC5/cyfitter_cfg.c **** 	CY_SET_XTND_REG16((void CYFAR *)(CYREG_CLKDIST_DCFG1_CFG0), 0x000Eu);
 235:Generated_Source\PSoC5/cyfitter_cfg.c **** 	CY_SET_XTND_REG8((void CYFAR *)(CYREG_CLKDIST_DCFG1_CFG0 + 0x2u), 0x18u);
 236:Generated_Source\PSoC5/cyfitter_cfg.c **** 
 237:Generated_Source\PSoC5/cyfitter_cfg.c **** 	/* Configure Analog Clocks based on settings from Clock DWR */
 238:Generated_Source\PSoC5/cyfitter_cfg.c **** 	CYCONFIGCPY((void CYFAR *)(CYREG_CLKDIST_ACFG0_CFG0), (const void CYFAR *)(BS_CYDEV_CLKDIST_ACFG0_
 239:Generated_Source\PSoC5/cyfitter_cfg.c **** 
 240:Generated_Source\PSoC5/cyfitter_cfg.c **** 	/* Configure ILO based on settings from Clock DWR */
 241:Generated_Source\PSoC5/cyfitter_cfg.c **** 	CY_SET_XTND_REG8((void CYFAR *)(CYREG_SLOWCLK_ILO_CR0), 0x02u);
 242:Generated_Source\PSoC5/cyfitter_cfg.c **** 	CY_SET_XTND_REG8((void CYFAR *)(CYREG_CLKDIST_CR), 0x08u);
 243:Generated_Source\PSoC5/cyfitter_cfg.c **** 
 244:Generated_Source\PSoC5/cyfitter_cfg.c **** 	/* Configure IMO based on settings from Clock DWR */
 245:Generated_Source\PSoC5/cyfitter_cfg.c **** 	CY_SET_XTND_REG8((void CYFAR *)(CYREG_FASTCLK_IMO_CR), 0x03u);
 246:Generated_Source\PSoC5/cyfitter_cfg.c **** 	CY_SET_XTND_REG8((void CYFAR *)(CYREG_IMO_TR1), (CY_GET_XTND_REG8((void CYFAR *)CYREG_FLSHID_CUST_
ARM GAS  C:\Users\THOMPS~1\AppData\Local\Temp\ccfH9zX7.s 			page 8


 247:Generated_Source\PSoC5/cyfitter_cfg.c **** 
 248:Generated_Source\PSoC5/cyfitter_cfg.c **** 	/* Configure PLL based on settings from Clock DWR */
 249:Generated_Source\PSoC5/cyfitter_cfg.c **** 	CY_SET_XTND_REG16((void CYFAR *)(CYREG_FASTCLK_PLL_P), 0x0008u);
 250:Generated_Source\PSoC5/cyfitter_cfg.c **** 	CY_SET_XTND_REG16((void CYFAR *)(CYREG_FASTCLK_PLL_CFG0), 0x1251u);
 251:Generated_Source\PSoC5/cyfitter_cfg.c **** 	/* Wait up to 250us for the PLL to lock */
 252:Generated_Source\PSoC5/cyfitter_cfg.c **** 	pllLock = 0u;
 253:Generated_Source\PSoC5/cyfitter_cfg.c **** 	for (timeout = 250u / 10u; (timeout > 0u) && (pllLock != 0x03u); timeout--)
 254:Generated_Source\PSoC5/cyfitter_cfg.c **** 	{ 
 255:Generated_Source\PSoC5/cyfitter_cfg.c **** 		pllLock = 0x03u & ((uint8)((uint8)pllLock << 1) | ((CY_GET_XTND_REG8((void CYFAR *)CYREG_FASTCLK_
 256:Generated_Source\PSoC5/cyfitter_cfg.c **** 		CyDelayCycles(10u * 48u); /* Delay 10us based on 48MHz clock */
 257:Generated_Source\PSoC5/cyfitter_cfg.c **** 	}
 258:Generated_Source\PSoC5/cyfitter_cfg.c **** 	/* If we ran out of time the PLL didn't lock so go to the error function */
 259:Generated_Source\PSoC5/cyfitter_cfg.c **** 	if (timeout == 0u)
 260:Generated_Source\PSoC5/cyfitter_cfg.c **** 	{
 261:Generated_Source\PSoC5/cyfitter_cfg.c **** 		CyClockStartupError(CYCLOCKSTART_PLL_ERROR);
 262:Generated_Source\PSoC5/cyfitter_cfg.c **** 	}
 263:Generated_Source\PSoC5/cyfitter_cfg.c **** 
 264:Generated_Source\PSoC5/cyfitter_cfg.c **** 	/* Configure Bus/Master Clock based on settings from Clock DWR */
 265:Generated_Source\PSoC5/cyfitter_cfg.c **** 	CY_SET_XTND_REG16((void CYFAR *)(CYREG_CLKDIST_MSTR0), 0x0100u);
 266:Generated_Source\PSoC5/cyfitter_cfg.c **** 	CY_SET_XTND_REG8((void CYFAR *)(CYREG_CLKDIST_MSTR0), 0x07u);
 267:Generated_Source\PSoC5/cyfitter_cfg.c **** 	CY_SET_XTND_REG8((void CYFAR *)(CYREG_CLKDIST_BCFG0), 0x00u);
 268:Generated_Source\PSoC5/cyfitter_cfg.c **** 	CY_SET_XTND_REG8((void CYFAR *)(CYREG_CLKDIST_BCFG2), 0x48u);
 269:Generated_Source\PSoC5/cyfitter_cfg.c **** 	CY_SET_XTND_REG8((void CYFAR *)(CYREG_CLKDIST_MSTR0), 0x00u);
 270:Generated_Source\PSoC5/cyfitter_cfg.c **** 	CY_SET_XTND_REG8((void CYFAR *)(CYREG_CLKDIST_LD), 0x02u);
 271:Generated_Source\PSoC5/cyfitter_cfg.c **** 	CY_SET_XTND_REG8((void CYFAR *)(CYREG_CLKDIST_DLY1), 0x04u);
 272:Generated_Source\PSoC5/cyfitter_cfg.c **** 
 273:Generated_Source\PSoC5/cyfitter_cfg.c **** 	CY_SET_XTND_REG8((void CYFAR *)(CYREG_PM_ACT_CFG2), ((CY_GET_XTND_REG8((void CYFAR *)CYREG_PM_ACT_
 274:Generated_Source\PSoC5/cyfitter_cfg.c **** 	CY_SET_XTND_REG8((void CYFAR *)(CYREG_PM_ACT_CFG1), ((CY_GET_XTND_REG8((void CYFAR *)CYREG_PM_ACT_
 275:Generated_Source\PSoC5/cyfitter_cfg.c **** 	CY_SET_XTND_REG8((void CYFAR *)(CYREG_PM_ACT_CFG0), ((CY_GET_XTND_REG8((void CYFAR *)CYREG_PM_ACT_
 276:Generated_Source\PSoC5/cyfitter_cfg.c **** }
 277:Generated_Source\PSoC5/cyfitter_cfg.c **** 
 278:Generated_Source\PSoC5/cyfitter_cfg.c **** 
 279:Generated_Source\PSoC5/cyfitter_cfg.c **** /* Analog API Functions */
 280:Generated_Source\PSoC5/cyfitter_cfg.c **** 
 281:Generated_Source\PSoC5/cyfitter_cfg.c **** 
 282:Generated_Source\PSoC5/cyfitter_cfg.c **** /*******************************************************************************
 283:Generated_Source\PSoC5/cyfitter_cfg.c **** * Function Name: AnalogSetDefault
 284:Generated_Source\PSoC5/cyfitter_cfg.c **** ********************************************************************************
 285:Generated_Source\PSoC5/cyfitter_cfg.c **** *
 286:Generated_Source\PSoC5/cyfitter_cfg.c **** * Summary:
 287:Generated_Source\PSoC5/cyfitter_cfg.c **** *  Sets up the analog portions of the chip to default values based on chip
 288:Generated_Source\PSoC5/cyfitter_cfg.c **** *  configuration options from the project.
 289:Generated_Source\PSoC5/cyfitter_cfg.c **** *
 290:Generated_Source\PSoC5/cyfitter_cfg.c **** * Parameters:
 291:Generated_Source\PSoC5/cyfitter_cfg.c **** *  void
 292:Generated_Source\PSoC5/cyfitter_cfg.c **** *
 293:Generated_Source\PSoC5/cyfitter_cfg.c **** * Return:
 294:Generated_Source\PSoC5/cyfitter_cfg.c **** *  void
 295:Generated_Source\PSoC5/cyfitter_cfg.c **** *
 296:Generated_Source\PSoC5/cyfitter_cfg.c **** *******************************************************************************/
 297:Generated_Source\PSoC5/cyfitter_cfg.c **** static void AnalogSetDefault(void);
 298:Generated_Source\PSoC5/cyfitter_cfg.c **** static void AnalogSetDefault(void)
 299:Generated_Source\PSoC5/cyfitter_cfg.c **** {
 149              		.loc 1 299 0
 150              		.cfi_startproc
 151              		@ args = 0, pretend = 0, frame = 0
 152              		@ frame_needed = 0, uses_anonymous_args = 0
ARM GAS  C:\Users\THOMPS~1\AppData\Local\Temp\ccfH9zX7.s 			page 9


 153 0000 F8B5     		push	{r3, r4, r5, r6, r7, lr}
 154              		.cfi_def_cfa_offset 24
 155              		.cfi_offset 3, -24
 156              		.cfi_offset 4, -20
 157              		.cfi_offset 5, -16
 158              		.cfi_offset 6, -12
 159              		.cfi_offset 7, -8
 160              		.cfi_offset 14, -4
 300:Generated_Source\PSoC5/cyfitter_cfg.c **** 	uint8 bg_xover_inl_trim = CY_GET_XTND_REG8((void CYFAR *)(CYREG_FLSHID_MFG_CFG_BG_XOVER_INL_TRIM +
 161              		.loc 1 300 0
 162 0002 1E4B     		ldr	r3, .L13
 163 0004 1B78     		ldrb	r3, [r3]	@ zero_extendqisi2
 164 0006 DBB2     		uxtb	r3, r3
 165              	.LVL15:
 301:Generated_Source\PSoC5/cyfitter_cfg.c **** 	uint8 cr4 = CY_GET_XTND_REG8((void CYFAR *)(CYREG_RESET_CR4));
 166              		.loc 1 301 0
 167 0008 1D4E     		ldr	r6, .L13+4
 168 000a 3478     		ldrb	r4, [r6]	@ zero_extendqisi2
 169 000c E4B2     		uxtb	r4, r4
 170              	.LVL16:
 302:Generated_Source\PSoC5/cyfitter_cfg.c **** 	uint8 cr5 = CY_GET_XTND_REG8((void CYFAR *)(CYREG_RESET_CR5));
 171              		.loc 1 302 0
 172 000e 1D4F     		ldr	r7, .L13+8
 173 0010 3D78     		ldrb	r5, [r7]	@ zero_extendqisi2
 174 0012 EDB2     		uxtb	r5, r5
 175              	.LVL17:
 303:Generated_Source\PSoC5/cyfitter_cfg.c **** 	CY_SET_XTND_REG8((void CYFAR *)(CYREG_BG_DFT0), (bg_xover_inl_trim & 0x07u));
 176              		.loc 1 303 0
 177 0014 03F00701 		and	r1, r3, #7
 178 0018 1B4A     		ldr	r2, .L13+12
 179 001a 1170     		strb	r1, [r2]
 304:Generated_Source\PSoC5/cyfitter_cfg.c **** 	CY_SET_XTND_REG8((void CYFAR *)(CYREG_BG_DFT1), ((bg_xover_inl_trim >> 4) & 0x0Fu));
 180              		.loc 1 304 0
 181 001c 1B09     		lsrs	r3, r3, #4
 182              	.LVL18:
 183 001e 0132     		adds	r2, r2, #1
 184 0020 1370     		strb	r3, [r2]
 305:Generated_Source\PSoC5/cyfitter_cfg.c **** 	/* Disable PRES while setting up SAR voltage reference */
 306:Generated_Source\PSoC5/cyfitter_cfg.c **** 	CY_SET_XTND_REG8((void CYFAR *)(CYREG_RESET_CR4), (cr4 | 0x03u));
 185              		.loc 1 306 0
 186 0022 44F00303 		orr	r3, r4, #3
 187 0026 3370     		strb	r3, [r6]
 307:Generated_Source\PSoC5/cyfitter_cfg.c **** 	CY_SET_XTND_REG8((void CYFAR *)(CYREG_RESET_CR5), (cr5 | 0x03u));
 188              		.loc 1 307 0
 189 0028 45F00303 		orr	r3, r5, #3
 190 002c 3B70     		strb	r3, [r7]
 308:Generated_Source\PSoC5/cyfitter_cfg.c **** 	CY_SET_XTND_REG8((void CYFAR *)CYREG_PRT3_AG, 0x84u);
 191              		.loc 1 308 0
 192 002e 8422     		movs	r2, #132
 193 0030 164B     		ldr	r3, .L13+16
 194 0032 1A70     		strb	r2, [r3]
 309:Generated_Source\PSoC5/cyfitter_cfg.c **** 	CY_SET_XTND_REG16((void CYFAR *)CYREG_PRT5_AMUX, 0x4008u);
 195              		.loc 1 309 0
 196 0034 44F20802 		movw	r2, #16392
 197 0038 1F33     		adds	r3, r3, #31
 198 003a 1A80     		strh	r2, [r3]	@ movhi
 310:Generated_Source\PSoC5/cyfitter_cfg.c **** 	CY_SET_XTND_REG8((void CYFAR *)CYREG_SAR0_CSR1, 0x80u);
ARM GAS  C:\Users\THOMPS~1\AppData\Local\Temp\ccfH9zX7.s 			page 10


 199              		.loc 1 310 0
 200 003c 8023     		movs	r3, #128
 201 003e 144A     		ldr	r2, .L13+20
 202 0040 1370     		strb	r3, [r2]
 311:Generated_Source\PSoC5/cyfitter_cfg.c **** 	CY_SET_XTND_REG8((void CYFAR *)CYREG_SC3_SW0, 0x05u);
 203              		.loc 1 311 0
 204 0042 0521     		movs	r1, #5
 205 0044 02F22F12 		addw	r2, r2, #303
 206 0048 1170     		strb	r1, [r2]
 312:Generated_Source\PSoC5/cyfitter_cfg.c **** 	CY_SET_XTND_REG8((void CYFAR *)CYREG_DAC1_SW0, 0x01u);
 207              		.loc 1 312 0
 208 004a 0122     		movs	r2, #1
 209 004c 1149     		ldr	r1, .L13+24
 210 004e 0A70     		strb	r2, [r1]
 313:Generated_Source\PSoC5/cyfitter_cfg.c **** 	CY_SET_XTND_REG8((void CYFAR *)CYREG_DAC3_SW3, 0x01u);
 211              		.loc 1 313 0
 212 0050 1331     		adds	r1, r1, #19
 213 0052 0A70     		strb	r2, [r1]
 314:Generated_Source\PSoC5/cyfitter_cfg.c **** 	CY_SET_XTND_REG8((void CYFAR *)CYREG_DSM0_SW0, 0x80u);
 214              		.loc 1 314 0
 215 0054 104A     		ldr	r2, .L13+28
 216 0056 1370     		strb	r3, [r2]
 315:Generated_Source\PSoC5/cyfitter_cfg.c **** 	CY_SET_XTND_REG8((void CYFAR *)CYREG_SAR0_SW0, 0x40u);
 217              		.loc 1 315 0
 218 0058 4022     		movs	r2, #64
 219 005a 104B     		ldr	r3, .L13+32
 220 005c 1A70     		strb	r2, [r3]
 316:Generated_Source\PSoC5/cyfitter_cfg.c **** 	CY_SET_XTND_REG8((void CYFAR *)CYREG_SAR0_SW3, 0x20u);
 221              		.loc 1 316 0
 222 005e 2022     		movs	r2, #32
 223 0060 0333     		adds	r3, r3, #3
 224 0062 1A70     		strb	r2, [r3]
 317:Generated_Source\PSoC5/cyfitter_cfg.c **** 	CY_SET_XTND_REG8((void CYFAR *)CYREG_BUS_SW0, 0xC0u);
 225              		.loc 1 317 0
 226 0064 C022     		movs	r2, #192
 227 0066 3533     		adds	r3, r3, #53
 228 0068 1A70     		strb	r2, [r3]
 318:Generated_Source\PSoC5/cyfitter_cfg.c **** 	CyDelayUs(10u); /* Allow vref to settle before re-enabling PRES */
 229              		.loc 1 318 0
 230 006a 0A20     		movs	r0, #10
 231 006c FFF7FEFF 		bl	CyDelayUs
 232              	.LVL19:
 319:Generated_Source\PSoC5/cyfitter_cfg.c **** 	CY_SET_XTND_REG8((void CYFAR *)(CYREG_RESET_CR5), (cr5));
 233              		.loc 1 319 0
 234 0070 3D70     		strb	r5, [r7]
 320:Generated_Source\PSoC5/cyfitter_cfg.c **** 	CY_SET_XTND_REG8((void CYFAR *)(CYREG_RESET_CR4), (cr4));
 235              		.loc 1 320 0
 236 0072 3470     		strb	r4, [r6]
 321:Generated_Source\PSoC5/cyfitter_cfg.c **** 	CY_SET_XTND_REG8((void CYFAR *)CYREG_PUMP_CR0, 0x44u);
 237              		.loc 1 321 0
 238 0074 4422     		movs	r2, #68
 239 0076 0A4B     		ldr	r3, .L13+36
 240 0078 1A70     		strb	r2, [r3]
 241 007a F8BD     		pop	{r3, r4, r5, r6, r7, pc}
 242              	.LVL20:
 243              	.L14:
 244              		.align	2
ARM GAS  C:\Users\THOMPS~1\AppData\Local\Temp\ccfH9zX7.s 			page 11


 245              	.L13:
 246 007c CF010049 		.word	1224737231
 247 0080 F8460040 		.word	1073759992
 248 0084 F9460040 		.word	1073759993
 249 0088 6E580040 		.word	1073764462
 250 008c 3D510040 		.word	1073762621
 251 0090 01590040 		.word	1073764609
 252 0094 885A0040 		.word	1073765000
 253 0098 005B0040 		.word	1073765120
 254 009c 205B0040 		.word	1073765152
 255 00a0 76580040 		.word	1073764470
 256              		.cfi_endproc
 257              	.LFE6:
 258              		.size	AnalogSetDefault, .-AnalogSetDefault
 259              		.section	.text.CYCONFIGCPY,"ax",%progbits
 260              		.align	2
 261              		.thumb
 262              		.thumb_func
 263              		.type	CYCONFIGCPY, %function
 264              	CYCONFIGCPY:
 265              	.LFB1:
  71:Generated_Source\PSoC5/cyfitter_cfg.c **** 	(void)memcpy(dest, src, n);
 266              		.loc 1 71 0
 267              		.cfi_startproc
 268              		@ args = 0, pretend = 0, frame = 0
 269              		@ frame_needed = 0, uses_anonymous_args = 0
 270              	.LVL21:
 271 0000 08B5     		push	{r3, lr}
 272              		.cfi_def_cfa_offset 8
 273              		.cfi_offset 3, -8
 274              		.cfi_offset 14, -4
  72:Generated_Source\PSoC5/cyfitter_cfg.c **** }
 275              		.loc 1 72 0
 276 0002 FFF7FEFF 		bl	memcpy
 277              	.LVL22:
 278 0006 08BD     		pop	{r3, pc}
 279              		.cfi_endproc
 280              	.LFE1:
 281              		.size	CYCONFIGCPY, .-CYCONFIGCPY
 282              		.section	.text.ClockSetup,"ax",%progbits
 283              		.align	2
 284              		.thumb
 285              		.thumb_func
 286              		.type	ClockSetup, %function
 287              	ClockSetup:
 288              	.LFB5:
 226:Generated_Source\PSoC5/cyfitter_cfg.c **** 	uint32 timeout;
 289              		.loc 1 226 0
 290              		.cfi_startproc
 291              		@ args = 0, pretend = 0, frame = 0
 292              		@ frame_needed = 0, uses_anonymous_args = 0
 293 0000 38B5     		push	{r3, r4, r5, lr}
 294              		.cfi_def_cfa_offset 16
 295              		.cfi_offset 3, -16
 296              		.cfi_offset 4, -12
 297              		.cfi_offset 5, -8
 298              		.cfi_offset 14, -4
ARM GAS  C:\Users\THOMPS~1\AppData\Local\Temp\ccfH9zX7.s 			page 12


 232:Generated_Source\PSoC5/cyfitter_cfg.c **** 	CY_SET_XTND_REG8((void CYFAR *)(CYREG_CLKDIST_DCFG0_CFG0 + 0x2u), 0x50u);
 299              		.loc 1 232 0
 300 0002 0024     		movs	r4, #0
 301 0004 2F4B     		ldr	r3, .L23
 302 0006 1C80     		strh	r4, [r3]	@ movhi
 233:Generated_Source\PSoC5/cyfitter_cfg.c **** 	CY_SET_XTND_REG16((void CYFAR *)(CYREG_CLKDIST_DCFG1_CFG0), 0x000Eu);
 303              		.loc 1 233 0
 304 0008 5022     		movs	r2, #80
 305 000a 0233     		adds	r3, r3, #2
 306 000c 1A70     		strb	r2, [r3]
 234:Generated_Source\PSoC5/cyfitter_cfg.c **** 	CY_SET_XTND_REG8((void CYFAR *)(CYREG_CLKDIST_DCFG1_CFG0 + 0x2u), 0x18u);
 307              		.loc 1 234 0
 308 000e 0E22     		movs	r2, #14
 309 0010 0233     		adds	r3, r3, #2
 310 0012 1A80     		strh	r2, [r3]	@ movhi
 235:Generated_Source\PSoC5/cyfitter_cfg.c **** 
 311              		.loc 1 235 0
 312 0014 1822     		movs	r2, #24
 313 0016 0233     		adds	r3, r3, #2
 314 0018 1A70     		strb	r2, [r3]
 238:Generated_Source\PSoC5/cyfitter_cfg.c **** 
 315              		.loc 1 238 0
 316 001a 2B48     		ldr	r0, .L23+4
 317 001c 2B49     		ldr	r1, .L23+8
 318 001e 0422     		movs	r2, #4
 319 0020 FFF7FEFF 		bl	CYCONFIGCPY
 320              	.LVL23:
 241:Generated_Source\PSoC5/cyfitter_cfg.c **** 	CY_SET_XTND_REG8((void CYFAR *)(CYREG_CLKDIST_CR), 0x08u);
 321              		.loc 1 241 0
 322 0024 0222     		movs	r2, #2
 323 0026 2A4B     		ldr	r3, .L23+12
 324 0028 1A70     		strb	r2, [r3]
 242:Generated_Source\PSoC5/cyfitter_cfg.c **** 
 325              		.loc 1 242 0
 326 002a 0822     		movs	r2, #8
 327 002c 4FF04023 		mov	r3, #1073758208
 328 0030 1A70     		strb	r2, [r3]
 245:Generated_Source\PSoC5/cyfitter_cfg.c **** 	CY_SET_XTND_REG8((void CYFAR *)(CYREG_IMO_TR1), (CY_GET_XTND_REG8((void CYFAR *)CYREG_FLSHID_CUST_
 329              		.loc 1 245 0
 330 0032 0321     		movs	r1, #3
 331 0034 03F50073 		add	r3, r3, #512
 332 0038 1970     		strb	r1, [r3]
 246:Generated_Source\PSoC5/cyfitter_cfg.c **** 
 333              		.loc 1 246 0
 334 003a 264B     		ldr	r3, .L23+16
 335 003c 1B78     		ldrb	r3, [r3]	@ zero_extendqisi2
 336 003e DBB2     		uxtb	r3, r3
 337 0040 2549     		ldr	r1, .L23+20
 338 0042 0B70     		strb	r3, [r1]
 249:Generated_Source\PSoC5/cyfitter_cfg.c **** 	CY_SET_XTND_REG16((void CYFAR *)(CYREG_FASTCLK_PLL_CFG0), 0x1251u);
 339              		.loc 1 249 0
 340 0044 254B     		ldr	r3, .L23+24
 341 0046 1A80     		strh	r2, [r3]	@ movhi
 250:Generated_Source\PSoC5/cyfitter_cfg.c **** 	/* Wait up to 250us for the PLL to lock */
 342              		.loc 1 250 0
 343 0048 41F25122 		movw	r2, #4689
 344 004c 023B     		subs	r3, r3, #2
ARM GAS  C:\Users\THOMPS~1\AppData\Local\Temp\ccfH9zX7.s 			page 13


 345 004e 1A80     		strh	r2, [r3]	@ movhi
 346              	.LVL24:
 253:Generated_Source\PSoC5/cyfitter_cfg.c **** 	{ 
 347              		.loc 1 253 0
 348 0050 1925     		movs	r5, #25
 349 0052 0CE0     		b	.L18
 350              	.LVL25:
 351              	.L20:
 255:Generated_Source\PSoC5/cyfitter_cfg.c **** 		CyDelayCycles(10u * 48u); /* Delay 10us based on 48MHz clock */
 352              		.loc 1 255 0 discriminator 4
 353 0054 224B     		ldr	r3, .L23+28
 354 0056 1B78     		ldrb	r3, [r3]	@ zero_extendqisi2
 355 0058 03F00103 		and	r3, r3, #1
 356 005c 43EA4404 		orr	r4, r3, r4, lsl #1
 357              	.LVL26:
 358 0060 04F00304 		and	r4, r4, #3
 359              	.LVL27:
 256:Generated_Source\PSoC5/cyfitter_cfg.c **** 	}
 360              		.loc 1 256 0 discriminator 4
 361 0064 4FF4F070 		mov	r0, #480
 362 0068 FFF7FEFF 		bl	CyDelayCycles
 363              	.LVL28:
 253:Generated_Source\PSoC5/cyfitter_cfg.c **** 	{ 
 364              		.loc 1 253 0 discriminator 4
 365 006c 013D     		subs	r5, r5, #1
 366              	.LVL29:
 367              	.L18:
 253:Generated_Source\PSoC5/cyfitter_cfg.c **** 	{ 
 368              		.loc 1 253 0 is_stmt 0 discriminator 1
 369 006e 0DB1     		cbz	r5, .L19
 253:Generated_Source\PSoC5/cyfitter_cfg.c **** 	{ 
 370              		.loc 1 253 0 discriminator 3
 371 0070 032C     		cmp	r4, #3
 372 0072 EFD1     		bne	.L20
 373              	.L19:
 259:Generated_Source\PSoC5/cyfitter_cfg.c **** 	{
 374              		.loc 1 259 0 is_stmt 1
 375 0074 15B9     		cbnz	r5, .L21
 261:Generated_Source\PSoC5/cyfitter_cfg.c **** 	}
 376              		.loc 1 261 0
 377 0076 0320     		movs	r0, #3
 378 0078 FFF7FEFF 		bl	CyClockStartupError
 379              	.LVL30:
 380              	.L21:
 265:Generated_Source\PSoC5/cyfitter_cfg.c **** 	CY_SET_XTND_REG8((void CYFAR *)(CYREG_CLKDIST_MSTR0), 0x07u);
 381              		.loc 1 265 0
 382 007c 194B     		ldr	r3, .L23+32
 383 007e 4FF48072 		mov	r2, #256
 384 0082 1A80     		strh	r2, [r3]	@ movhi
 266:Generated_Source\PSoC5/cyfitter_cfg.c **** 	CY_SET_XTND_REG8((void CYFAR *)(CYREG_CLKDIST_BCFG0), 0x00u);
 385              		.loc 1 266 0
 386 0084 0722     		movs	r2, #7
 387 0086 1A70     		strb	r2, [r3]
 267:Generated_Source\PSoC5/cyfitter_cfg.c **** 	CY_SET_XTND_REG8((void CYFAR *)(CYREG_CLKDIST_BCFG2), 0x48u);
 388              		.loc 1 267 0
 389 0088 0022     		movs	r2, #0
 390 008a 1749     		ldr	r1, .L23+36
ARM GAS  C:\Users\THOMPS~1\AppData\Local\Temp\ccfH9zX7.s 			page 14


 391 008c 0A70     		strb	r2, [r1]
 268:Generated_Source\PSoC5/cyfitter_cfg.c **** 	CY_SET_XTND_REG8((void CYFAR *)(CYREG_CLKDIST_MSTR0), 0x00u);
 392              		.loc 1 268 0
 393 008e 4820     		movs	r0, #72
 394 0090 0231     		adds	r1, r1, #2
 395 0092 0870     		strb	r0, [r1]
 269:Generated_Source\PSoC5/cyfitter_cfg.c **** 	CY_SET_XTND_REG8((void CYFAR *)(CYREG_CLKDIST_LD), 0x02u);
 396              		.loc 1 269 0
 397 0094 1A70     		strb	r2, [r3]
 270:Generated_Source\PSoC5/cyfitter_cfg.c **** 	CY_SET_XTND_REG8((void CYFAR *)(CYREG_CLKDIST_DLY1), 0x04u);
 398              		.loc 1 270 0
 399 0096 0222     		movs	r2, #2
 400 0098 033B     		subs	r3, r3, #3
 401 009a 1A70     		strb	r2, [r3]
 271:Generated_Source\PSoC5/cyfitter_cfg.c **** 
 402              		.loc 1 271 0
 403 009c 0422     		movs	r2, #4
 404 009e 0A33     		adds	r3, r3, #10
 405 00a0 1A70     		strb	r2, [r3]
 273:Generated_Source\PSoC5/cyfitter_cfg.c **** 	CY_SET_XTND_REG8((void CYFAR *)(CYREG_PM_ACT_CFG1), ((CY_GET_XTND_REG8((void CYFAR *)CYREG_PM_ACT_
 406              		.loc 1 273 0
 407 00a2 124A     		ldr	r2, .L23+40
 408 00a4 1378     		ldrb	r3, [r2]	@ zero_extendqisi2
 409 00a6 43F00303 		orr	r3, r3, #3
 410 00aa 1370     		strb	r3, [r2]
 274:Generated_Source\PSoC5/cyfitter_cfg.c **** 	CY_SET_XTND_REG8((void CYFAR *)(CYREG_PM_ACT_CFG0), ((CY_GET_XTND_REG8((void CYFAR *)CYREG_PM_ACT_
 411              		.loc 1 274 0
 412 00ac 013A     		subs	r2, r2, #1
 413 00ae 1378     		ldrb	r3, [r2]	@ zero_extendqisi2
 414 00b0 43F00103 		orr	r3, r3, #1
 415 00b4 1370     		strb	r3, [r2]
 275:Generated_Source\PSoC5/cyfitter_cfg.c **** }
 416              		.loc 1 275 0
 417 00b6 013A     		subs	r2, r2, #1
 418 00b8 1378     		ldrb	r3, [r2]	@ zero_extendqisi2
 419 00ba 43F08003 		orr	r3, r3, #128
 420 00be 1370     		strb	r3, [r2]
 421 00c0 38BD     		pop	{r3, r4, r5, pc}
 422              	.LVL31:
 423              	.L24:
 424 00c2 00BF     		.align	2
 425              	.L23:
 426 00c4 80400040 		.word	1073758336
 427 00c8 00410040 		.word	1073758464
 428 00cc 18010048 		.word	1207959832
 429 00d0 00430040 		.word	1073758976
 430 00d4 08010049 		.word	1224737032
 431 00d8 A1460040 		.word	1073759905
 432 00dc 22420040 		.word	1073758754
 433 00e0 25420040 		.word	1073758757
 434 00e4 04400040 		.word	1073758212
 435 00e8 06400040 		.word	1073758214
 436 00ec A2430040 		.word	1073759138
 437              		.cfi_endproc
 438              	.LFE5:
 439              		.size	ClockSetup, .-ClockSetup
 440              		.section	.text.SetAnalogRoutingPumps,"ax",%progbits
ARM GAS  C:\Users\THOMPS~1\AppData\Local\Temp\ccfH9zX7.s 			page 15


 441              		.align	2
 442              		.global	SetAnalogRoutingPumps
 443              		.thumb
 444              		.thumb_func
 445              		.type	SetAnalogRoutingPumps, %function
 446              	SetAnalogRoutingPumps:
 447              	.LFB7:
 322:Generated_Source\PSoC5/cyfitter_cfg.c **** }
 323:Generated_Source\PSoC5/cyfitter_cfg.c **** 
 324:Generated_Source\PSoC5/cyfitter_cfg.c **** 
 325:Generated_Source\PSoC5/cyfitter_cfg.c **** /*******************************************************************************
 326:Generated_Source\PSoC5/cyfitter_cfg.c **** * Function Name: SetAnalogRoutingPumps
 327:Generated_Source\PSoC5/cyfitter_cfg.c **** ********************************************************************************
 328:Generated_Source\PSoC5/cyfitter_cfg.c **** *
 329:Generated_Source\PSoC5/cyfitter_cfg.c **** * Summary:
 330:Generated_Source\PSoC5/cyfitter_cfg.c **** * Enables or disables the analog pumps feeding analog routing switches.
 331:Generated_Source\PSoC5/cyfitter_cfg.c **** * Intended to be called at startup, based on the Vdda system configuration;
 332:Generated_Source\PSoC5/cyfitter_cfg.c **** * may be called during operation when the user informs us that the Vdda voltage
 333:Generated_Source\PSoC5/cyfitter_cfg.c **** * crossed the pump threshold.
 334:Generated_Source\PSoC5/cyfitter_cfg.c **** *
 335:Generated_Source\PSoC5/cyfitter_cfg.c **** * Parameters:
 336:Generated_Source\PSoC5/cyfitter_cfg.c **** *  enabled - 1 to enable the pumps, 0 to disable the pumps
 337:Generated_Source\PSoC5/cyfitter_cfg.c **** *
 338:Generated_Source\PSoC5/cyfitter_cfg.c **** * Return:
 339:Generated_Source\PSoC5/cyfitter_cfg.c **** *  void
 340:Generated_Source\PSoC5/cyfitter_cfg.c **** *
 341:Generated_Source\PSoC5/cyfitter_cfg.c **** *******************************************************************************/
 342:Generated_Source\PSoC5/cyfitter_cfg.c **** void SetAnalogRoutingPumps(uint8 enabled)
 343:Generated_Source\PSoC5/cyfitter_cfg.c **** {
 448              		.loc 1 343 0
 449              		.cfi_startproc
 450              		@ args = 0, pretend = 0, frame = 0
 451              		@ frame_needed = 0, uses_anonymous_args = 0
 452              		@ link register save eliminated.
 453              	.LVL32:
 344:Generated_Source\PSoC5/cyfitter_cfg.c **** 	uint8 regValue = CY_GET_XTND_REG8((void CYFAR *)CYREG_PUMP_CR0);
 454              		.loc 1 344 0
 455 0000 054B     		ldr	r3, .L28
 456 0002 1B78     		ldrb	r3, [r3]	@ zero_extendqisi2
 457 0004 DBB2     		uxtb	r3, r3
 458              	.LVL33:
 345:Generated_Source\PSoC5/cyfitter_cfg.c **** 	if (enabled != 0u)
 459              		.loc 1 345 0
 460 0006 10B1     		cbz	r0, .L26
 346:Generated_Source\PSoC5/cyfitter_cfg.c **** 	{
 347:Generated_Source\PSoC5/cyfitter_cfg.c **** 		regValue |= 0x22u;
 461              		.loc 1 347 0
 462 0008 43F02203 		orr	r3, r3, #34
 463              	.LVL34:
 464 000c 01E0     		b	.L27
 465              	.L26:
 348:Generated_Source\PSoC5/cyfitter_cfg.c **** 	}
 349:Generated_Source\PSoC5/cyfitter_cfg.c **** 	else
 350:Generated_Source\PSoC5/cyfitter_cfg.c **** 	{
 351:Generated_Source\PSoC5/cyfitter_cfg.c **** 		regValue &= (uint8)~0x22u;
 466              		.loc 1 351 0
 467 000e 03F0DD03 		and	r3, r3, #221
ARM GAS  C:\Users\THOMPS~1\AppData\Local\Temp\ccfH9zX7.s 			page 16


 468              	.LVL35:
 469              	.L27:
 352:Generated_Source\PSoC5/cyfitter_cfg.c **** 	}
 353:Generated_Source\PSoC5/cyfitter_cfg.c **** 	CY_SET_XTND_REG8((void CYFAR *)CYREG_PUMP_CR0, regValue);
 470              		.loc 1 353 0
 471 0012 014A     		ldr	r2, .L28
 472 0014 1370     		strb	r3, [r2]
 473 0016 7047     		bx	lr
 474              	.L29:
 475              		.align	2
 476              	.L28:
 477 0018 76580040 		.word	1073764470
 478              		.cfi_endproc
 479              	.LFE7:
 480              		.size	SetAnalogRoutingPumps, .-SetAnalogRoutingPumps
 481              		.section	.text.lfOutADC_AMux_Set,"ax",%progbits
 482              		.align	2
 483              		.global	lfOutADC_AMux_Set
 484              		.thumb
 485              		.thumb_func
 486              		.type	lfOutADC_AMux_Set, %function
 487              	lfOutADC_AMux_Set:
 488              	.LFB8:
 354:Generated_Source\PSoC5/cyfitter_cfg.c **** }
 355:Generated_Source\PSoC5/cyfitter_cfg.c **** 
 356:Generated_Source\PSoC5/cyfitter_cfg.c **** #define CY_AMUX_UNUSED CYREG_BOOST_SR
 357:Generated_Source\PSoC5/cyfitter_cfg.c **** /* This is an implementation detail of the AMux. Code that depends on it may be
 358:Generated_Source\PSoC5/cyfitter_cfg.c ****    incompatible with other versions of PSoC Creator. */
 359:Generated_Source\PSoC5/cyfitter_cfg.c **** uint8 CYXDATA * const CYCODE lfOutADC_AMux__addrTable[2] = {
 360:Generated_Source\PSoC5/cyfitter_cfg.c **** 	(uint8 CYXDATA *)CYREG_DSM0_SW3, 
 361:Generated_Source\PSoC5/cyfitter_cfg.c **** 	(uint8 CYXDATA *)CY_AMUX_UNUSED, 
 362:Generated_Source\PSoC5/cyfitter_cfg.c **** };
 363:Generated_Source\PSoC5/cyfitter_cfg.c **** 
 364:Generated_Source\PSoC5/cyfitter_cfg.c **** /* This is an implementation detail of the AMux. Code that depends on it may be
 365:Generated_Source\PSoC5/cyfitter_cfg.c ****    incompatible with other versions of PSoC Creator. */
 366:Generated_Source\PSoC5/cyfitter_cfg.c **** const uint8 CYCODE lfOutADC_AMux__maskTable[2] = {
 367:Generated_Source\PSoC5/cyfitter_cfg.c **** 	0x40u, 
 368:Generated_Source\PSoC5/cyfitter_cfg.c **** 	0x00u, 
 369:Generated_Source\PSoC5/cyfitter_cfg.c **** };
 370:Generated_Source\PSoC5/cyfitter_cfg.c **** 
 371:Generated_Source\PSoC5/cyfitter_cfg.c **** /*******************************************************************************
 372:Generated_Source\PSoC5/cyfitter_cfg.c **** * Function Name: lfOutADC_AMux_Set
 373:Generated_Source\PSoC5/cyfitter_cfg.c **** ********************************************************************************
 374:Generated_Source\PSoC5/cyfitter_cfg.c **** * Summary:
 375:Generated_Source\PSoC5/cyfitter_cfg.c **** *  This function is used to set a particular channel as active on the AMux.
 376:Generated_Source\PSoC5/cyfitter_cfg.c **** *
 377:Generated_Source\PSoC5/cyfitter_cfg.c **** * Parameters:  
 378:Generated_Source\PSoC5/cyfitter_cfg.c **** *   channel - The mux channel input to set as active
 379:Generated_Source\PSoC5/cyfitter_cfg.c **** *
 380:Generated_Source\PSoC5/cyfitter_cfg.c **** * Return:
 381:Generated_Source\PSoC5/cyfitter_cfg.c **** *   void
 382:Generated_Source\PSoC5/cyfitter_cfg.c **** *
 383:Generated_Source\PSoC5/cyfitter_cfg.c **** *******************************************************************************/
 384:Generated_Source\PSoC5/cyfitter_cfg.c **** void lfOutADC_AMux_Set(uint8 channel)
 385:Generated_Source\PSoC5/cyfitter_cfg.c **** {
 489              		.loc 1 385 0
 490              		.cfi_startproc
ARM GAS  C:\Users\THOMPS~1\AppData\Local\Temp\ccfH9zX7.s 			page 17


 491              		@ args = 0, pretend = 0, frame = 0
 492              		@ frame_needed = 0, uses_anonymous_args = 0
 493              		@ link register save eliminated.
 494              	.LVL36:
 386:Generated_Source\PSoC5/cyfitter_cfg.c **** 	if (channel < 2)
 495              		.loc 1 386 0
 496 0000 0128     		cmp	r0, #1
 497 0002 07D8     		bhi	.L30
 387:Generated_Source\PSoC5/cyfitter_cfg.c **** 	{
 388:Generated_Source\PSoC5/cyfitter_cfg.c **** 		*lfOutADC_AMux__addrTable[channel] |= lfOutADC_AMux__maskTable[channel];
 498              		.loc 1 388 0
 499 0004 044B     		ldr	r3, .L32
 500 0006 53F82020 		ldr	r2, [r3, r0, lsl #2]
 501 000a 1844     		add	r0, r0, r3
 502              	.LVL37:
 503 000c 017A     		ldrb	r1, [r0, #8]	@ zero_extendqisi2
 504 000e 1378     		ldrb	r3, [r2]	@ zero_extendqisi2
 505 0010 0B43     		orrs	r3, r3, r1
 506 0012 1370     		strb	r3, [r2]
 507              	.L30:
 508 0014 7047     		bx	lr
 509              	.L33:
 510 0016 00BF     		.align	2
 511              	.L32:
 512 0018 00000000 		.word	.LANCHOR0
 513              		.cfi_endproc
 514              	.LFE8:
 515              		.size	lfOutADC_AMux_Set, .-lfOutADC_AMux_Set
 516              		.section	.text.lfOutADC_AMux_Unset,"ax",%progbits
 517              		.align	2
 518              		.global	lfOutADC_AMux_Unset
 519              		.thumb
 520              		.thumb_func
 521              		.type	lfOutADC_AMux_Unset, %function
 522              	lfOutADC_AMux_Unset:
 523              	.LFB9:
 389:Generated_Source\PSoC5/cyfitter_cfg.c **** 	}
 390:Generated_Source\PSoC5/cyfitter_cfg.c **** }
 391:Generated_Source\PSoC5/cyfitter_cfg.c **** 
 392:Generated_Source\PSoC5/cyfitter_cfg.c **** /*******************************************************************************
 393:Generated_Source\PSoC5/cyfitter_cfg.c **** * Function Name: lfOutADC_AMux_Unset
 394:Generated_Source\PSoC5/cyfitter_cfg.c **** ********************************************************************************
 395:Generated_Source\PSoC5/cyfitter_cfg.c **** * Summary:
 396:Generated_Source\PSoC5/cyfitter_cfg.c **** *  This function is used to clear a particular channel from being active on the
 397:Generated_Source\PSoC5/cyfitter_cfg.c **** *  AMux.
 398:Generated_Source\PSoC5/cyfitter_cfg.c **** *
 399:Generated_Source\PSoC5/cyfitter_cfg.c **** * Parameters:  
 400:Generated_Source\PSoC5/cyfitter_cfg.c **** *   channel - The mux channel input to mark inactive
 401:Generated_Source\PSoC5/cyfitter_cfg.c **** *
 402:Generated_Source\PSoC5/cyfitter_cfg.c **** * Return:
 403:Generated_Source\PSoC5/cyfitter_cfg.c **** *   void
 404:Generated_Source\PSoC5/cyfitter_cfg.c **** *
 405:Generated_Source\PSoC5/cyfitter_cfg.c **** *******************************************************************************/
 406:Generated_Source\PSoC5/cyfitter_cfg.c **** void lfOutADC_AMux_Unset(uint8 channel)
 407:Generated_Source\PSoC5/cyfitter_cfg.c **** {
 524              		.loc 1 407 0
 525              		.cfi_startproc
ARM GAS  C:\Users\THOMPS~1\AppData\Local\Temp\ccfH9zX7.s 			page 18


 526              		@ args = 0, pretend = 0, frame = 0
 527              		@ frame_needed = 0, uses_anonymous_args = 0
 528              		@ link register save eliminated.
 529              	.LVL38:
 408:Generated_Source\PSoC5/cyfitter_cfg.c **** 	if (channel < 2)
 530              		.loc 1 408 0
 531 0000 0128     		cmp	r0, #1
 532 0002 08D8     		bhi	.L34
 409:Generated_Source\PSoC5/cyfitter_cfg.c **** 	{
 410:Generated_Source\PSoC5/cyfitter_cfg.c **** 		*lfOutADC_AMux__addrTable[channel] &= (uint8)~lfOutADC_AMux__maskTable[channel];
 533              		.loc 1 410 0
 534 0004 044B     		ldr	r3, .L36
 535 0006 53F82020 		ldr	r2, [r3, r0, lsl #2]
 536 000a 1844     		add	r0, r0, r3
 537              	.LVL39:
 538 000c 017A     		ldrb	r1, [r0, #8]	@ zero_extendqisi2
 539 000e 1378     		ldrb	r3, [r2]	@ zero_extendqisi2
 540 0010 23EA0103 		bic	r3, r3, r1
 541 0014 1370     		strb	r3, [r2]
 542              	.L34:
 543 0016 7047     		bx	lr
 544              	.L37:
 545              		.align	2
 546              	.L36:
 547 0018 00000000 		.word	.LANCHOR0
 548              		.cfi_endproc
 549              	.LFE9:
 550              		.size	lfOutADC_AMux_Unset, .-lfOutADC_AMux_Unset
 551              		.section	.text.cyfitter_cfg,"ax",%progbits
 552              		.align	2
 553              		.global	cyfitter_cfg
 554              		.thumb
 555              		.thumb_func
 556              		.type	cyfitter_cfg, %function
 557              	cyfitter_cfg:
 558              	.LFB10:
 411:Generated_Source\PSoC5/cyfitter_cfg.c **** 	}
 412:Generated_Source\PSoC5/cyfitter_cfg.c **** }
 413:Generated_Source\PSoC5/cyfitter_cfg.c **** 
 414:Generated_Source\PSoC5/cyfitter_cfg.c **** 
 415:Generated_Source\PSoC5/cyfitter_cfg.c **** 
 416:Generated_Source\PSoC5/cyfitter_cfg.c **** /*******************************************************************************
 417:Generated_Source\PSoC5/cyfitter_cfg.c **** * Function Name: cyfitter_cfg
 418:Generated_Source\PSoC5/cyfitter_cfg.c **** ********************************************************************************
 419:Generated_Source\PSoC5/cyfitter_cfg.c **** * Summary:
 420:Generated_Source\PSoC5/cyfitter_cfg.c **** *  This function is called by the start-up code for the selected device. It
 421:Generated_Source\PSoC5/cyfitter_cfg.c **** *  performs all of the necessary device configuration based on the design
 422:Generated_Source\PSoC5/cyfitter_cfg.c **** *  settings.  This includes settings from the Design Wide Resources (DWR) such
 423:Generated_Source\PSoC5/cyfitter_cfg.c **** *  as Clocks and Pins as well as any component configuration that is necessary.
 424:Generated_Source\PSoC5/cyfitter_cfg.c **** *
 425:Generated_Source\PSoC5/cyfitter_cfg.c **** * Parameters:  
 426:Generated_Source\PSoC5/cyfitter_cfg.c **** *   void
 427:Generated_Source\PSoC5/cyfitter_cfg.c **** *
 428:Generated_Source\PSoC5/cyfitter_cfg.c **** * Return:
 429:Generated_Source\PSoC5/cyfitter_cfg.c **** *   void
 430:Generated_Source\PSoC5/cyfitter_cfg.c **** *
 431:Generated_Source\PSoC5/cyfitter_cfg.c **** *******************************************************************************/
ARM GAS  C:\Users\THOMPS~1\AppData\Local\Temp\ccfH9zX7.s 			page 19


 432:Generated_Source\PSoC5/cyfitter_cfg.c **** 
 433:Generated_Source\PSoC5/cyfitter_cfg.c **** void cyfitter_cfg(void)
 434:Generated_Source\PSoC5/cyfitter_cfg.c **** {
 559              		.loc 1 434 0
 560              		.cfi_startproc
 561              		@ args = 0, pretend = 0, frame = 0
 562              		@ frame_needed = 0, uses_anonymous_args = 0
 563 0000 70B5     		push	{r4, r5, r6, lr}
 564              		.cfi_def_cfa_offset 16
 565              		.cfi_offset 4, -16
 566              		.cfi_offset 5, -12
 567              		.cfi_offset 6, -8
 568              		.cfi_offset 14, -4
 435:Generated_Source\PSoC5/cyfitter_cfg.c **** #ifdef CYGlobalIntDisable
 436:Generated_Source\PSoC5/cyfitter_cfg.c **** 	/* Disable interrupts by default. Let user enable if/when they want. */
 437:Generated_Source\PSoC5/cyfitter_cfg.c **** 	CYGlobalIntDisable
 569              		.loc 1 437 0
 570              	@ 437 "Generated_Source\PSoC5\cyfitter_cfg.c" 1
 571 0002 72B6     		CPSID   i
 572              	@ 0 "" 2
 438:Generated_Source\PSoC5/cyfitter_cfg.c **** #endif
 439:Generated_Source\PSoC5/cyfitter_cfg.c **** 
 440:Generated_Source\PSoC5/cyfitter_cfg.c **** 	/* Enable/Disable Debug functionality based on settings from System DWR */
 441:Generated_Source\PSoC5/cyfitter_cfg.c **** 	CY_SET_XTND_REG8((void CYFAR *)CYREG_MLOGIC_DEBUG, (CY_GET_XTND_REG8((void CYFAR *)CYREG_MLOGIC_DE
 573              		.loc 1 441 0
 574              		.thumb
 575 0004 374A     		ldr	r2, .L42
 576 0006 1378     		ldrb	r3, [r2]	@ zero_extendqisi2
 577 0008 43F00403 		orr	r3, r3, #4
 578 000c 1370     		strb	r3, [r2]
 579              	.LVL40:
 580              	.LBB3:
 442:Generated_Source\PSoC5/cyfitter_cfg.c **** 
 443:Generated_Source\PSoC5/cyfitter_cfg.c **** 	{
 444:Generated_Source\PSoC5/cyfitter_cfg.c **** 
 445:Generated_Source\PSoC5/cyfitter_cfg.c **** 		CYPACKED typedef struct {
 446:Generated_Source\PSoC5/cyfitter_cfg.c **** 			void CYFAR *address;
 447:Generated_Source\PSoC5/cyfitter_cfg.c **** 			uint16 size;
 448:Generated_Source\PSoC5/cyfitter_cfg.c **** 		} CYPACKED_ATTR cfg_memset_t;
 449:Generated_Source\PSoC5/cyfitter_cfg.c **** 
 450:Generated_Source\PSoC5/cyfitter_cfg.c **** 		static const cfg_memset_t CYCODE cfg_memset_list [] = {
 451:Generated_Source\PSoC5/cyfitter_cfg.c **** 			/* address, size */
 452:Generated_Source\PSoC5/cyfitter_cfg.c **** 			{(void CYFAR *)(CYREG_PRT15_DR), 16u},
 453:Generated_Source\PSoC5/cyfitter_cfg.c **** 			{(void CYFAR *)(CYDEV_UCFG_B0_P0_U0_BASE), 4096u},
 454:Generated_Source\PSoC5/cyfitter_cfg.c **** 			{(void CYFAR *)(CYDEV_UCFG_B1_P2_U0_BASE), 2048u},
 455:Generated_Source\PSoC5/cyfitter_cfg.c **** 			{(void CYFAR *)(CYDEV_UCFG_DSI0_BASE), 2560u},
 456:Generated_Source\PSoC5/cyfitter_cfg.c **** 			{(void CYFAR *)(CYDEV_UCFG_DSI12_BASE), 512u},
 457:Generated_Source\PSoC5/cyfitter_cfg.c **** 			{(void CYFAR *)(CYREG_BCTL0_MDCLK_EN), 32u},
 458:Generated_Source\PSoC5/cyfitter_cfg.c **** 		};
 459:Generated_Source\PSoC5/cyfitter_cfg.c **** 
 460:Generated_Source\PSoC5/cyfitter_cfg.c **** 		uint8 CYDATA i;
 461:Generated_Source\PSoC5/cyfitter_cfg.c **** 
 462:Generated_Source\PSoC5/cyfitter_cfg.c **** 		/* Zero out critical memory blocks before beginning configuration */
 463:Generated_Source\PSoC5/cyfitter_cfg.c **** 		for (i = 0u; i < (sizeof(cfg_memset_list)/sizeof(cfg_memset_list[0])); i++)
 581              		.loc 1 463 0
 582 000e 0024     		movs	r4, #0
 583 0010 0AE0     		b	.L39
ARM GAS  C:\Users\THOMPS~1\AppData\Local\Temp\ccfH9zX7.s 			page 20


 584              	.LVL41:
 585              	.L40:
 586              	.LBB4:
 464:Generated_Source\PSoC5/cyfitter_cfg.c **** 		{
 465:Generated_Source\PSoC5/cyfitter_cfg.c **** 			const cfg_memset_t CYCODE * CYDATA ms = &cfg_memset_list[i];
 466:Generated_Source\PSoC5/cyfitter_cfg.c **** 			CYMEMZERO(ms->address, (size_t)(uint32)(ms->size));
 587              		.loc 1 466 0 discriminator 3
 588 0012 3549     		ldr	r1, .L42+4
 589 0014 6300     		lsls	r3, r4, #1
 590 0016 1A19     		adds	r2, r3, r4
 591 0018 5200     		lsls	r2, r2, #1
 592 001a 0A44     		add	r2, r2, r1
 593 001c D068     		ldr	r0, [r2, #12]	@ unaligned
 594 001e 118A     		ldrh	r1, [r2, #16]
 595 0020 FFF7FEFF 		bl	CYMEMZERO
 596              	.LVL42:
 597              	.LBE4:
 463:Generated_Source\PSoC5/cyfitter_cfg.c **** 		{
 598              		.loc 1 463 0 discriminator 3
 599 0024 0134     		adds	r4, r4, #1
 600              	.LVL43:
 601 0026 E4B2     		uxtb	r4, r4
 602              	.LVL44:
 603              	.L39:
 463:Generated_Source\PSoC5/cyfitter_cfg.c **** 		{
 604              		.loc 1 463 0 is_stmt 0 discriminator 1
 605 0028 052C     		cmp	r4, #5
 606 002a F2D9     		bls	.L40
 467:Generated_Source\PSoC5/cyfitter_cfg.c **** 		}
 468:Generated_Source\PSoC5/cyfitter_cfg.c **** 
 469:Generated_Source\PSoC5/cyfitter_cfg.c **** 		cfg_write_bytes32(cy_cfg_addr_table, cy_cfg_data_table);
 607              		.loc 1 469 0 is_stmt 1
 608 002c 4FF09040 		mov	r0, #1207959552
 609 0030 2E49     		ldr	r1, .L42+8
 610 0032 FFF7FEFF 		bl	cfg_write_bytes32
 611              	.LVL45:
 470:Generated_Source\PSoC5/cyfitter_cfg.c **** 
 471:Generated_Source\PSoC5/cyfitter_cfg.c **** 		/* Perform normal device configuration. Order is not critical for these items. */
 472:Generated_Source\PSoC5/cyfitter_cfg.c **** 		CY_SET_XTND_REG8((void CYFAR *)(CYREG_DSM0_CR3), 0x0Au);
 612              		.loc 1 472 0
 613 0036 0A22     		movs	r2, #10
 614 0038 2D4B     		ldr	r3, .L42+12
 615 003a 1A70     		strb	r2, [r3]
 473:Generated_Source\PSoC5/cyfitter_cfg.c **** 
 474:Generated_Source\PSoC5/cyfitter_cfg.c **** 		/* Enable digital routing */
 475:Generated_Source\PSoC5/cyfitter_cfg.c **** 		CY_SET_XTND_REG8((void CYFAR *)CYREG_BCTL0_BANK_CTL, CY_GET_XTND_REG8((void CYFAR *)CYREG_BCTL0_B
 616              		.loc 1 475 0
 617 003c 2D4A     		ldr	r2, .L42+16
 618 003e 1378     		ldrb	r3, [r2]	@ zero_extendqisi2
 619 0040 43F00203 		orr	r3, r3, #2
 620 0044 1370     		strb	r3, [r2]
 476:Generated_Source\PSoC5/cyfitter_cfg.c **** 		CY_SET_XTND_REG8((void CYFAR *)CYREG_BCTL1_BANK_CTL, CY_GET_XTND_REG8((void CYFAR *)CYREG_BCTL1_B
 621              		.loc 1 476 0
 622 0046 1032     		adds	r2, r2, #16
 623 0048 1378     		ldrb	r3, [r2]	@ zero_extendqisi2
 624 004a 43F00203 		orr	r3, r3, #2
 625 004e 1370     		strb	r3, [r2]
ARM GAS  C:\Users\THOMPS~1\AppData\Local\Temp\ccfH9zX7.s 			page 21


 477:Generated_Source\PSoC5/cyfitter_cfg.c **** 
 478:Generated_Source\PSoC5/cyfitter_cfg.c **** 		/* Enable UDB array */
 479:Generated_Source\PSoC5/cyfitter_cfg.c **** 		CY_SET_XTND_REG8((void CYFAR *)CYREG_PM_ACT_CFG0, CY_GET_XTND_REG8((void CYFAR *)CYREG_PM_ACT_CFG
 626              		.loc 1 479 0
 627 0050 294C     		ldr	r4, .L42+20
 628              	.LVL46:
 629 0052 2378     		ldrb	r3, [r4]	@ zero_extendqisi2
 630 0054 43F04003 		orr	r3, r3, #64
 631 0058 2370     		strb	r3, [r4]
 480:Generated_Source\PSoC5/cyfitter_cfg.c **** 		CY_SET_XTND_REG8((void CYFAR *)CYREG_PM_AVAIL_CR2, CY_GET_XTND_REG8((void CYFAR *)CYREG_PM_AVAIL_
 632              		.loc 1 480 0
 633 005a A2F58632 		sub	r2, r2, #68608
 634 005e 513A     		subs	r2, r2, #81
 635 0060 1378     		ldrb	r3, [r2]	@ zero_extendqisi2
 636 0062 43F01003 		orr	r3, r3, #16
 637 0066 1370     		strb	r3, [r2]
 638              	.LBE3:
 481:Generated_Source\PSoC5/cyfitter_cfg.c **** 	}
 482:Generated_Source\PSoC5/cyfitter_cfg.c **** 
 483:Generated_Source\PSoC5/cyfitter_cfg.c **** 
 484:Generated_Source\PSoC5/cyfitter_cfg.c **** 	/* Perform second pass device configuration. These items must be configured in specific order afte
 485:Generated_Source\PSoC5/cyfitter_cfg.c **** 	CYCONFIGCPY((void CYFAR *)(CYREG_PRT0_DM0), (const void CYFAR *)(BS_IOPINS0_0_VAL), 8u);
 639              		.loc 1 485 0
 640 0068 2448     		ldr	r0, .L42+24
 641 006a 2549     		ldr	r1, .L42+28
 642 006c 0822     		movs	r2, #8
 643 006e FFF7FEFF 		bl	CYCONFIGCPY
 644              	.LVL47:
 486:Generated_Source\PSoC5/cyfitter_cfg.c **** 	CYCONFIGCPY((void CYFAR *)(CYREG_PRT12_DM0), (const void CYFAR *)(BS_IOPINS0_7_VAL), 8u);
 645              		.loc 1 486 0
 646 0072 2448     		ldr	r0, .L42+32
 647 0074 2449     		ldr	r1, .L42+36
 648 0076 0822     		movs	r2, #8
 649 0078 FFF7FEFF 		bl	CYCONFIGCPY
 650              	.LVL48:
 487:Generated_Source\PSoC5/cyfitter_cfg.c **** 	CYCONFIGCPY((void CYFAR *)(CYREG_PRT1_DM0), (const void CYFAR *)(BS_IOPINS0_1_VAL), 8u);
 651              		.loc 1 487 0
 652 007c 2348     		ldr	r0, .L42+40
 653 007e 2449     		ldr	r1, .L42+44
 654 0080 0822     		movs	r2, #8
 655 0082 FFF7FEFF 		bl	CYCONFIGCPY
 656              	.LVL49:
 488:Generated_Source\PSoC5/cyfitter_cfg.c **** 	CYCONFIGCPY((void CYFAR *)(CYREG_PRT2_DM0), (const void CYFAR *)(BS_IOPINS0_2_VAL), 8u);
 657              		.loc 1 488 0
 658 0086 2348     		ldr	r0, .L42+48
 659 0088 2349     		ldr	r1, .L42+52
 660 008a 0822     		movs	r2, #8
 661 008c FFF7FEFF 		bl	CYCONFIGCPY
 662              	.LVL50:
 489:Generated_Source\PSoC5/cyfitter_cfg.c **** 	CYCONFIGCPY((void CYFAR *)(CYREG_PRT3_DM0), (const void CYFAR *)(BS_IOPINS0_3_VAL), 8u);
 663              		.loc 1 489 0
 664 0090 2248     		ldr	r0, .L42+56
 665 0092 2349     		ldr	r1, .L42+60
 666 0094 0822     		movs	r2, #8
 667 0096 FFF7FEFF 		bl	CYCONFIGCPY
 668              	.LVL51:
 490:Generated_Source\PSoC5/cyfitter_cfg.c **** 	CYCONFIGCPY((void CYFAR *)(CYREG_PRT4_DM0), (const void CYFAR *)(BS_IOPINS0_4_VAL), 8u);
ARM GAS  C:\Users\THOMPS~1\AppData\Local\Temp\ccfH9zX7.s 			page 22


 669              		.loc 1 490 0
 670 009a 2248     		ldr	r0, .L42+64
 671 009c 2249     		ldr	r1, .L42+68
 672 009e 0822     		movs	r2, #8
 673 00a0 FFF7FEFF 		bl	CYCONFIGCPY
 674              	.LVL52:
 491:Generated_Source\PSoC5/cyfitter_cfg.c **** 	CYCONFIGCPY((void CYFAR *)(CYREG_PRT5_DM0), (const void CYFAR *)(BS_IOPINS0_5_VAL), 8u);
 675              		.loc 1 491 0
 676 00a4 2148     		ldr	r0, .L42+72
 677 00a6 2249     		ldr	r1, .L42+76
 678 00a8 0822     		movs	r2, #8
 679 00aa FFF7FEFF 		bl	CYCONFIGCPY
 680              	.LVL53:
 492:Generated_Source\PSoC5/cyfitter_cfg.c **** 	CYCONFIGCPY((void CYFAR *)(CYREG_PRT6_DM0), (const void CYFAR *)(BS_IOPINS0_6_VAL), 8u);
 681              		.loc 1 492 0
 682 00ae 2148     		ldr	r0, .L42+80
 683 00b0 2149     		ldr	r1, .L42+84
 684 00b2 0822     		movs	r2, #8
 685 00b4 FFF7FEFF 		bl	CYCONFIGCPY
 686              	.LVL54:
 493:Generated_Source\PSoC5/cyfitter_cfg.c **** 	/* Switch Boost to the precision bandgap reference from its internal reference */
 494:Generated_Source\PSoC5/cyfitter_cfg.c **** 	CY_SET_REG8((void CYXDATA *)CYREG_BOOST_CR2, (CY_GET_REG8((void CYXDATA *)CYREG_BOOST_CR2) | 0x08u
 687              		.loc 1 494 0
 688 00b8 204A     		ldr	r2, .L42+88
 689 00ba 1378     		ldrb	r3, [r2]	@ zero_extendqisi2
 690 00bc 43F00803 		orr	r3, r3, #8
 691 00c0 1370     		strb	r3, [r2]
 495:Generated_Source\PSoC5/cyfitter_cfg.c **** 
 496:Generated_Source\PSoC5/cyfitter_cfg.c **** 	/* Set Flash Cycles based on max possible frequency in case a glitch occurs during ClockSetup(). *
 497:Generated_Source\PSoC5/cyfitter_cfg.c **** 	CY_SET_XTND_REG8((void CYFAR *)(CYREG_CACHE_CC_CTL), (((CYDEV_INSTRUCT_CACHE_ENABLED) != 0) ? 0x01
 692              		.loc 1 497 0
 693 00c2 1F4E     		ldr	r6, .L42+92
 694 00c4 0125     		movs	r5, #1
 695 00c6 3570     		strb	r5, [r6]
 498:Generated_Source\PSoC5/cyfitter_cfg.c **** 	/* Setup clocks based on selections from Clock DWR */
 499:Generated_Source\PSoC5/cyfitter_cfg.c **** 	ClockSetup();
 696              		.loc 1 499 0
 697 00c8 FFF7FEFF 		bl	ClockSetup
 698              	.LVL55:
 500:Generated_Source\PSoC5/cyfitter_cfg.c **** 	/* Set Flash Cycles based on newly configured 24.00MHz Bus Clock. */
 501:Generated_Source\PSoC5/cyfitter_cfg.c **** 	CY_SET_XTND_REG8((void CYFAR *)(CYREG_CACHE_CC_CTL), (((CYDEV_INSTRUCT_CACHE_ENABLED) != 0) ? 0x81
 699              		.loc 1 501 0
 700 00cc 8123     		movs	r3, #129
 701 00ce 3370     		strb	r3, [r6]
 502:Generated_Source\PSoC5/cyfitter_cfg.c **** 	CY_SET_XTND_REG8((void CYFAR *)(CYREG_PANTHER_WAITPIPE), 0x01u);
 702              		.loc 1 502 0
 703 00d0 1C4B     		ldr	r3, .L42+96
 704 00d2 1D70     		strb	r5, [r3]
 503:Generated_Source\PSoC5/cyfitter_cfg.c **** 
 504:Generated_Source\PSoC5/cyfitter_cfg.c **** 	/* Perform basic analog initialization to defaults */
 505:Generated_Source\PSoC5/cyfitter_cfg.c **** 	AnalogSetDefault();
 705              		.loc 1 505 0
 706 00d4 FFF7FEFF 		bl	AnalogSetDefault
 707              	.LVL56:
 506:Generated_Source\PSoC5/cyfitter_cfg.c **** 
 507:Generated_Source\PSoC5/cyfitter_cfg.c **** 	/* Configure alternate active mode */
 508:Generated_Source\PSoC5/cyfitter_cfg.c **** 	CYCONFIGCPY((void CYFAR *)CYDEV_PM_STBY_BASE, (const void CYFAR *)CYDEV_PM_ACT_BASE, 14u);
ARM GAS  C:\Users\THOMPS~1\AppData\Local\Temp\ccfH9zX7.s 			page 23


 708              		.loc 1 508 0
 709 00d8 1B48     		ldr	r0, .L42+100
 710 00da 2146     		mov	r1, r4
 711 00dc 0E22     		movs	r2, #14
 712 00de FFF7FEFF 		bl	CYCONFIGCPY
 713              	.LVL57:
 714 00e2 70BD     		pop	{r4, r5, r6, pc}
 715              	.L43:
 716              		.align	2
 717              	.L42:
 718 00e4 E8460040 		.word	1073759976
 719 00e8 00000000 		.word	.LANCHOR0
 720 00ec 58000048 		.word	1207959640
 721 00f0 83580040 		.word	1073764483
 722 00f4 03500140 		.word	1073827843
 723 00f8 A0430040 		.word	1073759136
 724 00fc 02510040 		.word	1073762562
 725 0100 D8000048 		.word	1207959768
 726 0104 C2510040 		.word	1073762754
 727 0108 E0000048 		.word	1207959776
 728 010c 12510040 		.word	1073762578
 729 0110 E8000048 		.word	1207959784
 730 0114 22510040 		.word	1073762594
 731 0118 F0000048 		.word	1207959792
 732 011c 32510040 		.word	1073762610
 733 0120 F8000048 		.word	1207959800
 734 0124 42510040 		.word	1073762626
 735 0128 00010048 		.word	1207959808
 736 012c 52510040 		.word	1073762642
 737 0130 08010048 		.word	1207959816
 738 0134 62510040 		.word	1073762658
 739 0138 10010048 		.word	1207959824
 740 013c 22430040 		.word	1073759010
 741 0140 00480040 		.word	1073760256
 742 0144 04000840 		.word	1074266116
 743 0148 B0430040 		.word	1073759152
 744              		.cfi_endproc
 745              	.LFE10:
 746              		.size	cyfitter_cfg, .-cyfitter_cfg
 747              		.global	lfOutADC_AMux__maskTable
 748              		.global	lfOutADC_AMux__addrTable
 749              		.section	.rodata
 750              		.align	2
 751              		.set	.LANCHOR0,. + 0
 752              		.type	lfOutADC_AMux__addrTable, %object
 753              		.size	lfOutADC_AMux__addrTable, 8
 754              	lfOutADC_AMux__addrTable:
 755 0000 035B0040 		.word	1073765123
 756 0004 24430040 		.word	1073759012
 757              		.type	lfOutADC_AMux__maskTable, %object
 758              		.size	lfOutADC_AMux__maskTable, 2
 759              	lfOutADC_AMux__maskTable:
 760 0008 40       		.byte	64
 761 0009 00       		.byte	0
 762 000a 0000     		.space	2
 763              		.type	cfg_memset_list.4896, %object
 764              		.size	cfg_memset_list.4896, 36
ARM GAS  C:\Users\THOMPS~1\AppData\Local\Temp\ccfH9zX7.s 			page 24


 765              	cfg_memset_list.4896:
 766 000c F0510040 		.word	1073762800
 767 0010 1000     		.short	16
 768 0012 00000140 		.4byte	1073807360
 769 0016 0010     		.short	4096
 770 0018 00140140 		.word	1073812480
 771 001c 0008     		.short	2048
 772 001e 00400140 		.4byte	1073823744
 773 0022 000A     		.short	2560
 774 0024 004C0140 		.word	1073826816
 775 0028 0002     		.short	512
 776 002a 00500140 		.4byte	1073827840
 777 002e 2000     		.short	32
 778              		.text
 779              	.Letext0:
 780              		.file 2 "c:\\program files (x86)\\cypress\\psoc creator\\4.0\\psoc creator\\import\\gnu\\arm\\4.9.
 781              		.file 3 "Generated_Source\\PSoC5\\cytypes.h"
 782              		.file 4 "Generated_Source\\PSoC5\\CyLib.h"