ARM GAS  C:\Users\THOMPS~1\AppData\Local\Temp\ccpMTeFg.s 			page 1


   1              		.syntax unified
   2              		.cpu cortex-m3
   3              		.fpu softvfp
   4              		.eabi_attribute 20, 1
   5              		.eabi_attribute 21, 1
   6              		.eabi_attribute 23, 3
   7              		.eabi_attribute 24, 1
   8              		.eabi_attribute 25, 1
   9              		.eabi_attribute 26, 1
  10              		.eabi_attribute 30, 1
  11              		.eabi_attribute 34, 1
  12              		.eabi_attribute 18, 4
  13              		.thumb
  14              		.file	"main.c"
  15              		.text
  16              	.Ltext0:
  17              		.cfi_sections	.debug_frame
  18              		.global	__aeabi_i2d
  19              		.global	__aeabi_ddiv
  20              		.global	__aeabi_dmul
  21              		.global	__aeabi_dsub
  22              		.global	__aeabi_d2iz
  23              		.global	__aeabi_dadd
  24              		.section	.text.main,"ax",%progbits
  25              		.align	2
  26              		.global	main
  27              		.thumb
  28              		.thumb_func
  29              		.type	main, %function
  30              	main:
  31              	.LFB63:
  32              		.file 1 "main.c"
   1:main.c        **** /* ================================================================
   2:main.c        **** 
   3:main.c        **** Automated Laser Frequency Relocking Procedure
   4:main.c        **** Original Programmer: Denton Wu
   5:main.c        **** Last modified: 14 June, 2018
   6:main.c        **** 
   7:main.c        **** Notes:
   8:main.c        **** 
   9:main.c        **** Greetings relocker user or improver. This is the main relocker algorithm.
  10:main.c        **** 
  11:main.c        **** There are two parts to the code: the setup and the relocking procedure. Because this algorithm
  12:main.c        **** needs the ability to work with three different loop filter output ranges, it offers three 
  13:main.c        **** relocking procedures, one for each loop filter model. The user can cue the box to run any one of th
  14:main.c        **** loop filter in use. Effectively, these procedures are the same except for the ADC and DAC voltage l
  15:main.c        **** 
  16:main.c        **** On your journeys through this code, remember:
  17:main.c        **** You got a fast car.
  18:main.c        **** 
  19:main.c        **** ==================================================================*/
  20:main.c        **** 
  21:main.c        **** 
  22:main.c        **** #include "project.h"
  23:main.c        **** #include <stdbool.h>
  24:main.c        **** 
  25:main.c        ****     int main(void) {
ARM GAS  C:\Users\THOMPS~1\AppData\Local\Temp\ccpMTeFg.s 			page 2


  33              		.loc 1 25 0
  34              		.cfi_startproc
  35              		@ args = 0, pretend = 0, frame = 32
  36              		@ frame_needed = 0, uses_anonymous_args = 0
  37 0000 2DE9F04F 		push	{r4, r5, r6, r7, r8, r9, r10, fp, lr}
  38              		.cfi_def_cfa_offset 36
  39              		.cfi_offset 4, -36
  40              		.cfi_offset 5, -32
  41              		.cfi_offset 6, -28
  42              		.cfi_offset 7, -24
  43              		.cfi_offset 8, -20
  44              		.cfi_offset 9, -16
  45              		.cfi_offset 10, -12
  46              		.cfi_offset 11, -8
  47              		.cfi_offset 14, -4
  48 0004 89B0     		sub	sp, sp, #36
  49              		.cfi_def_cfa_offset 72
  26:main.c        ****         CyGlobalIntEnable
  50              		.loc 1 26 0
  51              	@ 26 "main.c" 1
  52 0006 62B6     		CPSIE   i
  53              	@ 0 "" 2
  54              	.LVL0:
  27:main.c        **** 
  28:main.c        ****         /*Variable setup and pin initialization*/
  29:main.c        **** 
  30:main.c        ****         int i = 0;
  31:main.c        ****         int j = 0;
  32:main.c        ****         int check = 0;
  33:main.c        **** 
  34:main.c        ****         int modeOut = 0;
  35:main.c        ****         int upRail = 0;
  36:main.c        ****         int lowRail = 0;
  37:main.c        ****         int sweepHigh = 0;
  38:main.c        ****         double sweepCenter = 0.0;
  39:main.c        ****         int courseCenter = 0;
  40:main.c        ****         int courseLow = 0;
  41:main.c        ****         int courseHigh = 0;
  42:main.c        ****         double fineProp = 0.0;
  43:main.c        ****         int fineCenter = 0;
  44:main.c        ****         int fineLow = 0;
  45:main.c        ****         int fineHigh = 0;
  46:main.c        **** 
  47:main.c        ****         int nowEMonVal = 4000;
  48:main.c        ****         int lowVal = 4000;
  49:main.c        ****         int dev = 0;
  50:main.c        ****         int thresSubtract = 0;
  51:main.c        ****         int detectThres = 0;
  52:main.c        **** 
  53:main.c        ****         int whichLoop = 0;
  54:main.c        ****         int decideLoop = 0;
  55:main.c        **** 
  56:main.c        ****         int lockFail = 0;
  57:main.c        **** 
  58:main.c        ****         checkLight_Write(1); //checkLight is simply the onboard LED. It has no consequence to the r
  55              		.loc 1 58 0
  56              		.thumb
ARM GAS  C:\Users\THOMPS~1\AppData\Local\Temp\ccpMTeFg.s 			page 3


  57 0008 0120     		movs	r0, #1
  58 000a FFF7FEFF 		bl	checkLight_Write
  59              	.LVL1:
  59:main.c        **** 
  60:main.c        ****         yellowLight_Write(0);
  60              		.loc 1 60 0
  61 000e 0020     		movs	r0, #0
  62 0010 FFF7FEFF 		bl	yellowLight_Write
  63              	.LVL2:
  61:main.c        ****         greenLight_Write(0);
  64              		.loc 1 61 0
  65 0014 0020     		movs	r0, #0
  66 0016 FFF7FEFF 		bl	greenLight_Write
  67              	.LVL3:
  62:main.c        ****         redLight_Write(0);
  68              		.loc 1 62 0
  69 001a 0020     		movs	r0, #0
  70 001c FFF7FEFF 		bl	redLight_Write
  71              	.LVL4:
  63:main.c        ****         switches_Write(0); //Writing to switches writes to all pins attached. For this program, tha
  72              		.loc 1 63 0
  73 0020 0020     		movs	r0, #0
  74 0022 FFF7FEFF 		bl	switches_Write
  75              	.LVL5:
  64:main.c        **** 
  65:main.c        ****         eMonADC_Start(); /*Each ADC and DAC has startup procedures to run. This is one of them, for
  76              		.loc 1 65 0
  77 0026 FFF7FEFF 		bl	eMonADC_Start
  78              	.LVL6:
  66:main.c        **** 
  67:main.c        ****         /*When the user turns on the box, the microprocessor runs the code up to here. The followin
  68:main.c        ****           prevents the program from moving on until the user sets the "Lock in Range" switch to "Lo
  69:main.c        ****           set the switch until having already selected for the loop filter range.*/
  70:main.c        ****         
  71:main.c        ****         while (lockIn_Read() == 1) {
  79              		.loc 1 71 0
  80 002a 02E0     		b	.L2
  81              	.L3:
  72:main.c        ****             CyDelay(50);
  82              		.loc 1 72 0
  83 002c 3220     		movs	r0, #50
  84 002e FFF7FEFF 		bl	CyDelay
  85              	.LVL7:
  86              	.L2:
  71:main.c        ****             CyDelay(50);
  87              		.loc 1 71 0
  88 0032 FFF7FEFF 		bl	lockIn_Read
  89              	.LVL8:
  90 0036 0128     		cmp	r0, #1
  91 0038 F8D0     		beq	.L3
  92 003a 0023     		movs	r3, #0
  93 003c 0193     		str	r3, [sp, #4]
  94 003e 9946     		mov	r9, r3
  95 0040 1C46     		mov	r4, r3
  96 0042 4FF47A62 		mov	r2, #4000
  97 0046 0792     		str	r2, [sp, #28]
  98 0048 1F46     		mov	r7, r3
ARM GAS  C:\Users\THOMPS~1\AppData\Local\Temp\ccpMTeFg.s 			page 4


  99 004a 0493     		str	r3, [sp, #16]
 100 004c 9B46     		mov	fp, r3
 101 004e 0393     		str	r3, [sp, #12]
 102 0050 9A46     		mov	r10, r3
 103 0052 0693     		str	r3, [sp, #24]
 104 0054 0593     		str	r3, [sp, #20]
 105 0056 1DE1     		b	.L4
 106              	.LVL9:
 107              	.L9:
  73:main.c        ****         }
  74:main.c        **** 
  75:main.c        ****         for (;;) {
  76:main.c        ****             
  77:main.c        ****         /*Once the user sets "Lock in Range" to "Lock", the microprocessor reads in which range the
  78:main.c        ****             channels connecting the microprocessor output level shifter bias to the microprocessor 
  79:main.c        ****             Each channel is connected to one pin: either setting8V, setting22V, or setting28V. Only
  80:main.c        ****             5 V. The microprocessor enters the loop whose detection pin reads its channel to be hig
  81:main.c        ****             relevant loop filter model.*/
  82:main.c        **** 
  83:main.c        ****             while (setting8V_Read() == 1) {
  84:main.c        ****                 
  85:main.c        ****                 /*Once the microprocessor knows the loop filter model and has entered into the appr
  86:main.c        ****                 to read in the desired error signal's parameters and calibrate its code to relock t
  87:main.c        ****                 The user should trigger the calibration procedure immediately after locking in the 
  88:main.c        ****                 user will have preset the "Choose Mode" switch to the "Choose" position before turn
  89:main.c        ****                 procedure will start immediately after range lock in.*/
  90:main.c        ****                 
  91:main.c        ****                 while (calibratePin_Read() == 1) {
  92:main.c        **** 
  93:main.c        ****                     greenLight_Write(0);
 108              		.loc 1 93 0
 109 0058 0020     		movs	r0, #0
 110 005a FFF7FEFF 		bl	greenLight_Write
 111              	.LVL10:
  94:main.c        ****                     yellowLight_Write(1);
 112              		.loc 1 94 0
 113 005e 0120     		movs	r0, #1
 114 0060 FFF7FEFF 		bl	yellowLight_Write
 115              	.LVL11:
  95:main.c        **** 
  96:main.c        ****                     /*The microprocessor needs two features of the error signal. The first is the s
  97:main.c        ****                     This loop measures the maximum and sets lowVal to that maximum, in terms of the
  98:main.c        ****                     The ADC's lowest reading corresponds to the error signal's highest voltage beca
  99:main.c        ****                     shifter inverts the error signal. Flipping the "Error Signal Sampling" switch t
 100:main.c        ****                     
 101:main.c        ****                     if (thresSample_Read() == 1) {
 116              		.loc 1 101 0
 117 0064 FFF7FEFF 		bl	thresSample_Read
 118              	.LVL12:
 119 0068 0128     		cmp	r0, #1
 120 006a 06D1     		bne	.L5
 102:main.c        ****                         eMonADC_StartConvert();
 121              		.loc 1 102 0
 122 006c FFF7FEFF 		bl	eMonADC_StartConvert
 123              	.LVL13:
 103:main.c        ****                         nowEMonVal = eMonADC_GetResult16();
 124              		.loc 1 103 0
ARM GAS  C:\Users\THOMPS~1\AppData\Local\Temp\ccpMTeFg.s 			page 5


 125 0070 FFF7FEFF 		bl	eMonADC_GetResult16
 126              	.LVL14:
 104:main.c        **** 
 105:main.c        ****                         if (nowEMonVal < lowVal) {
 127              		.loc 1 105 0
 128 0074 B042     		cmp	r0, r6
 129 0076 00DA     		bge	.L5
 106:main.c        ****                             lowVal = nowEMonVal;
 130              		.loc 1 106 0
 131 0078 0646     		mov	r6, r0
 132              	.LVL15:
 133              	.L5:
 107:main.c        ****                         }
 108:main.c        ****                     }
 109:main.c        ****                     
 110:main.c        ****                     /*Next, we use lowVal to set the detection threshold voltage. The error signal 
 111:main.c        ****                     signal's 0 V up to 2 V, which corresponds to an ADC parameter of 2000. This cod
 112:main.c        ****                     variable, detectThres, to be half the error signal maximum value.*/
 113:main.c        **** 
 114:main.c        ****                     dev = 2000 - lowVal; //From center value
 134              		.loc 1 114 0
 135 007a C6F5FA63 		rsb	r3, r6, #2000
 136              	.LVL16:
 115:main.c        ****                     thresSubtract = dev / 2;
 137              		.loc 1 115 0
 138 007e 03EBD373 		add	r3, r3, r3, lsr #31
 139              	.LVL17:
 140 0082 5C10     		asrs	r4, r3, #1
 141              	.LVL18:
 116:main.c        ****                     detectThres = 2000 - thresSubtract;
 142              		.loc 1 116 0
 143 0084 C4F5FA64 		rsb	r4, r4, #2000
 144              	.LVL19:
 117:main.c        ****                     
 118:main.c        ****                     /*After sampling the error signal, the user should lock the cavity.
 119:main.c        ****                     The second relevant error signal feature is the loop filter voltage associated 
 120:main.c        ****                     error signal. With the cavity locked, the next three lines can read this in.*/
 121:main.c        **** 
 122:main.c        ****                     lfOutADC_Start();
 145              		.loc 1 122 0
 146 0088 FFF7FEFF 		bl	lfOutADC_Start
 147              	.LVL20:
 123:main.c        ****                     lfOutADC_StartConvert();
 148              		.loc 1 123 0
 149 008c FFF7FEFF 		bl	lfOutADC_StartConvert
 150              	.LVL21:
 124:main.c        ****                     modeOut = lfOutADC_Read32();
 151              		.loc 1 124 0
 152 0090 FFF7FEFF 		bl	lfOutADC_Read32
 153              	.LVL22:
 125:main.c        **** 
 126:main.c        ****                     /*The microprocessor now knows what loop filter output voltage corresponds to "
 127:main.c        ****                     It needs to calculate upper and lower voltage bounds to this lock voltage. Thes
 128:main.c        ****                     inside of which the microprocessor thinks lock voltage sits. I've chosen to set
 129:main.c        ****                     above and below the in lock voltage, as modes usually don't drift any further t
 130:main.c        ****                     to the ADC parameter 940 in the 8 V mode.*/
 131:main.c        ****                     
ARM GAS  C:\Users\THOMPS~1\AppData\Local\Temp\ccpMTeFg.s 			page 6


 132:main.c        ****                     upRail = modeOut + 940;
 154              		.loc 1 132 0
 155 0094 00F56B72 		add	r2, r0, #940
 156 0098 0592     		str	r2, [sp, #20]
 157              	.LVL23:
 133:main.c        ****                     lowRail = modeOut - 940;
 158              		.loc 1 133 0
 159 009a A0F56B73 		sub	r3, r0, #940
 160 009e 0693     		str	r3, [sp, #24]
 161              	.LVL24:
 134:main.c        ****                     
 135:main.c        ****                     /*Now the fun begins. When attempting to relock, the microprocessor sweeps the 
 136:main.c        ****                     the region in which it thinks the lock voltage lies. That voltage region is the
 137:main.c        ****                     150 mV above and below the current loop filter voltage. It needs to set its swe
 138:main.c        ****                     as well.
 139:main.c        ****                     
 140:main.c        ****                     Unfortunately, the DAC parameters are not the same as the ADC parameters. We ne
 141:main.c        ****                     parameters (one for the courseDAC and one for the fineDAC) that correspond to t
 142:main.c        ****                     and the two DAC parameters that correspond to the upper sweep bound at +150 mV.
 143:main.c        ****                     
 144:main.c        ****                     The calculation is a bit involved. Consult the user manual for details. The fol
 145:main.c        ****                     the sweep bounds and assign them to courseLow, fineLow, courseHigh, and fineHig
 146:main.c        **** 
 147:main.c        ****                     sweepCenter = 256 * (((double) modeOut) / ((double) 53595)) - 12; /*At times th
 162              		.loc 1 147 0
 163 00a0 FFF7FEFF 		bl	__aeabi_i2d
 164              	.LVL25:
 165 00a4 D0A3     		adr	r3, .L123
 166 00a6 D3E90023 		ldrd	r2, [r3]
 167 00aa FFF7FEFF 		bl	__aeabi_ddiv
 168              	.LVL26:
 169 00ae 0022     		movs	r2, #0
 170 00b0 D14B     		ldr	r3, .L123+16
 171 00b2 FFF7FEFF 		bl	__aeabi_dmul
 172              	.LVL27:
 173 00b6 0022     		movs	r2, #0
 174 00b8 D04B     		ldr	r3, .L123+20
 175 00ba FFF7FEFF 		bl	__aeabi_dsub
 176              	.LVL28:
 177 00be 8046     		mov	r8, r0
 178              	.LVL29:
 179 00c0 8946     		mov	r9, r1
 180              	.LVL30:
 148:main.c        ****                                                                                         can misalig
 149:main.c        ****                                                                                         misalignmen
 150:main.c        ****                                                                                         variable by
 151:main.c        ****                     courseCenter = (int) sweepCenter;
 181              		.loc 1 151 0
 182 00c2 FFF7FEFF 		bl	__aeabi_d2iz
 183              	.LVL31:
 184 00c6 0546     		mov	r5, r0
 185              	.LVL32:
 152:main.c        ****                     fineProp = sweepCenter - courseCenter;
 186              		.loc 1 152 0
 187 00c8 FFF7FEFF 		bl	__aeabi_i2d
 188              	.LVL33:
 189 00cc 0246     		mov	r2, r0
ARM GAS  C:\Users\THOMPS~1\AppData\Local\Temp\ccpMTeFg.s 			page 7


 190 00ce 0B46     		mov	r3, r1
 191 00d0 4046     		mov	r0, r8
 192 00d2 4946     		mov	r1, r9
 193 00d4 FFF7FEFF 		bl	__aeabi_dsub
 194              	.LVL34:
 153:main.c        ****                     fineCenter = (int)((fineProp * ((double) 255)) + 0.5);
 195              		.loc 1 153 0
 196 00d8 C5A3     		adr	r3, .L123+8
 197 00da D3E90023 		ldrd	r2, [r3]
 198 00de FFF7FEFF 		bl	__aeabi_dmul
 199              	.LVL35:
 200 00e2 0022     		movs	r2, #0
 201 00e4 C64B     		ldr	r3, .L123+24
 202 00e6 FFF7FEFF 		bl	__aeabi_dadd
 203              	.LVL36:
 204 00ea FFF7FEFF 		bl	__aeabi_d2iz
 205              	.LVL37:
 154:main.c        **** 
 155:main.c        ****                     if (fineCenter > 203) {
 206              		.loc 1 155 0
 207 00ee CB28     		cmp	r0, #203
 208 00f0 09DD     		ble	.L6
 156:main.c        ****                         courseLow = courseCenter - 4;
 209              		.loc 1 156 0
 210 00f2 A5F10408 		sub	r8, r5, #4
 211              	.LVL38:
 157:main.c        ****                         courseHigh = courseCenter + 5;
 212              		.loc 1 157 0
 213 00f6 05F1050B 		add	fp, r5, #5
 214              	.LVL39:
 158:main.c        ****                         sweepHigh = courseCenter + 6;
 215              		.loc 1 158 0
 216 00fa 0635     		adds	r5, r5, #6
 217              	.LVL40:
 159:main.c        **** 
 160:main.c        ****                         fineLow = fineCenter - 204;
 218              		.loc 1 160 0
 219 00fc A0F1CC0A 		sub	r10, r0, #204
 220              	.LVL41:
 161:main.c        ****                         fineHigh = fineCenter - 50;
 221              		.loc 1 161 0
 222 0100 A0F13207 		sub	r7, r0, #50
 223              	.LVL42:
 224 0104 16E0     		b	.L7
 225              	.LVL43:
 226              	.L6:
 162:main.c        ****                                                                     /*Set +1 higher than it needs t
 163:main.c        ****                                                                     the for loop to sweep through t
 164:main.c        ****                                                                     necessary high value*/
 165:main.c        ****                     } else if (fineCenter > 51 && fineCenter <= 203) {
 227              		.loc 1 165 0
 228 0106 A0F13403 		sub	r3, r0, #52
 229 010a 972B     		cmp	r3, #151
 230 010c 09D8     		bhi	.L8
 166:main.c        ****                         courseLow = courseCenter - 5;
 231              		.loc 1 166 0
 232 010e A5F10508 		sub	r8, r5, #5
ARM GAS  C:\Users\THOMPS~1\AppData\Local\Temp\ccpMTeFg.s 			page 8


 233              	.LVL44:
 167:main.c        ****                         courseHigh = courseCenter + 5;
 234              		.loc 1 167 0
 235 0112 05F1050B 		add	fp, r5, #5
 236              	.LVL45:
 168:main.c        ****                         sweepHigh = courseCenter + 6;
 237              		.loc 1 168 0
 238 0116 0635     		adds	r5, r5, #6
 239              	.LVL46:
 169:main.c        **** 
 170:main.c        ****                         fineLow = fineCenter + 51;
 240              		.loc 1 170 0
 241 0118 00F1330A 		add	r10, r0, #51
 242              	.LVL47:
 171:main.c        ****                         fineHigh = fineCenter - 50;
 243              		.loc 1 171 0
 244 011c A0F13207 		sub	r7, r0, #50
 245              	.LVL48:
 246 0120 08E0     		b	.L7
 247              	.LVL49:
 248              	.L8:
 172:main.c        ****                                                                     /*Set +1 higher than it needs t
 173:main.c        ****                                                                      the for loop to sweep through 
 174:main.c        ****                                                                      necessary high value*/
 175:main.c        ****                     } else {
 176:main.c        ****                         courseLow = courseCenter - 5;
 249              		.loc 1 176 0
 250 0122 A5F10508 		sub	r8, r5, #5
 251              	.LVL50:
 177:main.c        ****                         courseHigh = courseCenter + 4;
 252              		.loc 1 177 0
 253 0126 05F1040B 		add	fp, r5, #4
 254              	.LVL51:
 178:main.c        ****                         sweepHigh = courseCenter + 5;
 255              		.loc 1 178 0
 256 012a 0535     		adds	r5, r5, #5
 257              	.LVL52:
 179:main.c        **** 
 180:main.c        ****                         fineLow = fineCenter + 51;
 258              		.loc 1 180 0
 259 012c 00F1330A 		add	r10, r0, #51
 260              	.LVL53:
 181:main.c        ****                         fineHigh = fineCenter + 205;
 261              		.loc 1 181 0
 262 0130 00F1CD07 		add	r7, r0, #205
 263              	.LVL54:
 264              	.L7:
 182:main.c        ****                                                                     /*Set +1 higher than it needs t
 183:main.c        ****                                                                     the for loop to sweep through t
 184:main.c        ****                                                                     necessary high value*/
 185:main.c        ****                     }
 186:main.c        ****                     
 187:main.c        ****                     //The sweep boundaries are now assigned.
 188:main.c        **** 
 189:main.c        ****                     whichLoop = 1;  //For tracking which voltage sweep loop to enter
 190:main.c        ****                     decideLoop = sweepHigh - courseLow; /*This variable tells the code how many ful
 265              		.loc 1 190 0
ARM GAS  C:\Users\THOMPS~1\AppData\Local\Temp\ccpMTeFg.s 			page 9


 266 0134 C8EB0503 		rsb	r3, r8, r5
 267 0138 0193     		str	r3, [sp, #4]
 268              	.LVL55:
 189:main.c        ****                     decideLoop = sweepHigh - courseLow; /*This variable tells the code how many ful
 269              		.loc 1 189 0
 270 013a 4FF00109 		mov	r9, #1
 271              	.LVL56:
 272              	.L29:
  91:main.c        **** 
 273              		.loc 1 91 0
 274 013e FFF7FEFF 		bl	calibratePin_Read
 275              	.LVL57:
 276 0142 0128     		cmp	r0, #1
 277 0144 88D0     		beq	.L9
 278 0146 CDF80C80 		str	r8, [sp, #12]
 279 014a CDF810A0 		str	r10, [sp, #16]
 280 014e AA46     		mov	r10, r5
 281              	.LVL58:
 282 0150 0796     		str	r6, [sp, #28]
 191:main.c        ****                                                         signal spans, and thus the number of full f
 192:main.c        ****                 }
 193:main.c        **** 
 194:main.c        ****                 yellowLight_Write(0);
 283              		.loc 1 194 0
 284 0152 0020     		movs	r0, #0
 285 0154 FFF7FEFF 		bl	yellowLight_Write
 286              	.LVL59:
 195:main.c        **** 
 196:main.c        ****                 //Board is in watch mode while outside the loop below.
 197:main.c        ****                 //Board is in relocking mode while inside the loop below.
 198:main.c        **** 
 199:main.c        ****                 lfOutADC_StartConvert();
 287              		.loc 1 199 0
 288 0158 FFF7FEFF 		bl	lfOutADC_StartConvert
 289              	.LVL60:
 200:main.c        **** 
 201:main.c        ****                 while (lfOutADC_GetResult32() > upRail || lfOutADC_GetResult32() < lowRail) {   //D
 290              		.loc 1 201 0
 291 015c 83E0     		b	.L10
 292              	.LVL61:
 293              	.L28:
 202:main.c        **** 
 203:main.c        ****                     //Switch to search mode
 204:main.c        **** 
 205:main.c        ****                     greenLight_Write(0);
 294              		.loc 1 205 0
 295 015e 0020     		movs	r0, #0
 296 0160 FFF7FEFF 		bl	greenLight_Write
 297              	.LVL62:
 206:main.c        ****                     switches_Write(1);
 298              		.loc 1 206 0
 299 0164 0120     		movs	r0, #1
 300 0166 FFF7FEFF 		bl	switches_Write
 301              	.LVL63:
 207:main.c        **** 
 208:main.c        ****                     check = 0;
 209:main.c        ****                     lockFail = 0;   /*This variable tracks how many times the microprocessor has sw
ARM GAS  C:\Users\THOMPS~1\AppData\Local\Temp\ccpMTeFg.s 			page 10


 210:main.c        ****                                     the expected lock voltage and failed.*/
 211:main.c        **** 
 212:main.c        ****                     courseDAC_Start();
 302              		.loc 1 212 0
 303 016a FFF7FEFF 		bl	courseDAC_Start
 304              	.LVL64:
 213:main.c        ****                     fineDAC_Start();
 305              		.loc 1 213 0
 306 016e FFF7FEFF 		bl	fineDAC_Start
 307              	.LVL65:
 214:main.c        ****                     eMonADC_StartConvert();
 308              		.loc 1 214 0
 309 0172 FFF7FEFF 		bl	eMonADC_StartConvert
 310              	.LVL66:
 215:main.c        **** 
 216:main.c        ****                     //The following for loop is the voltage sweep. It is comprised of three smaller
 217:main.c        **** 
 218:main.c        ****                     for (i = courseLow; i < sweepHigh; i++) {
 311              		.loc 1 218 0
 312 0176 DDF80C80 		ldr	r8, [sp, #12]
 209:main.c        ****                                     the expected lock voltage and failed.*/
 313              		.loc 1 209 0
 314 017a 0023     		movs	r3, #0
 315 017c 0293     		str	r3, [sp, #8]
 208:main.c        ****                     lockFail = 0;   /*This variable tracks how many times the microprocessor has sw
 316              		.loc 1 208 0
 317 017e 1E46     		mov	r6, r3
 318              		.loc 1 218 0
 319 0180 6FE0     		b	.L11
 320              	.LVL67:
 321              	.L27:
 219:main.c        ****                         courseDAC_SetValue(i);
 322              		.loc 1 219 0
 323 0182 5FFA88F0 		uxtb	r0, r8
 324 0186 FFF7FEFF 		bl	courseDAC_SetValue
 325              	.LVL68:
 220:main.c        ****                         
 221:main.c        ****                         /*This is the first fineDAC sweep to run. It begins right on fineLow so tha
 222:main.c        ****                         hits the exact lower voltage bound of -150 mV.*/
 223:main.c        **** 
 224:main.c        ****                         if (whichLoop == 1) {
 326              		.loc 1 224 0
 327 018a B9F1010F 		cmp	r9, #1
 328 018e 1BD1     		bne	.L116
 329 0190 14E0     		b	.L84
 330              	.LVL69:
 331              	.L16:
 225:main.c        ****                             for (j = fineLow; j < 256; j++) {
 226:main.c        ****                                 fineDAC_SetValue(j);
 332              		.loc 1 226 0
 333 0192 E8B2     		uxtb	r0, r5
 334 0194 FFF7FEFF 		bl	fineDAC_SetValue
 335              	.LVL70:
 227:main.c        ****                                 
 228:main.c        ****                                 /*These two if statements check whether the error signal has passed
 229:main.c        ****                                 out and back in again. The variable "check" tracks whether the erro
 230:main.c        ****                                 already passed the detection threshold once. If it is 1 when the er
ARM GAS  C:\Users\THOMPS~1\AppData\Local\Temp\ccpMTeFg.s 			page 11


 231:main.c        ****                                 the detection threshold the second time, the microprocessor knows t
 232:main.c        ****                                 the central linear region and the cavity is ready for lock.*/
 233:main.c        **** 
 234:main.c        ****                                 if (eMonADC_GetResult16() < detectThres)
 336              		.loc 1 234 0
 337 0198 FFF7FEFF 		bl	eMonADC_GetResult16
 338              	.LVL71:
 339 019c A042     		cmp	r0, r4
 340 019e 00DA     		bge	.L14
 235:main.c        ****                                     check = 1;
 341              		.loc 1 235 0
 342 01a0 0126     		movs	r6, #1
 343              	.LVL72:
 344              	.L14:
 236:main.c        **** 
 237:main.c        ****                                 if (eMonADC_GetResult16() > detectThres && check == 1) {
 345              		.loc 1 237 0
 346 01a2 FFF7FEFF 		bl	eMonADC_GetResult16
 347              	.LVL73:
 348 01a6 A042     		cmp	r0, r4
 349 01a8 03DD     		ble	.L15
 350              		.loc 1 237 0 is_stmt 0 discriminator 1
 351 01aa 16B1     		cbz	r6, .L15
 238:main.c        ****                                     j = 300;    /*Once the microprocessor sees that the error signa
 352              		.loc 1 238 0 is_stmt 1
 353 01ac 4FF49675 		mov	r5, #300
 354              	.LVL74:
 239:main.c        ****                                                 region, it sets the iteration variables to values t
 240:main.c        ****                                                 courseDAC and fineDAC loop conditions.*/
 241:main.c        ****                                     i = 300;
 355              		.loc 1 241 0
 356 01b0 A846     		mov	r8, r5
 357              	.LVL75:
 358              	.L15:
 242:main.c        ****                                 }
 243:main.c        **** 
 244:main.c        ****                                 CyDelayUs(0);   /*CyDelay() and CyDelayUs() are delays in the code.
 359              		.loc 1 244 0 discriminator 2
 360 01b2 0020     		movs	r0, #0
 361 01b4 FFF7FEFF 		bl	CyDelayUs
 362              	.LVL76:
 225:main.c        ****                                 fineDAC_SetValue(j);
 363              		.loc 1 225 0 discriminator 2
 364 01b8 0135     		adds	r5, r5, #1
 365              	.LVL77:
 366 01ba 00E0     		b	.L12
 367              	.LVL78:
 368              	.L84:
 369 01bc 049D     		ldr	r5, [sp, #16]
 370              	.L12:
 371              	.LVL79:
 225:main.c        ****                                 fineDAC_SetValue(j);
 372              		.loc 1 225 0 is_stmt 0 discriminator 1
 373 01be FF2D     		cmp	r5, #255
 374 01c0 E7DD     		ble	.L16
 245:main.c        ****                                                 wait for a certain amount of time set by their argu
 246:main.c        ****                                                 slows down the relocking sweep, which can improve r
ARM GAS  C:\Users\THOMPS~1\AppData\Local\Temp\ccpMTeFg.s 			page 12


 247:main.c        ****                                                 is not working.*/
 248:main.c        ****                                                 
 249:main.c        ****                             }
 250:main.c        **** 
 251:main.c        ****                             whichLoop++;    //Adding to whichLoop tells the code that the first fin
 375              		.loc 1 251 0 is_stmt 1
 376 01c2 09F10109 		add	r9, r9, #1
 377              	.LVL80:
 378 01c6 3CE0     		b	.L17
 379              	.LVL81:
 380              	.L116:
 252:main.c        ****                                             //and that the full sweeps should be run next. It knows
 253:main.c        ****                                             //based on the decideLoop variable.
 254:main.c        ****                             
 255:main.c        ****                         } else if (whichLoop < decideLoop && whichLoop > 1) {
 381              		.loc 1 255 0
 382 01c8 019B     		ldr	r3, [sp, #4]
 383 01ca 9945     		cmp	r9, r3
 384 01cc 34DA     		bge	.L87
 385              		.loc 1 255 0 is_stmt 0 discriminator 1
 386 01ce B9F1010F 		cmp	r9, #1
 387 01d2 16DC     		bgt	.L88
 388 01d4 0025     		movs	r5, #0
 389 01d6 30E0     		b	.L18
 390              	.LVL82:
 391              	.L22:
 256:main.c        ****                             for (j = 0; j < 256; j++) {
 257:main.c        ****                                 fineDAC_SetValue(j);
 392              		.loc 1 257 0 is_stmt 1
 393 01d8 E8B2     		uxtb	r0, r5
 394 01da FFF7FEFF 		bl	fineDAC_SetValue
 395              	.LVL83:
 258:main.c        **** 
 259:main.c        ****                                 if (eMonADC_GetResult16() < detectThres)    /*These checks for dete
 396              		.loc 1 259 0
 397 01de FFF7FEFF 		bl	eMonADC_GetResult16
 398              	.LVL84:
 399 01e2 A042     		cmp	r0, r4
 400 01e4 00DA     		bge	.L20
 260:main.c        ****                                                                             happen every sweep step
 261:main.c        ****                                     check = 1;
 401              		.loc 1 261 0
 402 01e6 0126     		movs	r6, #1
 403              	.LVL85:
 404              	.L20:
 262:main.c        **** 
 263:main.c        ****                                 if (eMonADC_GetResult16() > detectThres && check == 1) {
 405              		.loc 1 263 0
 406 01e8 FFF7FEFF 		bl	eMonADC_GetResult16
 407              	.LVL86:
 408 01ec A042     		cmp	r0, r4
 409 01ee 03DD     		ble	.L21
 410              		.loc 1 263 0 is_stmt 0 discriminator 1
 411 01f0 16B1     		cbz	r6, .L21
 264:main.c        ****                                     j = 300;
 412              		.loc 1 264 0 is_stmt 1
 413 01f2 4FF49675 		mov	r5, #300
ARM GAS  C:\Users\THOMPS~1\AppData\Local\Temp\ccpMTeFg.s 			page 13


 414              	.LVL87:
 265:main.c        ****                                     i = 300;
 415              		.loc 1 265 0
 416 01f6 A846     		mov	r8, r5
 417              	.LVL88:
 418              	.L21:
 266:main.c        ****                                 }
 267:main.c        **** 
 268:main.c        ****                                 CyDelayUs(0);
 419              		.loc 1 268 0 discriminator 2
 420 01f8 0020     		movs	r0, #0
 421 01fa FFF7FEFF 		bl	CyDelayUs
 422              	.LVL89:
 256:main.c        ****                                 fineDAC_SetValue(j);
 423              		.loc 1 256 0 discriminator 2
 424 01fe 0135     		adds	r5, r5, #1
 425              	.LVL90:
 426 0200 00E0     		b	.L19
 427              	.LVL91:
 428              	.L88:
 429 0202 0025     		movs	r5, #0
 430              	.L19:
 431              	.LVL92:
 256:main.c        ****                                 fineDAC_SetValue(j);
 432              		.loc 1 256 0 is_stmt 0 discriminator 1
 433 0204 FF2D     		cmp	r5, #255
 434 0206 E7DD     		ble	.L22
 269:main.c        ****                             }
 270:main.c        **** 
 271:main.c        ****                             whichLoop++;
 435              		.loc 1 271 0 is_stmt 1
 436 0208 09F10109 		add	r9, r9, #1
 437              	.LVL93:
 438 020c 19E0     		b	.L17
 439              	.L25:
 272:main.c        ****                             
 273:main.c        ****                         /*Finally, the last fineDAC sweep runs. This one ends on fineHigh, hitting 
 274:main.c        ****                             +150 mV.*/    
 275:main.c        ****                             
 276:main.c        ****                         } else {
 277:main.c        ****                             for (j = 0; j < fineHigh; j++) {
 278:main.c        ****                                 fineDAC_SetValue(j);
 440              		.loc 1 278 0
 441 020e E8B2     		uxtb	r0, r5
 442 0210 FFF7FEFF 		bl	fineDAC_SetValue
 443              	.LVL94:
 279:main.c        **** 
 280:main.c        ****                                 if (eMonADC_GetResult16() < detectThres)
 444              		.loc 1 280 0
 445 0214 FFF7FEFF 		bl	eMonADC_GetResult16
 446              	.LVL95:
 447 0218 A042     		cmp	r0, r4
 448 021a 00DA     		bge	.L23
 281:main.c        ****                                     check = 1;
 449              		.loc 1 281 0
 450 021c 0126     		movs	r6, #1
 451              	.LVL96:
ARM GAS  C:\Users\THOMPS~1\AppData\Local\Temp\ccpMTeFg.s 			page 14


 452              	.L23:
 282:main.c        **** 
 283:main.c        ****                                 if (eMonADC_GetResult16() > detectThres && check == 1) {
 453              		.loc 1 283 0
 454 021e FFF7FEFF 		bl	eMonADC_GetResult16
 455              	.LVL97:
 456 0222 A042     		cmp	r0, r4
 457 0224 03DD     		ble	.L24
 458              		.loc 1 283 0 is_stmt 0 discriminator 1
 459 0226 16B1     		cbz	r6, .L24
 284:main.c        ****                                     j = 300;
 460              		.loc 1 284 0 is_stmt 1
 461 0228 4FF49675 		mov	r5, #300
 462              	.LVL98:
 285:main.c        ****                                     i = 300;
 463              		.loc 1 285 0
 464 022c A846     		mov	r8, r5
 465              	.LVL99:
 466              	.L24:
 286:main.c        ****                                 }
 287:main.c        **** 
 288:main.c        ****                                 CyDelayUs(0);
 467              		.loc 1 288 0 discriminator 2
 468 022e 0020     		movs	r0, #0
 469 0230 FFF7FEFF 		bl	CyDelayUs
 470              	.LVL100:
 277:main.c        ****                                 fineDAC_SetValue(j);
 471              		.loc 1 277 0 discriminator 2
 472 0234 0135     		adds	r5, r5, #1
 473              	.LVL101:
 474 0236 00E0     		b	.L18
 475              	.LVL102:
 476              	.L87:
 477 0238 0025     		movs	r5, #0
 478              	.L18:
 479              	.LVL103:
 277:main.c        ****                                 fineDAC_SetValue(j);
 480              		.loc 1 277 0 is_stmt 0 discriminator 1
 481 023a BD42     		cmp	r5, r7
 482 023c E7DB     		blt	.L25
 289:main.c        ****                             }
 290:main.c        **** 
 291:main.c        ****                             whichLoop = 1;  //We reset whichLoop back to 1 in case the microprocess
 483              		.loc 1 291 0 is_stmt 1
 484 023e 4FF00109 		mov	r9, #1
 485              	.LVL104:
 486              	.L17:
 292:main.c        ****                                             //fineDAC loops without relocking success.
 293:main.c        ****                         }
 294:main.c        **** 
 295:main.c        ****                         if (i == courseHigh) {  //These if statements manage lockFail. lockFail cou
 487              		.loc 1 295 0
 488 0242 D845     		cmp	r8, fp
 489 0244 0BD1     		bne	.L26
 296:main.c        ****                                                 //microprocessor has failed to relock. If it ever f
 297:main.c        ****                                                 //the if statement turns on the red light, signalli
 298:main.c        ****                             i = (courseLow - 1);
ARM GAS  C:\Users\THOMPS~1\AppData\Local\Temp\ccpMTeFg.s 			page 15


 490              		.loc 1 298 0
 491 0246 039B     		ldr	r3, [sp, #12]
 492 0248 03F1FF38 		add	r8, r3, #-1
 493              	.LVL105:
 299:main.c        ****                             lockFail++;
 494              		.loc 1 299 0
 495 024c 029B     		ldr	r3, [sp, #8]
 496 024e 0133     		adds	r3, r3, #1
 497              	.LVL106:
 300:main.c        **** 
 301:main.c        ****                             if (lockFail == 20) {
 498              		.loc 1 301 0
 499 0250 142B     		cmp	r3, #20
 500 0252 03D1     		bne	.L93
 302:main.c        ****                                 redLight_Write(0);
 501              		.loc 1 302 0
 502 0254 0020     		movs	r0, #0
 503 0256 FFF7FEFF 		bl	redLight_Write
 504              	.LVL107:
 505 025a 00E0     		b	.L26
 506              	.LVL108:
 507              	.L93:
 299:main.c        ****                             lockFail++;
 508              		.loc 1 299 0
 509 025c 0293     		str	r3, [sp, #8]
 510              	.LVL109:
 511              	.L26:
 218:main.c        ****                         courseDAC_SetValue(i);
 512              		.loc 1 218 0 discriminator 2
 513 025e 08F10108 		add	r8, r8, #1
 514              	.LVL110:
 515              	.L11:
 218:main.c        ****                         courseDAC_SetValue(i);
 516              		.loc 1 218 0 is_stmt 0 discriminator 1
 517 0262 D045     		cmp	r8, r10
 518 0264 8DDB     		blt	.L27
 519              	.LVL111:
 520              	.L10:
 201:main.c        **** 
 521              		.loc 1 201 0 is_stmt 1
 522 0266 FFF7FEFF 		bl	lfOutADC_GetResult32
 523              	.LVL112:
 524 026a 059B     		ldr	r3, [sp, #20]
 525 026c 9842     		cmp	r0, r3
 526 026e 3FF776AF 		bgt	.L28
 201:main.c        **** 
 527              		.loc 1 201 0 is_stmt 0 discriminator 1
 528 0272 FFF7FEFF 		bl	lfOutADC_GetResult32
 529              	.LVL113:
 530 0276 069B     		ldr	r3, [sp, #24]
 531 0278 9842     		cmp	r0, r3
 532 027a FFF670AF 		blt	.L28
 533              	.LVL114:
 303:main.c        ****                                 lockFail--;
 304:main.c        ****                             }
 305:main.c        ****                         }
 306:main.c        ****                     }
ARM GAS  C:\Users\THOMPS~1\AppData\Local\Temp\ccpMTeFg.s 			page 16


 307:main.c        ****                 }
 308:main.c        **** 
 309:main.c        ****                 //If the microprocessor has detected the error signal enter back into its central l
 310:main.c        ****                 //loops to here. It then switches the loop filter back into the conventional PDH or
 311:main.c        **** 
 312:main.c        ****                 whichLoop = 1;
 313:main.c        ****                 switches_Write(0);
 534              		.loc 1 313 0 is_stmt 1
 535 027e 0020     		movs	r0, #0
 536 0280 FFF7FEFF 		bl	switches_Write
 537              	.LVL115:
 314:main.c        ****                 greenLight_Write(1);
 538              		.loc 1 314 0
 539 0284 0120     		movs	r0, #1
 540 0286 FFF7FEFF 		bl	greenLight_Write
 541              	.LVL116:
 315:main.c        ****                 redLight_Write(0);
 542              		.loc 1 315 0
 543 028a 0020     		movs	r0, #0
 544 028c FFF7FEFF 		bl	redLight_Write
 545              	.LVL117:
 312:main.c        ****                 switches_Write(0);
 546              		.loc 1 312 0
 547 0290 4FF00109 		mov	r9, #1
 548              	.LVL118:
 549              	.L4:
  83:main.c        ****                 
 550              		.loc 1 83 0
 551 0294 FFF7FEFF 		bl	setting8V_Read
 552              	.LVL119:
 553 0298 0128     		cmp	r0, #1
 554 029a 40F03E81 		bne	.L30
 555 029e 5546     		mov	r5, r10
 556 02a0 DDF80C80 		ldr	r8, [sp, #12]
 557 02a4 DDF810A0 		ldr	r10, [sp, #16]
 558              	.LVL120:
 559 02a8 079E     		ldr	r6, [sp, #28]
 560 02aa 48E7     		b	.L29
 561              	.LVL121:
 562              	.L35:
 316:main.c        ****                 
 317:main.c        ****             /*This is the end of the relocker code. Beyond this lay the two loops that manage reloc
 318:main.c        ****                 28 V mode. The code for these modes is exactly the same, barring the ADC and DAC pa
 319:main.c        ****                 and relocking the system.*/
 320:main.c        ****             }
 321:main.c        **** 
 322:main.c        ****             while (setting22V_Read() == 1) {
 323:main.c        ****                 while (calibratePin_Read() == 1) {
 324:main.c        ****                     greenLight_Write(0);
 563              		.loc 1 324 0
 564 02ac 0020     		movs	r0, #0
 565 02ae FFF7FEFF 		bl	greenLight_Write
 566              	.LVL122:
 325:main.c        ****                     yellowLight_Write(1);
 567              		.loc 1 325 0
 568 02b2 0120     		movs	r0, #1
 569 02b4 FFF7FEFF 		bl	yellowLight_Write
ARM GAS  C:\Users\THOMPS~1\AppData\Local\Temp\ccpMTeFg.s 			page 17


 570              	.LVL123:
 326:main.c        **** 
 327:main.c        ****                     //Reading in the error signal size
 328:main.c        ****                     if (thresSample_Read() == 1) {
 571              		.loc 1 328 0
 572 02b8 FFF7FEFF 		bl	thresSample_Read
 573              	.LVL124:
 574 02bc 0128     		cmp	r0, #1
 575 02be 06D1     		bne	.L31
 329:main.c        ****                         eMonADC_StartConvert();
 576              		.loc 1 329 0
 577 02c0 FFF7FEFF 		bl	eMonADC_StartConvert
 578              	.LVL125:
 330:main.c        ****                         nowEMonVal = eMonADC_GetResult16();
 579              		.loc 1 330 0
 580 02c4 FFF7FEFF 		bl	eMonADC_GetResult16
 581              	.LVL126:
 331:main.c        **** 
 332:main.c        ****                         if (nowEMonVal < lowVal) {
 582              		.loc 1 332 0
 583 02c8 4045     		cmp	r0, r8
 584 02ca 00DA     		bge	.L31
 333:main.c        ****                             lowVal = nowEMonVal;
 585              		.loc 1 333 0
 586 02cc 8046     		mov	r8, r0
 587              	.LVL127:
 588              	.L31:
 334:main.c        ****                         }
 335:main.c        ****                     }
 336:main.c        **** 
 337:main.c        ****                     dev = 2000 - lowVal; //From center value
 589              		.loc 1 337 0
 590 02ce C8F5FA63 		rsb	r3, r8, #2000
 591              	.LVL128:
 338:main.c        ****                     thresSubtract = dev / 2;
 592              		.loc 1 338 0
 593 02d2 03EBD373 		add	r3, r3, r3, lsr #31
 594              	.LVL129:
 595 02d6 5C10     		asrs	r4, r3, #1
 596              	.LVL130:
 339:main.c        ****                     detectThres = 2000 - thresSubtract;
 597              		.loc 1 339 0
 598 02d8 C4F5FA64 		rsb	r4, r4, #2000
 599              	.LVL131:
 340:main.c        **** 
 341:main.c        ****                     lfOutADC_Start();
 600              		.loc 1 341 0
 601 02dc FFF7FEFF 		bl	lfOutADC_Start
 602              	.LVL132:
 342:main.c        **** 
 343:main.c        ****                     //Calibrate relocking parameters to prefer mode to which laser is curently lock
 344:main.c        ****                     lfOutADC_StartConvert();
 603              		.loc 1 344 0
 604 02e0 FFF7FEFF 		bl	lfOutADC_StartConvert
 605              	.LVL133:
 345:main.c        ****                     modeOut = lfOutADC_Read32();
 606              		.loc 1 345 0
ARM GAS  C:\Users\THOMPS~1\AppData\Local\Temp\ccpMTeFg.s 			page 18


 607 02e4 FFF7FEFF 		bl	lfOutADC_Read32
 608              	.LVL134:
 346:main.c        **** 
 347:main.c        ****                     upRail = modeOut + 342;
 609              		.loc 1 347 0
 610 02e8 00F5AB72 		add	r2, r0, #342
 611 02ec 0592     		str	r2, [sp, #20]
 612              	.LVL135:
 348:main.c        ****                     lowRail = modeOut - 342;
 613              		.loc 1 348 0
 614 02ee A0F5AB73 		sub	r3, r0, #342
 615 02f2 0693     		str	r3, [sp, #24]
 616              	.LVL136:
 349:main.c        **** 
 350:main.c        ****                     sweepCenter = 256 * (((double) modeOut) / ((double) 53595)) - 11;
 617              		.loc 1 350 0
 618 02f4 FFF7FEFF 		bl	__aeabi_i2d
 619              	.LVL137:
 620 02f8 3BA3     		adr	r3, .L123
 621 02fa D3E90023 		ldrd	r2, [r3]
 622 02fe FFF7FEFF 		bl	__aeabi_ddiv
 623              	.LVL138:
 624 0302 0022     		movs	r2, #0
 625 0304 3C4B     		ldr	r3, .L123+16
 626 0306 FFF7FEFF 		bl	__aeabi_dmul
 627              	.LVL139:
 628 030a 0022     		movs	r2, #0
 629 030c 3D4B     		ldr	r3, .L123+28
 630 030e FFF7FEFF 		bl	__aeabi_dsub
 631              	.LVL140:
 632 0312 0646     		mov	r6, r0
 633              	.LVL141:
 634 0314 0F46     		mov	r7, r1
 635              	.LVL142:
 351:main.c        ****                     courseCenter = (int) sweepCenter;
 636              		.loc 1 351 0
 637 0316 FFF7FEFF 		bl	__aeabi_d2iz
 638              	.LVL143:
 639 031a 8246     		mov	r10, r0
 640              	.LVL144:
 352:main.c        ****                     fineProp = sweepCenter - courseCenter;
 641              		.loc 1 352 0
 642 031c FFF7FEFF 		bl	__aeabi_i2d
 643              	.LVL145:
 644 0320 0246     		mov	r2, r0
 645 0322 0B46     		mov	r3, r1
 646 0324 3046     		mov	r0, r6
 647 0326 3946     		mov	r1, r7
 648 0328 FFF7FEFF 		bl	__aeabi_dsub
 649              	.LVL146:
 353:main.c        ****                     fineCenter = (int)((fineProp * ((double) 255)) + 0.5);
 650              		.loc 1 353 0
 651 032c 30A3     		adr	r3, .L123+8
 652 032e D3E90023 		ldrd	r2, [r3]
 653 0332 FFF7FEFF 		bl	__aeabi_dmul
 654              	.LVL147:
 655 0336 0022     		movs	r2, #0
ARM GAS  C:\Users\THOMPS~1\AppData\Local\Temp\ccpMTeFg.s 			page 19


 656 0338 314B     		ldr	r3, .L123+24
 657 033a FFF7FEFF 		bl	__aeabi_dadd
 658              	.LVL148:
 659 033e FFF7FEFF 		bl	__aeabi_d2iz
 660              	.LVL149:
 354:main.c        **** 
 355:main.c        ****                     if (fineCenter > 189) {
 661              		.loc 1 355 0
 662 0342 BD28     		cmp	r0, #189
 663 0344 0BDD     		ble	.L32
 356:main.c        ****                         courseLow = courseCenter - 2;
 664              		.loc 1 356 0
 665 0346 AAF10205 		sub	r5, r10, #2
 666              	.LVL150:
 357:main.c        ****                         courseHigh = courseCenter + 3;
 667              		.loc 1 357 0
 668 034a 0AF1030B 		add	fp, r10, #3
 669              	.LVL151:
 358:main.c        ****                         sweepHigh = courseCenter + 4;
 670              		.loc 1 358 0
 671 034e 0AF1040A 		add	r10, r10, #4
 672              	.LVL152:
 359:main.c        **** 
 360:main.c        ****                         fineLow = fineCenter - 190;
 673              		.loc 1 360 0
 674 0352 A0F1BE03 		sub	r3, r0, #190
 675 0356 0493     		str	r3, [sp, #16]
 676              	.LVL153:
 361:main.c        ****                         fineHigh = fineCenter - 64;
 677              		.loc 1 361 0
 678 0358 A0F14007 		sub	r7, r0, #64
 679              	.LVL154:
 680 035c 1AE0     		b	.L33
 681              	.LVL155:
 682              	.L32:
 362:main.c        ****                         /*Set +1 higher than it needs to be for 
 363:main.c        ****                                                                        the for loop to sweep throug
 364:main.c        ****                                                                        necessary high value*/
 365:main.c        ****                     } else if (fineCenter > 65 && fineCenter <= 189) {
 683              		.loc 1 365 0
 684 035e A0F14203 		sub	r3, r0, #66
 685 0362 7B2B     		cmp	r3, #123
 686 0364 0BD8     		bhi	.L34
 366:main.c        ****                         courseLow = courseCenter - 3;
 687              		.loc 1 366 0
 688 0366 AAF10305 		sub	r5, r10, #3
 689              	.LVL156:
 367:main.c        ****                         courseHigh = courseCenter + 3;
 690              		.loc 1 367 0
 691 036a 0AF1030B 		add	fp, r10, #3
 692              	.LVL157:
 368:main.c        ****                         sweepHigh = courseCenter + 4;
 693              		.loc 1 368 0
 694 036e 0AF1040A 		add	r10, r10, #4
 695              	.LVL158:
 369:main.c        **** 
 370:main.c        ****                         fineLow = fineCenter + 65;
ARM GAS  C:\Users\THOMPS~1\AppData\Local\Temp\ccpMTeFg.s 			page 20


 696              		.loc 1 370 0
 697 0372 00F14103 		add	r3, r0, #65
 698 0376 0493     		str	r3, [sp, #16]
 699              	.LVL159:
 371:main.c        ****                         fineHigh = fineCenter - 64;
 700              		.loc 1 371 0
 701 0378 A0F14007 		sub	r7, r0, #64
 702              	.LVL160:
 703 037c 0AE0     		b	.L33
 704              	.LVL161:
 705              	.L34:
 372:main.c        ****                         /*Set +1 higher than it needs to be for 
 373:main.c        ****                                                                        the for loop to sweep throug
 374:main.c        ****                                                                        necessary high value*/
 375:main.c        ****                     } else {
 376:main.c        ****                         courseLow = courseCenter - 3;
 706              		.loc 1 376 0
 707 037e AAF10305 		sub	r5, r10, #3
 708              	.LVL162:
 377:main.c        ****                         courseHigh = courseCenter + 2;
 709              		.loc 1 377 0
 710 0382 0AF1020B 		add	fp, r10, #2
 711              	.LVL163:
 378:main.c        ****                         sweepHigh = courseCenter + 4;
 712              		.loc 1 378 0
 713 0386 0AF1040A 		add	r10, r10, #4
 714              	.LVL164:
 379:main.c        **** 
 380:main.c        ****                         fineLow = fineCenter + 65;
 715              		.loc 1 380 0
 716 038a 00F14103 		add	r3, r0, #65
 717 038e 0493     		str	r3, [sp, #16]
 718              	.LVL165:
 381:main.c        ****                         fineHigh = fineCenter + 191;
 719              		.loc 1 381 0
 720 0390 00F1BF07 		add	r7, r0, #191
 721              	.LVL166:
 722              	.L33:
 382:main.c        ****                         /*Set +1 higher than it needs to be for 
 383:main.c        ****                                                                        the for loop to sweep throug
 384:main.c        ****                                                                        necessary high value*/
 385:main.c        ****                     }
 386:main.c        **** 
 387:main.c        ****                     whichLoop = 1;
 388:main.c        ****                     decideLoop = sweepHigh - courseLow;
 723              		.loc 1 388 0
 724 0394 C5EB0A06 		rsb	r6, r5, r10
 725              	.LVL167:
 387:main.c        ****                     decideLoop = sweepHigh - courseLow;
 726              		.loc 1 387 0
 727 0398 4FF00109 		mov	r9, #1
 728 039c 03E0     		b	.L55
 729              	.LVL168:
 730              	.L120:
 731 039e 039D     		ldr	r5, [sp, #12]
 732 03a0 DDF81C80 		ldr	r8, [sp, #28]
 733 03a4 019E     		ldr	r6, [sp, #4]
ARM GAS  C:\Users\THOMPS~1\AppData\Local\Temp\ccpMTeFg.s 			page 21


 734              	.LVL169:
 735              	.L55:
 323:main.c        ****                     greenLight_Write(0);
 736              		.loc 1 323 0
 737 03a6 FFF7FEFF 		bl	calibratePin_Read
 738              	.LVL170:
 739 03aa 0128     		cmp	r0, #1
 740 03ac 3FF47EAF 		beq	.L35
 741 03b0 0395     		str	r5, [sp, #12]
 742 03b2 CDF81C80 		str	r8, [sp, #28]
 743 03b6 0196     		str	r6, [sp, #4]
 389:main.c        ****                 }
 390:main.c        **** 
 391:main.c        ****                 yellowLight_Write(0);
 744              		.loc 1 391 0
 745 03b8 0020     		movs	r0, #0
 746 03ba FFF7FEFF 		bl	yellowLight_Write
 747              	.LVL171:
 392:main.c        **** 
 393:main.c        ****                 //Board is in watch mode while outside the loop below.
 394:main.c        ****                 //Board is in search mode while inside the loop below.
 395:main.c        **** 
 396:main.c        ****                 lfOutADC_StartConvert();
 748              		.loc 1 396 0
 749 03be FFF7FEFF 		bl	lfOutADC_StartConvert
 750              	.LVL172:
 397:main.c        **** 
 398:main.c        ****                 while (lfOutADC_GetResult32() > upRail || lfOutADC_GetResult32() < lowRail) {
 751              		.loc 1 398 0
 752 03c2 93E0     		b	.L36
 753              	.LVL173:
 754              	.L54:
 399:main.c        **** 
 400:main.c        ****                     //Switch to search mode    
 401:main.c        **** 
 402:main.c        ****                     greenLight_Write(0);
 755              		.loc 1 402 0
 756 03c4 0020     		movs	r0, #0
 757 03c6 FFF7FEFF 		bl	greenLight_Write
 758              	.LVL174:
 403:main.c        ****                     switches_Write(1);
 759              		.loc 1 403 0
 760 03ca 0120     		movs	r0, #1
 761 03cc FFF7FEFF 		bl	switches_Write
 762              	.LVL175:
 404:main.c        **** 
 405:main.c        ****                     check = 0;
 406:main.c        ****                     lockFail = 0;
 407:main.c        **** 
 408:main.c        ****                     courseDAC_Start();
 763              		.loc 1 408 0
 764 03d0 FFF7FEFF 		bl	courseDAC_Start
 765              	.LVL176:
 409:main.c        ****                     fineDAC_Start();
 766              		.loc 1 409 0
 767 03d4 FFF7FEFF 		bl	fineDAC_Start
 768              	.LVL177:
ARM GAS  C:\Users\THOMPS~1\AppData\Local\Temp\ccpMTeFg.s 			page 22


 410:main.c        ****                     eMonADC_StartConvert();
 769              		.loc 1 410 0
 770 03d8 FFF7FEFF 		bl	eMonADC_StartConvert
 771              	.LVL178:
 411:main.c        **** 
 412:main.c        ****                     //Sweep laser frequency    
 413:main.c        **** 
 414:main.c        ****                     for (i = courseLow; i < sweepHigh; i++) {
 772              		.loc 1 414 0
 773 03dc DDF80C80 		ldr	r8, [sp, #12]
 406:main.c        **** 
 774              		.loc 1 406 0
 775 03e0 0023     		movs	r3, #0
 776 03e2 0293     		str	r3, [sp, #8]
 405:main.c        ****                     lockFail = 0;
 777              		.loc 1 405 0
 778 03e4 1E46     		mov	r6, r3
 779              		.loc 1 414 0
 780 03e6 7FE0     		b	.L37
 781              	.L124:
 782              		.align	3
 783              	.L123:
 784 03e8 00000000 		.word	0
 785 03ec 602BEA40 		.word	1089088352
 786 03f0 00000000 		.word	0
 787 03f4 00E06F40 		.word	1081073664
 788 03f8 00007040 		.word	1081081856
 789 03fc 00002840 		.word	1076363264
 790 0400 0000E03F 		.word	1071644672
 791 0404 00002640 		.word	1076232192
 792              	.LVL179:
 793              	.L53:
 415:main.c        ****                         courseDAC_SetValue(i);
 794              		.loc 1 415 0
 795 0408 5FFA88F0 		uxtb	r0, r8
 796 040c FFF7FEFF 		bl	courseDAC_SetValue
 797              	.LVL180:
 416:main.c        **** 
 417:main.c        ****                         if (whichLoop == 1) {
 798              		.loc 1 417 0
 799 0410 B9F1010F 		cmp	r9, #1
 800 0414 1BD1     		bne	.L117
 801 0416 14E0     		b	.L95
 802              	.LVL181:
 803              	.L42:
 418:main.c        ****                             for (j = fineLow; j < 256; j++) {
 419:main.c        ****                                 fineDAC_SetValue(j);
 804              		.loc 1 419 0
 805 0418 E8B2     		uxtb	r0, r5
 806 041a FFF7FEFF 		bl	fineDAC_SetValue
 807              	.LVL182:
 420:main.c        **** 
 421:main.c        ****                                 if (eMonADC_GetResult16() < detectThres)
 808              		.loc 1 421 0
 809 041e FFF7FEFF 		bl	eMonADC_GetResult16
 810              	.LVL183:
 811 0422 A042     		cmp	r0, r4
ARM GAS  C:\Users\THOMPS~1\AppData\Local\Temp\ccpMTeFg.s 			page 23


 812 0424 00DA     		bge	.L40
 422:main.c        ****                                     check = 1;
 813              		.loc 1 422 0
 814 0426 0126     		movs	r6, #1
 815              	.LVL184:
 816              	.L40:
 423:main.c        **** 
 424:main.c        ****                                 if (eMonADC_GetResult16() > detectThres && check == 1) {
 817              		.loc 1 424 0
 818 0428 FFF7FEFF 		bl	eMonADC_GetResult16
 819              	.LVL185:
 820 042c A042     		cmp	r0, r4
 821 042e 03DD     		ble	.L41
 822              		.loc 1 424 0 is_stmt 0 discriminator 1
 823 0430 16B1     		cbz	r6, .L41
 425:main.c        ****                                     j = 300;
 824              		.loc 1 425 0 is_stmt 1
 825 0432 4FF49675 		mov	r5, #300
 826              	.LVL186:
 426:main.c        ****                                     i = 300;
 827              		.loc 1 426 0
 828 0436 A846     		mov	r8, r5
 829              	.LVL187:
 830              	.L41:
 427:main.c        ****                                 }
 428:main.c        **** 
 429:main.c        ****                                 CyDelayUs(1);
 831              		.loc 1 429 0 discriminator 2
 832 0438 0120     		movs	r0, #1
 833 043a FFF7FEFF 		bl	CyDelayUs
 834              	.LVL188:
 418:main.c        ****                                 fineDAC_SetValue(j);
 835              		.loc 1 418 0 discriminator 2
 836 043e 0135     		adds	r5, r5, #1
 837              	.LVL189:
 838 0440 00E0     		b	.L38
 839              	.LVL190:
 840              	.L95:
 841 0442 049D     		ldr	r5, [sp, #16]
 842              	.L38:
 843              	.LVL191:
 418:main.c        ****                                 fineDAC_SetValue(j);
 844              		.loc 1 418 0 is_stmt 0 discriminator 1
 845 0444 FF2D     		cmp	r5, #255
 846 0446 E7DD     		ble	.L42
 430:main.c        ****                             }
 431:main.c        **** 
 432:main.c        ****                             whichLoop++;
 847              		.loc 1 432 0 is_stmt 1
 848 0448 09F10109 		add	r9, r9, #1
 849              	.LVL192:
 850 044c 3CE0     		b	.L43
 851              	.LVL193:
 852              	.L117:
 433:main.c        ****                         } else if (whichLoop < decideLoop && whichLoop > 1) {
 853              		.loc 1 433 0
 854 044e 019B     		ldr	r3, [sp, #4]
ARM GAS  C:\Users\THOMPS~1\AppData\Local\Temp\ccpMTeFg.s 			page 24


 855 0450 9945     		cmp	r9, r3
 856 0452 34DA     		bge	.L98
 857              		.loc 1 433 0 is_stmt 0 discriminator 1
 858 0454 B9F1010F 		cmp	r9, #1
 859 0458 16DC     		bgt	.L99
 860 045a 0025     		movs	r5, #0
 861 045c 30E0     		b	.L44
 862              	.LVL194:
 863              	.L48:
 434:main.c        ****                             for (j = 0; j < 256; j++) {
 435:main.c        ****                                 fineDAC_SetValue(j);
 864              		.loc 1 435 0 is_stmt 1
 865 045e E8B2     		uxtb	r0, r5
 866 0460 FFF7FEFF 		bl	fineDAC_SetValue
 867              	.LVL195:
 436:main.c        **** 
 437:main.c        ****                                 if (eMonADC_GetResult16() < detectThres)
 868              		.loc 1 437 0
 869 0464 FFF7FEFF 		bl	eMonADC_GetResult16
 870              	.LVL196:
 871 0468 A042     		cmp	r0, r4
 872 046a 00DA     		bge	.L46
 438:main.c        ****                                     check = 1;
 873              		.loc 1 438 0
 874 046c 0126     		movs	r6, #1
 875              	.LVL197:
 876              	.L46:
 439:main.c        **** 
 440:main.c        ****                                 if (eMonADC_GetResult16() > detectThres && check == 1) {
 877              		.loc 1 440 0
 878 046e FFF7FEFF 		bl	eMonADC_GetResult16
 879              	.LVL198:
 880 0472 A042     		cmp	r0, r4
 881 0474 03DD     		ble	.L47
 882              		.loc 1 440 0 is_stmt 0 discriminator 1
 883 0476 16B1     		cbz	r6, .L47
 441:main.c        ****                                     j = 300;
 884              		.loc 1 441 0 is_stmt 1
 885 0478 4FF49675 		mov	r5, #300
 886              	.LVL199:
 442:main.c        ****                                     i = 300;
 887              		.loc 1 442 0
 888 047c A846     		mov	r8, r5
 889              	.LVL200:
 890              	.L47:
 443:main.c        ****                                 }
 444:main.c        **** 
 445:main.c        ****                                 CyDelayUs(1);
 891              		.loc 1 445 0 discriminator 2
 892 047e 0120     		movs	r0, #1
 893 0480 FFF7FEFF 		bl	CyDelayUs
 894              	.LVL201:
 434:main.c        ****                                 fineDAC_SetValue(j);
 895              		.loc 1 434 0 discriminator 2
 896 0484 0135     		adds	r5, r5, #1
 897              	.LVL202:
 898 0486 00E0     		b	.L45
ARM GAS  C:\Users\THOMPS~1\AppData\Local\Temp\ccpMTeFg.s 			page 25


 899              	.LVL203:
 900              	.L99:
 901 0488 0025     		movs	r5, #0
 902              	.L45:
 903              	.LVL204:
 434:main.c        ****                                 fineDAC_SetValue(j);
 904              		.loc 1 434 0 is_stmt 0 discriminator 1
 905 048a FF2D     		cmp	r5, #255
 906 048c E7DD     		ble	.L48
 446:main.c        ****                             }
 447:main.c        **** 
 448:main.c        ****                             whichLoop++;
 907              		.loc 1 448 0 is_stmt 1
 908 048e 09F10109 		add	r9, r9, #1
 909              	.LVL205:
 910 0492 19E0     		b	.L43
 911              	.L51:
 449:main.c        ****                         } else {
 450:main.c        ****                             for (j = 0; j < fineHigh; j++) {
 451:main.c        ****                                 fineDAC_SetValue(j);
 912              		.loc 1 451 0
 913 0494 E8B2     		uxtb	r0, r5
 914 0496 FFF7FEFF 		bl	fineDAC_SetValue
 915              	.LVL206:
 452:main.c        **** 
 453:main.c        ****                                 if (eMonADC_GetResult16() < detectThres)
 916              		.loc 1 453 0
 917 049a FFF7FEFF 		bl	eMonADC_GetResult16
 918              	.LVL207:
 919 049e A042     		cmp	r0, r4
 920 04a0 00DA     		bge	.L49
 454:main.c        ****                                     check = 1;
 921              		.loc 1 454 0
 922 04a2 0126     		movs	r6, #1
 923              	.LVL208:
 924              	.L49:
 455:main.c        **** 
 456:main.c        ****                                 if (eMonADC_GetResult16() > detectThres && check == 1) {
 925              		.loc 1 456 0
 926 04a4 FFF7FEFF 		bl	eMonADC_GetResult16
 927              	.LVL209:
 928 04a8 A042     		cmp	r0, r4
 929 04aa 03DD     		ble	.L50
 930              		.loc 1 456 0 is_stmt 0 discriminator 1
 931 04ac 16B1     		cbz	r6, .L50
 457:main.c        ****                                     j = 300;
 932              		.loc 1 457 0 is_stmt 1
 933 04ae 4FF49675 		mov	r5, #300
 934              	.LVL210:
 458:main.c        ****                                     i = 300;
 935              		.loc 1 458 0
 936 04b2 A846     		mov	r8, r5
 937              	.LVL211:
 938              	.L50:
 459:main.c        ****                                 }
 460:main.c        **** 
 461:main.c        ****                                 CyDelayUs(1);
ARM GAS  C:\Users\THOMPS~1\AppData\Local\Temp\ccpMTeFg.s 			page 26


 939              		.loc 1 461 0 discriminator 2
 940 04b4 0120     		movs	r0, #1
 941 04b6 FFF7FEFF 		bl	CyDelayUs
 942              	.LVL212:
 450:main.c        ****                                 fineDAC_SetValue(j);
 943              		.loc 1 450 0 discriminator 2
 944 04ba 0135     		adds	r5, r5, #1
 945              	.LVL213:
 946 04bc 00E0     		b	.L44
 947              	.LVL214:
 948              	.L98:
 949 04be 0025     		movs	r5, #0
 950              	.L44:
 951              	.LVL215:
 450:main.c        ****                                 fineDAC_SetValue(j);
 952              		.loc 1 450 0 is_stmt 0 discriminator 1
 953 04c0 BD42     		cmp	r5, r7
 954 04c2 E7DB     		blt	.L51
 462:main.c        ****                             }
 463:main.c        **** 
 464:main.c        ****                             whichLoop = 1;
 955              		.loc 1 464 0 is_stmt 1
 956 04c4 4FF00109 		mov	r9, #1
 957              	.LVL216:
 958              	.L43:
 465:main.c        ****                         }
 466:main.c        **** 
 467:main.c        ****                         if (i == courseHigh) {
 959              		.loc 1 467 0
 960 04c8 D845     		cmp	r8, fp
 961 04ca 0BD1     		bne	.L52
 468:main.c        ****                             i = (courseLow - 1);
 962              		.loc 1 468 0
 963 04cc 039B     		ldr	r3, [sp, #12]
 964 04ce 03F1FF38 		add	r8, r3, #-1
 965              	.LVL217:
 469:main.c        ****                             lockFail++;
 966              		.loc 1 469 0
 967 04d2 029B     		ldr	r3, [sp, #8]
 968 04d4 0133     		adds	r3, r3, #1
 969              	.LVL218:
 470:main.c        **** 
 471:main.c        ****                             if (lockFail == 20) {
 970              		.loc 1 471 0
 971 04d6 142B     		cmp	r3, #20
 972 04d8 03D1     		bne	.L104
 472:main.c        ****                                 redLight_Write(1);
 973              		.loc 1 472 0
 974 04da 0120     		movs	r0, #1
 975 04dc FFF7FEFF 		bl	redLight_Write
 976              	.LVL219:
 977 04e0 00E0     		b	.L52
 978              	.LVL220:
 979              	.L104:
 469:main.c        ****                             lockFail++;
 980              		.loc 1 469 0
 981 04e2 0293     		str	r3, [sp, #8]
ARM GAS  C:\Users\THOMPS~1\AppData\Local\Temp\ccpMTeFg.s 			page 27


 982              	.LVL221:
 983              	.L52:
 414:main.c        ****                         courseDAC_SetValue(i);
 984              		.loc 1 414 0 discriminator 2
 985 04e4 08F10108 		add	r8, r8, #1
 986              	.LVL222:
 987              	.L37:
 414:main.c        ****                         courseDAC_SetValue(i);
 988              		.loc 1 414 0 is_stmt 0 discriminator 1
 989 04e8 D045     		cmp	r8, r10
 990 04ea 8DDB     		blt	.L53
 991              	.LVL223:
 992              	.L36:
 398:main.c        **** 
 993              		.loc 1 398 0 is_stmt 1
 994 04ec FFF7FEFF 		bl	lfOutADC_GetResult32
 995              	.LVL224:
 996 04f0 059B     		ldr	r3, [sp, #20]
 997 04f2 9842     		cmp	r0, r3
 998 04f4 3FF766AF 		bgt	.L54
 398:main.c        **** 
 999              		.loc 1 398 0 is_stmt 0 discriminator 1
 1000 04f8 FFF7FEFF 		bl	lfOutADC_GetResult32
 1001              	.LVL225:
 1002 04fc 069B     		ldr	r3, [sp, #24]
 1003 04fe 9842     		cmp	r0, r3
 1004 0500 FFF660AF 		blt	.L54
 1005              	.LVL226:
 473:main.c        ****                                 lockFail--;
 474:main.c        ****                             }
 475:main.c        ****                         }
 476:main.c        ****                     }
 477:main.c        ****                 }
 478:main.c        **** 
 479:main.c        ****                 //Switch to watch mode
 480:main.c        **** 
 481:main.c        ****                 whichLoop = 1;
 482:main.c        ****                 switches_Write(0);
 1006              		.loc 1 482 0 is_stmt 1
 1007 0504 0020     		movs	r0, #0
 1008 0506 FFF7FEFF 		bl	switches_Write
 1009              	.LVL227:
 483:main.c        ****                 greenLight_Write(1);
 1010              		.loc 1 483 0
 1011 050a 0120     		movs	r0, #1
 1012 050c FFF7FEFF 		bl	greenLight_Write
 1013              	.LVL228:
 484:main.c        ****                 redLight_Write(0);
 1014              		.loc 1 484 0
 1015 0510 0020     		movs	r0, #0
 1016 0512 FFF7FEFF 		bl	redLight_Write
 1017              	.LVL229:
 481:main.c        ****                 switches_Write(0);
 1018              		.loc 1 481 0
 1019 0516 4FF00109 		mov	r9, #1
 1020              	.LVL230:
 1021              	.L30:
ARM GAS  C:\Users\THOMPS~1\AppData\Local\Temp\ccpMTeFg.s 			page 28


 322:main.c        ****                 while (calibratePin_Read() == 1) {
 1022              		.loc 1 322 0
 1023 051a FFF7FEFF 		bl	setting22V_Read
 1024              	.LVL231:
 1025 051e 0128     		cmp	r0, #1
 1026 0520 3FF43DAF 		beq	.L120
 1027 0524 28E1     		b	.L56
 1028              	.LVL232:
 1029              	.L61:
 485:main.c        ****             }
 486:main.c        **** 
 487:main.c        ****             while (setting28V_Read() == 1) {
 488:main.c        ****                 while (calibratePin_Read() == 1) {
 489:main.c        ****                     greenLight_Write(0);
 1030              		.loc 1 489 0
 1031 0526 0020     		movs	r0, #0
 1032 0528 FFF7FEFF 		bl	greenLight_Write
 1033              	.LVL233:
 490:main.c        ****                     yellowLight_Write(1);
 1034              		.loc 1 490 0
 1035 052c 0120     		movs	r0, #1
 1036 052e FFF7FEFF 		bl	yellowLight_Write
 1037              	.LVL234:
 491:main.c        **** 
 492:main.c        ****                     //Reading in the error signal size
 493:main.c        ****                     if (thresSample_Read() == 1) {
 1038              		.loc 1 493 0
 1039 0532 FFF7FEFF 		bl	thresSample_Read
 1040              	.LVL235:
 1041 0536 0128     		cmp	r0, #1
 1042 0538 06D1     		bne	.L57
 494:main.c        ****                         eMonADC_StartConvert();
 1043              		.loc 1 494 0
 1044 053a FFF7FEFF 		bl	eMonADC_StartConvert
 1045              	.LVL236:
 495:main.c        ****                         nowEMonVal = eMonADC_GetResult16();
 1046              		.loc 1 495 0
 1047 053e FFF7FEFF 		bl	eMonADC_GetResult16
 1048              	.LVL237:
 496:main.c        **** 
 497:main.c        ****                         if (nowEMonVal < lowVal) {
 1049              		.loc 1 497 0
 1050 0542 B042     		cmp	r0, r6
 1051 0544 00DA     		bge	.L57
 498:main.c        ****                             lowVal = nowEMonVal;
 1052              		.loc 1 498 0
 1053 0546 0646     		mov	r6, r0
 1054              	.LVL238:
 1055              	.L57:
 499:main.c        ****                         }
 500:main.c        ****                     }
 501:main.c        **** 
 502:main.c        ****                     dev = 2000 - lowVal; //From center value
 1056              		.loc 1 502 0
 1057 0548 C6F5FA63 		rsb	r3, r6, #2000
 1058              	.LVL239:
 503:main.c        ****                     thresSubtract = dev / 2;
ARM GAS  C:\Users\THOMPS~1\AppData\Local\Temp\ccpMTeFg.s 			page 29


 1059              		.loc 1 503 0
 1060 054c 03EBD373 		add	r3, r3, r3, lsr #31
 1061              	.LVL240:
 1062 0550 5C10     		asrs	r4, r3, #1
 1063              	.LVL241:
 504:main.c        ****                     detectThres = 2000 - thresSubtract;
 1064              		.loc 1 504 0
 1065 0552 C4F5FA64 		rsb	r4, r4, #2000
 1066              	.LVL242:
 505:main.c        **** 
 506:main.c        ****                     lfOutADC_Start();
 1067              		.loc 1 506 0
 1068 0556 FFF7FEFF 		bl	lfOutADC_Start
 1069              	.LVL243:
 507:main.c        **** 
 508:main.c        ****                     //Calibrate relocking parameters to prefer mode to which laser is curently lock
 509:main.c        ****                     lfOutADC_StartConvert();
 1070              		.loc 1 509 0
 1071 055a FFF7FEFF 		bl	lfOutADC_StartConvert
 1072              	.LVL244:
 510:main.c        ****                     modeOut = lfOutADC_Read32();
 1073              		.loc 1 510 0
 1074 055e FFF7FEFF 		bl	lfOutADC_Read32
 1075              	.LVL245:
 511:main.c        **** 
 512:main.c        ****                     upRail = modeOut + 269;
 1076              		.loc 1 512 0
 1077 0562 00F20D12 		addw	r2, r0, #269
 1078 0566 0592     		str	r2, [sp, #20]
 1079              	.LVL246:
 513:main.c        ****                     lowRail = modeOut - 269;
 1080              		.loc 1 513 0
 1081 0568 A0F20D13 		subw	r3, r0, #269
 1082 056c 0693     		str	r3, [sp, #24]
 1083              	.LVL247:
 514:main.c        **** 
 515:main.c        ****                     sweepCenter = 256 * (((double) modeOut) / ((double) 53595));
 1084              		.loc 1 515 0
 1085 056e FFF7FEFF 		bl	__aeabi_i2d
 1086              	.LVL248:
 1087 0572 85A3     		adr	r3, .L125
 1088 0574 D3E90023 		ldrd	r2, [r3]
 1089 0578 FFF7FEFF 		bl	__aeabi_ddiv
 1090              	.LVL249:
 1091 057c 0022     		movs	r2, #0
 1092 057e 864B     		ldr	r3, .L125+16
 1093 0580 FFF7FEFF 		bl	__aeabi_dmul
 1094              	.LVL250:
 1095 0584 8046     		mov	r8, r0
 1096              	.LVL251:
 1097 0586 8946     		mov	r9, r1
 1098              	.LVL252:
 516:main.c        ****                     courseCenter = (int) sweepCenter;
 1099              		.loc 1 516 0
 1100 0588 FFF7FEFF 		bl	__aeabi_d2iz
 1101              	.LVL253:
 1102 058c 8246     		mov	r10, r0
ARM GAS  C:\Users\THOMPS~1\AppData\Local\Temp\ccpMTeFg.s 			page 30


 1103              	.LVL254:
 517:main.c        ****                     fineProp = sweepCenter - courseCenter;
 1104              		.loc 1 517 0
 1105 058e FFF7FEFF 		bl	__aeabi_i2d
 1106              	.LVL255:
 1107 0592 0246     		mov	r2, r0
 1108 0594 0B46     		mov	r3, r1
 1109 0596 4046     		mov	r0, r8
 1110 0598 4946     		mov	r1, r9
 1111 059a FFF7FEFF 		bl	__aeabi_dsub
 1112              	.LVL256:
 518:main.c        ****                     fineCenter = (int)((fineProp * ((double) 255)) + 0.5);
 1113              		.loc 1 518 0
 1114 059e 7CA3     		adr	r3, .L125+8
 1115 05a0 D3E90023 		ldrd	r2, [r3]
 1116 05a4 FFF7FEFF 		bl	__aeabi_dmul
 1117              	.LVL257:
 1118 05a8 0022     		movs	r2, #0
 1119 05aa 7C4B     		ldr	r3, .L125+20
 1120 05ac FFF7FEFF 		bl	__aeabi_dadd
 1121              	.LVL258:
 1122 05b0 FFF7FEFF 		bl	__aeabi_d2iz
 1123              	.LVL259:
 519:main.c        **** 
 520:main.c        ****                     if (fineCenter > 160) {
 1124              		.loc 1 520 0
 1125 05b4 A028     		cmp	r0, #160
 1126 05b6 0ADD     		ble	.L58
 521:main.c        ****                         courseLow = courseCenter - 1;
 1127              		.loc 1 521 0
 1128 05b8 0AF1FF35 		add	r5, r10, #-1
 1129              	.LVL260:
 522:main.c        ****                         courseHigh = courseCenter + 2;
 1130              		.loc 1 522 0
 1131 05bc 0AF1020B 		add	fp, r10, #2
 1132              	.LVL261:
 523:main.c        ****                         sweepHigh = courseCenter + 3;
 1133              		.loc 1 523 0
 1134 05c0 0AF1030A 		add	r10, r10, #3
 1135              	.LVL262:
 524:main.c        **** 
 525:main.c        ****                         fineLow = fineCenter - 95;
 1136              		.loc 1 525 0
 1137 05c4 A0F15F08 		sub	r8, r0, #95
 1138              	.LVL263:
 526:main.c        ****                         fineHigh = fineCenter - 159;
 1139              		.loc 1 526 0
 1140 05c8 A0F19F07 		sub	r7, r0, #159
 1141              	.LVL264:
 1142 05cc 17E0     		b	.L59
 1143              	.LVL265:
 1144              	.L58:
 527:main.c        ****                         /*Set +1 higher than it needs to be for 
 528:main.c        ****                                                                        the for loop to sweep throug
 529:main.c        ****                                                                        necessary high value*/
 530:main.c        ****                     } else if (fineCenter > 94 && fineCenter <= 159) {
 1145              		.loc 1 530 0
ARM GAS  C:\Users\THOMPS~1\AppData\Local\Temp\ccpMTeFg.s 			page 31


 1146 05ce A0F15F03 		sub	r3, r0, #95
 1147 05d2 402B     		cmp	r3, #64
 1148 05d4 09D8     		bhi	.L60
 531:main.c        ****                         courseLow = courseCenter - 1;
 1149              		.loc 1 531 0
 1150 05d6 0AF1FF35 		add	r5, r10, #-1
 1151              	.LVL266:
 532:main.c        ****                         courseHigh = courseCenter + 1;
 1152              		.loc 1 532 0
 1153 05da 0AF1010B 		add	fp, r10, #1
 1154              	.LVL267:
 533:main.c        ****                         sweepHigh = courseCenter + 2;
 1155              		.loc 1 533 0
 1156 05de 0AF1020A 		add	r10, r10, #2
 1157              	.LVL268:
 534:main.c        **** 
 535:main.c        ****                         fineLow = fineCenter - 95;
 1158              		.loc 1 535 0
 1159 05e2 9846     		mov	r8, r3
 1160              	.LVL269:
 536:main.c        ****                         fineHigh = fineCenter + 96;
 1161              		.loc 1 536 0
 1162 05e4 00F16007 		add	r7, r0, #96
 1163              	.LVL270:
 1164 05e8 09E0     		b	.L59
 1165              	.LVL271:
 1166              	.L60:
 537:main.c        ****                         /*Set +1 higher than it needs to be for 
 538:main.c        ****                                                                        the for loop to sweep throug
 539:main.c        ****                                                                        necessary high value*/
 540:main.c        ****                     } else {
 541:main.c        ****                         courseLow = courseCenter - 2;
 1167              		.loc 1 541 0
 1168 05ea AAF10205 		sub	r5, r10, #2
 1169              	.LVL272:
 542:main.c        ****                         courseHigh = courseCenter + 1;
 1170              		.loc 1 542 0
 1171 05ee 0AF1010B 		add	fp, r10, #1
 1172              	.LVL273:
 543:main.c        ****                         sweepHigh = courseCenter + 2;
 1173              		.loc 1 543 0
 1174 05f2 0AF1020A 		add	r10, r10, #2
 1175              	.LVL274:
 544:main.c        **** 
 545:main.c        ****                         fineLow = fineCenter + 160;
 1176              		.loc 1 545 0
 1177 05f6 00F1A008 		add	r8, r0, #160
 1178              	.LVL275:
 546:main.c        ****                         fineHigh = fineCenter + 95;
 1179              		.loc 1 546 0
 1180 05fa 00F15F07 		add	r7, r0, #95
 1181              	.LVL276:
 1182              	.L59:
 547:main.c        ****                         /*Set +1 higher than it needs to be for 
 548:main.c        ****                                                                        the for loop to sweep throug
 549:main.c        ****                                                                        necessary high value*/
 550:main.c        ****                     }
ARM GAS  C:\Users\THOMPS~1\AppData\Local\Temp\ccpMTeFg.s 			page 32


 551:main.c        **** 
 552:main.c        ****                     whichLoop = 1;
 553:main.c        ****                     decideLoop = sweepHigh - courseLow;
 1183              		.loc 1 553 0
 1184 05fe C5EB0A09 		rsb	r9, r5, r10
 1185              	.LVL277:
 552:main.c        ****                     decideLoop = sweepHigh - courseLow;
 1186              		.loc 1 552 0
 1187 0602 0123     		movs	r3, #1
 1188 0604 0293     		str	r3, [sp, #8]
 1189 0606 07E0     		b	.L81
 1190              	.LVL278:
 1191              	.L121:
 1192 0608 039D     		ldr	r5, [sp, #12]
 1193 060a DDF81080 		ldr	r8, [sp, #16]
 1194 060e 079E     		ldr	r6, [sp, #28]
 1195 0610 CDF80890 		str	r9, [sp, #8]
 1196 0614 DDF80490 		ldr	r9, [sp, #4]
 1197              	.LVL279:
 1198              	.L81:
 488:main.c        ****                     greenLight_Write(0);
 1199              		.loc 1 488 0
 1200 0618 FFF7FEFF 		bl	calibratePin_Read
 1201              	.LVL280:
 1202 061c 0128     		cmp	r0, #1
 1203 061e 82D0     		beq	.L61
 1204 0620 0395     		str	r5, [sp, #12]
 1205 0622 CDF81080 		str	r8, [sp, #16]
 1206 0626 0796     		str	r6, [sp, #28]
 1207 0628 CDF80490 		str	r9, [sp, #4]
 1208 062c DDF80890 		ldr	r9, [sp, #8]
 1209              	.LVL281:
 554:main.c        ****                 }
 555:main.c        **** 
 556:main.c        ****                 yellowLight_Write(0);
 1210              		.loc 1 556 0
 1211 0630 0020     		movs	r0, #0
 1212 0632 FFF7FEFF 		bl	yellowLight_Write
 1213              	.LVL282:
 557:main.c        **** 
 558:main.c        ****                 //Board is in watch mode while outside the loop below.
 559:main.c        ****                 //Board is in search mode while inside the loop below.
 560:main.c        **** 
 561:main.c        ****                 lfOutADC_StartConvert();
 1214              		.loc 1 561 0
 1215 0636 FFF7FEFF 		bl	lfOutADC_StartConvert
 1216              	.LVL283:
 562:main.c        **** 
 563:main.c        ****                 while (lfOutADC_GetResult32() > upRail || lfOutADC_GetResult32() < lowRail) {
 1217              		.loc 1 563 0
 1218 063a 86E0     		b	.L62
 1219              	.LVL284:
 1220              	.L80:
 564:main.c        **** 
 565:main.c        ****                     //Switch to search mode    
 566:main.c        **** 
 567:main.c        ****                     greenLight_Write(0);
ARM GAS  C:\Users\THOMPS~1\AppData\Local\Temp\ccpMTeFg.s 			page 33


 1221              		.loc 1 567 0
 1222 063c 0020     		movs	r0, #0
 1223 063e FFF7FEFF 		bl	greenLight_Write
 1224              	.LVL285:
 568:main.c        ****                     switches_Write(1);
 1225              		.loc 1 568 0
 1226 0642 0120     		movs	r0, #1
 1227 0644 FFF7FEFF 		bl	switches_Write
 1228              	.LVL286:
 569:main.c        **** 
 570:main.c        ****                     check = 0;
 571:main.c        ****                     lockFail = 0;
 572:main.c        **** 
 573:main.c        ****                     courseDAC_Start();
 1229              		.loc 1 573 0
 1230 0648 FFF7FEFF 		bl	courseDAC_Start
 1231              	.LVL287:
 574:main.c        ****                     fineDAC_Start();
 1232              		.loc 1 574 0
 1233 064c FFF7FEFF 		bl	fineDAC_Start
 1234              	.LVL288:
 575:main.c        ****                     eMonADC_StartConvert();
 1235              		.loc 1 575 0
 1236 0650 FFF7FEFF 		bl	eMonADC_StartConvert
 1237              	.LVL289:
 576:main.c        **** 
 577:main.c        ****                     //Sweep laser frequency    
 578:main.c        **** 
 579:main.c        ****                     for (i = courseLow; i < sweepHigh; i++) {
 1238              		.loc 1 579 0
 1239 0654 DDF80C80 		ldr	r8, [sp, #12]
 571:main.c        **** 
 1240              		.loc 1 571 0
 1241 0658 0023     		movs	r3, #0
 1242 065a 0293     		str	r3, [sp, #8]
 570:main.c        ****                     lockFail = 0;
 1243              		.loc 1 570 0
 1244 065c 1E46     		mov	r6, r3
 1245              		.loc 1 579 0
 1246 065e 72E0     		b	.L63
 1247              	.LVL290:
 1248              	.L79:
 580:main.c        ****                         courseDAC_SetValue(i);
 1249              		.loc 1 580 0
 1250 0660 5FFA88F0 		uxtb	r0, r8
 1251 0664 FFF7FEFF 		bl	courseDAC_SetValue
 1252              	.LVL291:
 581:main.c        **** 
 582:main.c        ****                         if (whichLoop == 1) {
 1253              		.loc 1 582 0
 1254 0668 B9F1010F 		cmp	r9, #1
 1255 066c 1BD1     		bne	.L118
 1256 066e 14E0     		b	.L106
 1257              	.LVL292:
 1258              	.L68:
 583:main.c        ****                             for (j = fineLow; j < 256; j++) {
 584:main.c        ****                                 fineDAC_SetValue(j);
ARM GAS  C:\Users\THOMPS~1\AppData\Local\Temp\ccpMTeFg.s 			page 34


 1259              		.loc 1 584 0
 1260 0670 E8B2     		uxtb	r0, r5
 1261 0672 FFF7FEFF 		bl	fineDAC_SetValue
 1262              	.LVL293:
 585:main.c        **** 
 586:main.c        ****                                 if (eMonADC_GetResult16() < detectThres)
 1263              		.loc 1 586 0
 1264 0676 FFF7FEFF 		bl	eMonADC_GetResult16
 1265              	.LVL294:
 1266 067a A042     		cmp	r0, r4
 1267 067c 00DA     		bge	.L66
 587:main.c        ****                                     check = 1;
 1268              		.loc 1 587 0
 1269 067e 0126     		movs	r6, #1
 1270              	.LVL295:
 1271              	.L66:
 588:main.c        **** 
 589:main.c        ****                                 if (eMonADC_GetResult16() > detectThres && check == 1) {
 1272              		.loc 1 589 0
 1273 0680 FFF7FEFF 		bl	eMonADC_GetResult16
 1274              	.LVL296:
 1275 0684 A042     		cmp	r0, r4
 1276 0686 03DD     		ble	.L67
 1277              		.loc 1 589 0 is_stmt 0 discriminator 1
 1278 0688 16B1     		cbz	r6, .L67
 590:main.c        ****                                     j = 300;
 1279              		.loc 1 590 0 is_stmt 1
 1280 068a 4FF49675 		mov	r5, #300
 1281              	.LVL297:
 591:main.c        ****                                     i = 300;
 1282              		.loc 1 591 0
 1283 068e A846     		mov	r8, r5
 1284              	.LVL298:
 1285              	.L67:
 592:main.c        ****                                 }
 593:main.c        **** 
 594:main.c        ****                                 CyDelayUs(1);
 1286              		.loc 1 594 0 discriminator 2
 1287 0690 0120     		movs	r0, #1
 1288 0692 FFF7FEFF 		bl	CyDelayUs
 1289              	.LVL299:
 583:main.c        ****                                 fineDAC_SetValue(j);
 1290              		.loc 1 583 0 discriminator 2
 1291 0696 0135     		adds	r5, r5, #1
 1292              	.LVL300:
 1293 0698 00E0     		b	.L64
 1294              	.LVL301:
 1295              	.L106:
 1296 069a 049D     		ldr	r5, [sp, #16]
 1297              	.L64:
 1298              	.LVL302:
 583:main.c        ****                                 fineDAC_SetValue(j);
 1299              		.loc 1 583 0 is_stmt 0 discriminator 1
 1300 069c FF2D     		cmp	r5, #255
 1301 069e E7DD     		ble	.L68
 595:main.c        ****                             }
 596:main.c        **** 
ARM GAS  C:\Users\THOMPS~1\AppData\Local\Temp\ccpMTeFg.s 			page 35


 597:main.c        ****                             whichLoop++;
 1302              		.loc 1 597 0 is_stmt 1
 1303 06a0 09F10109 		add	r9, r9, #1
 1304              	.LVL303:
 1305 06a4 3CE0     		b	.L69
 1306              	.LVL304:
 1307              	.L118:
 598:main.c        ****                         } else if (whichLoop < decideLoop && whichLoop > 1) {
 1308              		.loc 1 598 0
 1309 06a6 019B     		ldr	r3, [sp, #4]
 1310 06a8 9945     		cmp	r9, r3
 1311 06aa 34DA     		bge	.L109
 1312              		.loc 1 598 0 is_stmt 0 discriminator 1
 1313 06ac B9F1010F 		cmp	r9, #1
 1314 06b0 16DC     		bgt	.L110
 1315 06b2 0025     		movs	r5, #0
 1316 06b4 30E0     		b	.L70
 1317              	.LVL305:
 1318              	.L74:
 599:main.c        ****                             for (j = 0; j < 256; j++) {
 600:main.c        ****                                 fineDAC_SetValue(j);
 1319              		.loc 1 600 0 is_stmt 1
 1320 06b6 E8B2     		uxtb	r0, r5
 1321 06b8 FFF7FEFF 		bl	fineDAC_SetValue
 1322              	.LVL306:
 601:main.c        **** 
 602:main.c        ****                                 if (eMonADC_GetResult16() < detectThres)
 1323              		.loc 1 602 0
 1324 06bc FFF7FEFF 		bl	eMonADC_GetResult16
 1325              	.LVL307:
 1326 06c0 A042     		cmp	r0, r4
 1327 06c2 00DA     		bge	.L72
 603:main.c        ****                                     check = 1;
 1328              		.loc 1 603 0
 1329 06c4 0126     		movs	r6, #1
 1330              	.LVL308:
 1331              	.L72:
 604:main.c        **** 
 605:main.c        ****                                 if (eMonADC_GetResult16() > detectThres && check == 1) {
 1332              		.loc 1 605 0
 1333 06c6 FFF7FEFF 		bl	eMonADC_GetResult16
 1334              	.LVL309:
 1335 06ca A042     		cmp	r0, r4
 1336 06cc 03DD     		ble	.L73
 1337              		.loc 1 605 0 is_stmt 0 discriminator 1
 1338 06ce 16B1     		cbz	r6, .L73
 606:main.c        ****                                     j = 300;
 1339              		.loc 1 606 0 is_stmt 1
 1340 06d0 4FF49675 		mov	r5, #300
 1341              	.LVL310:
 607:main.c        ****                                     i = 300;
 1342              		.loc 1 607 0
 1343 06d4 A846     		mov	r8, r5
 1344              	.LVL311:
 1345              	.L73:
 608:main.c        ****                                 }
 609:main.c        **** 
ARM GAS  C:\Users\THOMPS~1\AppData\Local\Temp\ccpMTeFg.s 			page 36


 610:main.c        ****                                 CyDelayUs(1);
 1346              		.loc 1 610 0 discriminator 2
 1347 06d6 0120     		movs	r0, #1
 1348 06d8 FFF7FEFF 		bl	CyDelayUs
 1349              	.LVL312:
 599:main.c        ****                                 fineDAC_SetValue(j);
 1350              		.loc 1 599 0 discriminator 2
 1351 06dc 0135     		adds	r5, r5, #1
 1352              	.LVL313:
 1353 06de 00E0     		b	.L71
 1354              	.LVL314:
 1355              	.L110:
 1356 06e0 0025     		movs	r5, #0
 1357              	.L71:
 1358              	.LVL315:
 599:main.c        ****                                 fineDAC_SetValue(j);
 1359              		.loc 1 599 0 is_stmt 0 discriminator 1
 1360 06e2 FF2D     		cmp	r5, #255
 1361 06e4 E7DD     		ble	.L74
 611:main.c        ****                             }
 612:main.c        **** 
 613:main.c        ****                             whichLoop++;
 1362              		.loc 1 613 0 is_stmt 1
 1363 06e6 09F10109 		add	r9, r9, #1
 1364              	.LVL316:
 1365 06ea 19E0     		b	.L69
 1366              	.L77:
 614:main.c        ****                         } else {
 615:main.c        ****                             for (j = 0; j < fineHigh; j++) {
 616:main.c        ****                                 fineDAC_SetValue(j);
 1367              		.loc 1 616 0
 1368 06ec E8B2     		uxtb	r0, r5
 1369 06ee FFF7FEFF 		bl	fineDAC_SetValue
 1370              	.LVL317:
 617:main.c        **** 
 618:main.c        ****                                 if (eMonADC_GetResult16() < detectThres)
 1371              		.loc 1 618 0
 1372 06f2 FFF7FEFF 		bl	eMonADC_GetResult16
 1373              	.LVL318:
 1374 06f6 A042     		cmp	r0, r4
 1375 06f8 00DA     		bge	.L75
 619:main.c        ****                                     check = 1;
 1376              		.loc 1 619 0
 1377 06fa 0126     		movs	r6, #1
 1378              	.LVL319:
 1379              	.L75:
 620:main.c        **** 
 621:main.c        ****                                 if (eMonADC_GetResult16() > detectThres && check == 1) {
 1380              		.loc 1 621 0
 1381 06fc FFF7FEFF 		bl	eMonADC_GetResult16
 1382              	.LVL320:
 1383 0700 A042     		cmp	r0, r4
 1384 0702 03DD     		ble	.L76
 1385              		.loc 1 621 0 is_stmt 0 discriminator 1
 1386 0704 16B1     		cbz	r6, .L76
 622:main.c        ****                                     j = 300;
 1387              		.loc 1 622 0 is_stmt 1
ARM GAS  C:\Users\THOMPS~1\AppData\Local\Temp\ccpMTeFg.s 			page 37


 1388 0706 4FF49675 		mov	r5, #300
 1389              	.LVL321:
 623:main.c        ****                                     i = 300;
 1390              		.loc 1 623 0
 1391 070a A846     		mov	r8, r5
 1392              	.LVL322:
 1393              	.L76:
 624:main.c        ****                                 }
 625:main.c        **** 
 626:main.c        ****                                 CyDelayUs(1);
 1394              		.loc 1 626 0 discriminator 2
 1395 070c 0120     		movs	r0, #1
 1396 070e FFF7FEFF 		bl	CyDelayUs
 1397              	.LVL323:
 615:main.c        ****                                 fineDAC_SetValue(j);
 1398              		.loc 1 615 0 discriminator 2
 1399 0712 0135     		adds	r5, r5, #1
 1400              	.LVL324:
 1401 0714 00E0     		b	.L70
 1402              	.LVL325:
 1403              	.L109:
 1404 0716 0025     		movs	r5, #0
 1405              	.L70:
 1406              	.LVL326:
 615:main.c        ****                                 fineDAC_SetValue(j);
 1407              		.loc 1 615 0 is_stmt 0 discriminator 1
 1408 0718 BD42     		cmp	r5, r7
 1409 071a E7DB     		blt	.L77
 627:main.c        ****                             }
 628:main.c        **** 
 629:main.c        ****                             whichLoop = 1;
 1410              		.loc 1 629 0 is_stmt 1
 1411 071c 4FF00109 		mov	r9, #1
 1412              	.LVL327:
 1413              	.L69:
 630:main.c        ****                         }
 631:main.c        **** 
 632:main.c        ****                         if (i == courseHigh) {
 1414              		.loc 1 632 0
 1415 0720 D845     		cmp	r8, fp
 1416 0722 0BD1     		bne	.L78
 633:main.c        ****                             i = (courseLow - 1);
 1417              		.loc 1 633 0
 1418 0724 039B     		ldr	r3, [sp, #12]
 1419 0726 03F1FF38 		add	r8, r3, #-1
 1420              	.LVL328:
 634:main.c        ****                             lockFail++;
 1421              		.loc 1 634 0
 1422 072a 029B     		ldr	r3, [sp, #8]
 1423 072c 0133     		adds	r3, r3, #1
 1424              	.LVL329:
 635:main.c        **** 
 636:main.c        ****                             if (lockFail == 20) {
 1425              		.loc 1 636 0
 1426 072e 142B     		cmp	r3, #20
 1427 0730 03D1     		bne	.L115
 637:main.c        ****                                 redLight_Write(1);
ARM GAS  C:\Users\THOMPS~1\AppData\Local\Temp\ccpMTeFg.s 			page 38


 1428              		.loc 1 637 0
 1429 0732 0120     		movs	r0, #1
 1430 0734 FFF7FEFF 		bl	redLight_Write
 1431              	.LVL330:
 1432 0738 00E0     		b	.L78
 1433              	.LVL331:
 1434              	.L115:
 634:main.c        ****                             lockFail++;
 1435              		.loc 1 634 0
 1436 073a 0293     		str	r3, [sp, #8]
 1437              	.LVL332:
 1438              	.L78:
 638:main.c        ****                                 lockFail--;
 639:main.c        ****                             }
 640:main.c        ****                         }
 641:main.c        **** 
 642:main.c        ****                         CyDelayUs(1);
 1439              		.loc 1 642 0 discriminator 2
 1440 073c 0120     		movs	r0, #1
 1441 073e FFF7FEFF 		bl	CyDelayUs
 1442              	.LVL333:
 579:main.c        ****                         courseDAC_SetValue(i);
 1443              		.loc 1 579 0 discriminator 2
 1444 0742 08F10108 		add	r8, r8, #1
 1445              	.LVL334:
 1446              	.L63:
 579:main.c        ****                         courseDAC_SetValue(i);
 1447              		.loc 1 579 0 is_stmt 0 discriminator 1
 1448 0746 D045     		cmp	r8, r10
 1449 0748 8ADB     		blt	.L79
 1450              	.LVL335:
 1451              	.L62:
 563:main.c        **** 
 1452              		.loc 1 563 0 is_stmt 1
 1453 074a FFF7FEFF 		bl	lfOutADC_GetResult32
 1454              	.LVL336:
 1455 074e 059B     		ldr	r3, [sp, #20]
 1456 0750 9842     		cmp	r0, r3
 1457 0752 3FF773AF 		bgt	.L80
 563:main.c        **** 
 1458              		.loc 1 563 0 is_stmt 0 discriminator 1
 1459 0756 FFF7FEFF 		bl	lfOutADC_GetResult32
 1460              	.LVL337:
 1461 075a 069B     		ldr	r3, [sp, #24]
 1462 075c 9842     		cmp	r0, r3
 1463 075e FFF66DAF 		blt	.L80
 1464              	.LVL338:
 643:main.c        ****                     }
 644:main.c        ****                 }
 645:main.c        **** 
 646:main.c        ****                 //Switch to watch mode
 647:main.c        **** 
 648:main.c        ****                 whichLoop = 1;
 649:main.c        ****                 switches_Write(0);
 1465              		.loc 1 649 0 is_stmt 1
 1466 0762 0020     		movs	r0, #0
 1467 0764 FFF7FEFF 		bl	switches_Write
ARM GAS  C:\Users\THOMPS~1\AppData\Local\Temp\ccpMTeFg.s 			page 39


 1468              	.LVL339:
 650:main.c        ****                 greenLight_Write(1);
 1469              		.loc 1 650 0
 1470 0768 0120     		movs	r0, #1
 1471 076a FFF7FEFF 		bl	greenLight_Write
 1472              	.LVL340:
 651:main.c        ****                 redLight_Write(0);
 1473              		.loc 1 651 0
 1474 076e 0020     		movs	r0, #0
 1475 0770 FFF7FEFF 		bl	redLight_Write
 1476              	.LVL341:
 648:main.c        ****                 switches_Write(0);
 1477              		.loc 1 648 0
 1478 0774 4FF00109 		mov	r9, #1
 1479              	.LVL342:
 1480              	.L56:
 487:main.c        ****                 while (calibratePin_Read() == 1) {
 1481              		.loc 1 487 0
 1482 0778 FFF7FEFF 		bl	setting28V_Read
 1483              	.LVL343:
 1484 077c 0128     		cmp	r0, #1
 1485 077e 3FF443AF 		beq	.L121
 1486 0782 87E5     		b	.L4
 1487              	.L126:
 1488 0784 AFF30080 		.align	3
 1489              	.L125:
 1490 0788 00000000 		.word	0
 1491 078c 602BEA40 		.word	1089088352
 1492 0790 00000000 		.word	0
 1493 0794 00E06F40 		.word	1081073664
 1494 0798 00007040 		.word	1081081856
 1495 079c 0000E03F 		.word	1071644672
 1496              		.cfi_endproc
 1497              	.LFE63:
 1498              		.size	main, .-main
 1499              		.text
 1500              	.Letext0:
 1501              		.file 2 "c:\\program files (x86)\\cypress\\psoc creator\\4.0\\psoc creator\\import\\gnu\\arm\\4.9.
 1502              		.file 3 "c:\\program files (x86)\\cypress\\psoc creator\\4.0\\psoc creator\\import\\gnu\\arm\\4.9.
 1503              		.file 4 "Generated_Source\\PSoC5/cytypes.h"
 1504              		.file 5 "Generated_Source\\PSoC5/checkLight.h"
 1505              		.file 6 "Generated_Source\\PSoC5/yellowLight.h"
 1506              		.file 7 "Generated_Source\\PSoC5/greenLight.h"
 1507              		.file 8 "Generated_Source\\PSoC5/redLight.h"
 1508              		.file 9 "Generated_Source\\PSoC5/switches.h"
 1509              		.file 10 "Generated_Source\\PSoC5/CyLib.h"
 1510              		.file 11 "Generated_Source\\PSoC5/lockIn.h"
 1511              		.file 12 "Generated_Source\\PSoC5/thresSample.h"
 1512              		.file 13 "Generated_Source\\PSoC5/eMonADC.h"
 1513              		.file 14 "Generated_Source\\PSoC5/lfOutADC.h"
 1514              		.file 15 "Generated_Source\\PSoC5/calibratePin.h"
 1515              		.file 16 "Generated_Source\\PSoC5/courseDAC.h"
 1516              		.file 17 "Generated_Source\\PSoC5/fineDAC.h"
 1517              		.file 18 "Generated_Source\\PSoC5/setting8V.h"
 1518              		.file 19 "Generated_Source\\PSoC5/setting22V.h"
 1519              		.file 20 "Generated_Source\\PSoC5/setting28V.h"
 1520              		.file 21 "Generated_Source\\PSoC5/core_cm3.h"
ARM GAS  C:\Users\THOMPS~1\AppData\Local\Temp\ccpMTeFg.s 			page 40

